 gamex86

 Timestamp is 5d6491da (Mon Aug 26 23:13:46 2019)

 Preferred load address is 10000000

 Start         Length     Name                   Class
 0001:00000000 001d895eH .text                   CODE
 0001:001d8960 00006f4dH .text$x                 CODE
 0001:001df8b0 0000efcfH .text$yc                CODE
 0001:001ee880 0000217fH .text$yd                CODE
 0002:00000000 00000120H .idata$5                DATA
 0002:00000120 00000004H .CRT$XCA                DATA
 0002:00000124 000013b4H .CRT$XCU                DATA
 0002:000014d8 00000004H .CRT$XCZ                DATA
 0002:000014dc 00000004H .CRT$XIA                DATA
 0002:000014e0 00000014H .CRT$XIC                DATA
 0002:000014f4 00000004H .CRT$XIZ                DATA
 0002:000014f8 00000004H .CRT$XPA                DATA
 0002:000014fc 00000004H .CRT$XPX                DATA
 0002:00001500 00000004H .CRT$XPXA               DATA
 0002:00001504 00000004H .CRT$XPZ                DATA
 0002:00001508 00000004H .CRT$XTA                DATA
 0002:0000150c 00000004H .CRT$XTZ                DATA
 0002:00001510 00031620H .rdata                  DATA
 0002:00032b30 00000059H .rdata$debug            DATA
 0002:00032b8c 000046c4H .rdata$r                DATA
 0002:00037250 00000814H .rdata$sxdata           DATA
 0002:00037a64 00000004H .rtc$IAA                DATA
 0002:00037a68 00000004H .rtc$IZZ                DATA
 0002:00037a6c 00000004H .rtc$TAA                DATA
 0002:00037a70 00000004H .rtc$TZZ                DATA
 0002:00037a78 0000a58cH .xdata$x                DATA
 0002:00042004 00000028H .idata$2                DATA
 0002:0004202c 00000014H .idata$3                DATA
 0002:00042040 00000120H .idata$4                DATA
 0002:00042160 0000051cH .idata$6                DATA
 0002:00042680 00000049H .edata                  DATA
 0003:00000000 0000ac20H .data                   DATA
 0003:0000ac20 004a3ee4H .bss                    DATA

  Address         Publics by Value              Rva+Base       Lib:Object

 0000:00000000       __except_list              00000000     <absolute>
 0000:00000205       ___safe_se_handler_count   00000205     <absolute>
 0000:00000000       ___ImageBase               10000000     <linker-defined>
 0001:00000000       ?IsLoaded@idAF@@QBE_NXZ    10001000 f i AF.obj
 0001:00000020       ??0idVec2@@QAE@XZ          10001020 f i BrittleFracture.obj
 0001:00000020       ??0idVec3@@QAE@XZ          10001020 f i AF.obj
 0001:00000030       ?Start@idAF@@QAEXXZ        10001030 f   AF.obj
 0001:000000a0       ?Stop@idAF@@QAEXXZ         100010a0 f   AF.obj
 0001:000000c0       ?Rest@idAF@@QAEXXZ         100010c0 f   AF.obj
 0001:000000d0       ?SetConstraintPosition@idAF@@QAEXPBDABVidVec3@@@Z 100010d0 f   AF.obj
 0001:00000250       ??_H@YGXPAXIHP6EPAX0@Z@Z   10001250 f i AF.obj
 0001:00000280       ??4idMat3@@QAEAAV0@ABV0@@Z 10001280 f i AF.obj
 0001:000002c0       ??1idStr@@QAE@XZ           100012c0 f i AF.obj
 0001:000002c0       ??1idToken@@QAE@XZ         100012c0 f i AF.obj
 0001:000002c0       ??1mpChatLine_s@@QAE@XZ    100012c0 f i Game_local.obj
 0001:000002d0       ?SetWorldAxis@idAFBody@@QAEXABVidMat3@@@Z 100012d0 f i AF.obj
 0001:00000320       ?Save@idAF@@QBEXPAVidSaveGame@@@Z 10001320 f   AF.obj
 0001:000003c0       ?SetupPose@idAF@@QAEXPAVidEntity@@H@Z 100013c0 f   AF.obj
 0001:00000850       ?ChangePose@idAF@@QAEXPAVidEntity@@H@Z 10001850 f   AF.obj
 0001:00000db0       ?EntitiesTouchingAF@idAF@@QBEHQAUafTouch_s@@@Z 10001db0 f   AF.obj
 0001:00000fa0       ?BodyForClipModelId@idAF@@QBEHH@Z 10001fa0 f   AF.obj
 0001:00000fd0       ?GetPhysicsToVisualTransform@idAF@@QBEXAAVidVec3@@AAVidMat3@@@Z 10001fd0 f   AF.obj
 0001:000010b0       ?GetImpactInfo@idAF@@QAEXPAVidEntity@@HABVidVec3@@PAUimpactInfo_s@@@Z 100020b0 f   AF.obj
 0001:00001110       ?ApplyImpulse@idAF@@QAEXPAVidEntity@@HABVidVec3@@1@Z 10002110 f   AF.obj
 0001:00001170       ?AddForce@idAF@@QAEXPAVidEntity@@HABVidVec3@@1@Z 10002170 f   AF.obj
 0001:000011d0       ?LoadConstraint@idAF@@IAE_NPBVidDeclAF_Constraint@@@Z 100021d0 f   AF.obj
 0001:00001c90       ??H@YA?AVidStr@@PBDABV0@@Z 10002c90 f i AF.obj
 0001:00001d70       ??0idAF@@QAE@XZ            10002d70 f   AF.obj
 0001:00001eb0       ??1idAF@@QAE@XZ            10002eb0 f   AF.obj
 0001:00001f60       ?GetBounds@idAF@@QBE?AVidBounds@@XZ 10002f60 f   AF.obj
 0001:00002590       ?TestSolid@idAF@@IBE_NXZ   10003590 f   AF.obj
 0001:000027f0       ?SaveState@idAF@@QBEXAAVidDict@@@Z 100037f0 f   AF.obj
 0001:00002a20       ?LoadState@idAF@@QAEXABVidDict@@@Z 10003a20 f   AF.obj
 0001:00002bf0       ?AddBindConstraints@idAF@@QAEXXZ 10003bf0 f   AF.obj
 0001:00003590       ?RemoveBindConstraints@idAF@@QAEXXZ 10004590 f   AF.obj
 0001:000036c0       ?UpdateAnimation@idAF@@QAE_NXZ 100046c0 f   AF.obj
 0001:000040f0       ?StartFromCurrentPose@idAF@@QAEXH@Z 100050f0 f   AF.obj
 0001:000041a0       ?AddBody@idAF@@IAEXPAVidAFBody@@PBVidJointMat@@PBDW4AFJointModType_t@@@Z 100051a0 f   AF.obj
 0001:000045f0       ?SetBase@idAF@@IAEXPAVidAFBody@@PBVidJointMat@@@Z 100055f0 f   AF.obj
 0001:000046b0       ?LoadBody@idAF@@IAE_NPBVidDeclAF_Body@@PBVidJointMat@@@Z 100056b0 f   AF.obj
 0001:000050a0       ?Load@idAF@@QAE_NPAVidEntity@@PBD@Z 100060a0 f   AF.obj
 0001:00005890       ?Restore@idAF@@QAEXPAVidRestoreGame@@@Z 10006890 f   AF.obj
 0001:000059b0       ?GetType@idMultiModelAF@@UBEPAVidTypeInfo@@XZ 100069b0 f   AFEntity.obj
 0001:000059c0       ?Spawn@idMultiModelAF@@QAEXXZ 100069c0 f   AFEntity.obj
 0001:000059e0       ?GetType@idChain@@UBEPAVidTypeInfo@@XZ 100069e0 f   AFEntity.obj
 0001:000059f0       ?GetType@idAFAttachment@@UBEPAVidTypeInfo@@XZ 100069f0 f   AFEntity.obj
 0001:00005a00       ?Spawn@idAFAttachment@@QAEXXZ 10006a00 f   AFEntity.obj
 0001:00005a20       ?ClearBody@idAFAttachment@@QAEXXZ 10006a20 f   AFEntity.obj
 0001:00005a40       ?GetBody@idAFAttachment@@QBEPAVidEntity@@XZ 10006a40 f   AFEntity.obj
 0001:00005a50       ?Save@idAFAttachment@@QBEXPAVidSaveGame@@@Z 10006a50 f   AFEntity.obj
 0001:00005a90       ?Hide@idAFAttachment@@UAEXXZ 10006a90 f   AFEntity.obj
 0001:00005ab0       ?Show@idAFAttachment@@UAEXXZ 10006ab0 f   AFEntity.obj
 0001:00005ad0       ?Damage@idAFAttachment@@UAEXPAVidEntity@@0ABVidVec3@@PBDMH@Z 10006ad0 f   AFEntity.obj
 0001:00005b20       ?AddDamageEffect@idAFAttachment@@UAEXABUtrace_s@@ABVidVec3@@PBD@Z 10006b20 f   AFEntity.obj
 0001:00005b80       ?GetImpactInfo@idAFAttachment@@UAEXPAVidEntity@@HABVidVec3@@PAUimpactInfo_s@@@Z 10006b80 f   AFEntity.obj
 0001:00005bc0       ?ApplyImpulse@idAFAttachment@@UAEXPAVidEntity@@HABVidVec3@@1@Z 10006bc0 f   AFEntity.obj
 0001:00005c00       ?AddForce@idAFAttachment@@UAEXPAVidEntity@@HABVidVec3@@1@Z 10006c00 f   AFEntity.obj
 0001:00005c40       ?PlayIdleAnim@idAFAttachment@@QAEXH@Z 10006c40 f   AFEntity.obj
 0001:00005c90       ?Think@idAFAttachment@@UAEXXZ 10006c90 f   AFEntity.obj
 0001:00005cb0       ?SetCombatModel@idAFAttachment@@QAEXXZ 10006cb0 f   AFEntity.obj
 0001:00005d40       ?LinkCombat@idAFAttachment@@UAEXXZ 10006d40 f   AFEntity.obj
 0001:00005d80       ?UnlinkCombat@idAFAttachment@@UAEXXZ 10006d80 f   AFEntity.obj
 0001:00005d90       ?GetType@idAFEntity_Base@@UBEPAVidTypeInfo@@XZ 10006d90 f   AFEntity.obj
 0001:00005da0       ?Save@idAFEntity_Base@@QBEXPAVidSaveGame@@@Z 10006da0 f   AFEntity.obj
 0001:00005e00       ?Restore@idAFEntity_Base@@QAEXPAVidRestoreGame@@@Z 10006e00 f   AFEntity.obj
 0001:00005e70       ?Think@idAFEntity_WithAttachedHead@@UAEXXZ 10006e70 f   AFEntity.obj
 0001:00005e70       ?Think@idAFEntity_Base@@UAEXXZ 10006e70 f   AFEntity.obj
 0001:00005e70       ?Think@idAFEntity_Harvest@@UAEXXZ 10006e70 f   AFEntity.obj
 0001:00005ea0       ?BodyForClipModelId@idAFEntity_Base@@QBEHH@Z 10006ea0 f   AFEntity.obj
 0001:00005eb0       ?AddBindConstraints@idAFEntity_Base@@QAEXXZ 10006eb0 f   AFEntity.obj
 0001:00005ec0       ?RemoveBindConstraints@idAFEntity_Base@@QAEXXZ 10006ec0 f   AFEntity.obj
 0001:00005ed0       ?GetImpactInfo@idAFEntity_Base@@UAEXPAVidEntity@@HABVidVec3@@PAUimpactInfo_s@@@Z 10006ed0 f   AFEntity.obj
 0001:00005ef0       ?ApplyImpulse@idAFEntity_Base@@UAEXPAVidEntity@@HABVidVec3@@1@Z 10006ef0 f   AFEntity.obj
 0001:00005f50       ?AddForce@idAFEntity_Base@@UAEXPAVidEntity@@HABVidVec3@@1@Z 10006f50 f   AFEntity.obj
 0001:00005fb0       ?GetPhysicsToVisualTransform@idAFEntity_Base@@UAE_NAAVidVec3@@AAVidMat3@@@Z 10006fb0 f   AFEntity.obj
 0001:00005fe0       ?UpdateAnimationControllers@idAFEntity_Base@@UAE_NXZ 10006fe0 f   AFEntity.obj
 0001:00006000       ?SetCombatModel@idAFEntity_Base@@QAEXXZ 10007000 f   AFEntity.obj
 0001:00006090       ?SetCombatContents@idAFEntity_Base@@QAEX_N@Z 10007090 f   AFEntity.obj
 0001:000060e0       ?LinkCombat@idAFEntity_Base@@UAEXXZ 100070e0 f   AFEntity.obj
 0001:00006120       ?UnlinkCombat@idAFEntity_Base@@UAEXXZ 10007120 f   AFEntity.obj
 0001:00006130       ?FreeModelDef@idAFEntity_Base@@UAEXXZ 10007130 f   AFEntity.obj
 0001:00006150       ?ShowEditingDialog@idAFEntity_Base@@UAEXXZ 10007150 f   AFEntity.obj
 0001:00006170       ?Event_SetConstraintPosition@idAFEntity_Base@@IAEXPBDABVidVec3@@@Z 10007170 f   AFEntity.obj
 0001:00006180       ?GetType@idAFEntity_Gibbable@@UBEPAVidTypeInfo@@XZ 10007180 f   AFEntity.obj
 0001:00006190       ??1idAFEntity_Gibbable@@UAE@XZ 10007190 f   AFEntity.obj
 0001:00006250       ?Save@idAFEntity_Gibbable@@QBEXPAVidSaveGame@@@Z 10007250 f   AFEntity.obj
 0001:00006290       ?SetThrown@idAFEntity_Gibbable@@QAEX_N@Z 10007290 f   AFEntity.obj
 0001:00006300       ?GetType@idAFEntity_Generic@@UBEPAVidTypeInfo@@XZ 10007300 f   AFEntity.obj
 0001:00006310       ?Save@idAFEntity_Generic@@QBEXPAVidSaveGame@@@Z 10007310 f   AFEntity.obj
 0001:00006330       ?Restore@idAFEntity_Generic@@QAEXPAVidRestoreGame@@@Z 10007330 f   AFEntity.obj
 0001:00006350       ?Think@idAFEntity_Generic@@UAEXXZ 10007350 f   AFEntity.obj
 0001:000063a0       ?GetType@idAFEntity_WithAttachedHead@@UBEPAVidTypeInfo@@XZ 100073a0 f   AFEntity.obj
 0001:000063b0       ?Event_Gib@idAFEntity_Gibbable@@IAEXPBD@Z 100073b0 f   AFEntity.obj
 0001:000063b0       ?Event_Gib@idAFEntity_WithAttachedHead@@QAEXPBD@Z 100073b0 f   AFEntity.obj
 0001:000063e0       ?GetType@idAFEntity_Vehicle@@UBEPAVidTypeInfo@@XZ 100073e0 f   AFEntity.obj
 0001:000063f0       ??1idAFEntity_Base@@UAE@XZ 100073f0 f i AFEntity.obj
 0001:000063f0       ??1idAFEntity_Vehicle@@UAE@XZ 100073f0 f i AFEntity.obj
 0001:00006470       ?GetSteerAngle@idAFEntity_Vehicle@@IAEMXZ 10007470 f   AFEntity.obj
 0001:00006500       ?GetType@idAFEntity_VehicleSimple@@UBEPAVidTypeInfo@@XZ 10007500 f   AFEntity.obj
 0001:00006510       ??1idAFEntity_VehicleSimple@@UAE@XZ 10007510 f   AFEntity.obj
 0001:000065d0       ?GetType@idAFEntity_VehicleFourWheels@@UBEPAVidTypeInfo@@XZ 100075d0 f   AFEntity.obj
 0001:000065e0       ?GetType@idAFEntity_VehicleSixWheels@@UBEPAVidTypeInfo@@XZ 100075e0 f   AFEntity.obj
 0001:000065f0       ?GetType@idAFEntity_VehicleAutomated@@UBEPAVidTypeInfo@@XZ 100075f0 f   AFEntity.obj
 0001:00006600       ?Spawn@idAFEntity_VehicleAutomated@@QAEXXZ 10007600 f   AFEntity.obj
 0001:000066b0       ?Event_SetVelocity@idAFEntity_VehicleAutomated@@AAEXM@Z 100076b0 f   AFEntity.obj
 0001:000066c0       ?Event_SetTorque@idAFEntity_VehicleAutomated@@AAEXM@Z 100076c0 f   AFEntity.obj
 0001:000066d0       ?Event_SetSteeringSpeed@idAFEntity_VehicleAutomated@@AAEXM@Z 100076d0 f   AFEntity.obj
 0001:000066e0       ?Event_SetWayPoint@idAFEntity_VehicleAutomated@@AAEXPAVidEntity@@@Z 100076e0 f   AFEntity.obj
 0001:000066f0       ?GetType@idAFEntity_SteamPipe@@UBEPAVidTypeInfo@@XZ 100076f0 f   AFEntity.obj
 0001:00006700       ??1idAFEntity_SteamPipe@@UAE@XZ 10007700 f   AFEntity.obj
 0001:000067c0       ?Think@idAFEntity_SteamPipe@@UAEXXZ 100077c0 f   AFEntity.obj
 0001:000069a0       ?GetType@idAFEntity_ClawFourFingers@@UBEPAVidTypeInfo@@XZ 100079a0 f   AFEntity.obj
 0001:000069b0       ?Save@idAFEntity_ClawFourFingers@@QBEXPAVidSaveGame@@@Z 100079b0 f   AFEntity.obj
 0001:000069e0       ?Restore@idAFEntity_ClawFourFingers@@QAEXPAVidRestoreGame@@@Z 100079e0 f   AFEntity.obj
 0001:00006ac0       ?Event_SetFingerAngle@idAFEntity_ClawFourFingers@@AAEXM@Z 10007ac0 f   AFEntity.obj
 0001:00006b10       ?Event_StopFingers@idAFEntity_ClawFourFingers@@AAEXXZ 10007b10 f   AFEntity.obj
 0001:00006b40       ?GetType@idHarvestable@@UBEPAVidTypeInfo@@XZ 10007b40 f   AFEntity.obj
 0001:00006b50       ?GetType@idAFEntity_Harvest@@UBEPAVidTypeInfo@@XZ 10007b50 f   AFEntity.obj
 0001:00006b60       ?Spawn@idAFEntity_Harvest@@QAEXXZ 10007b60 f   AFEntity.obj
 0001:00006b70       ??4idBounds@@QAEAAV0@ABV0@@Z 10007b70 f i AFEntity.obj
 0001:00006ba0       ??1idHashIndex@@QAE@XZ     10007ba0 f i AFEntity.obj
 0001:00006bb0       ?Present@idMultiModelAF@@UAEXXZ 10007bb0 f   AFEntity.obj
 0001:00006ce0       ?CreateInstance@idAFAttachment@@SAPAVidClass@@XZ 10007ce0 f   AFEntity.obj
 0001:00006da0       ?SetBody@idAFAttachment@@QAEXPAVidEntity@@PBDW4jointHandle_t@@@Z 10007da0 f   AFEntity.obj
 0001:00006e20       ?Restore@idAFAttachment@@QAEXPAVidRestoreGame@@@Z 10007e20 f   AFEntity.obj
 0001:00006e70       ?Spawn@idAFEntity_Base@@QAEXXZ 10007e70 f   AFEntity.obj
 0001:00006f20       ?SaveState@idAFEntity_Base@@QBEXAAVidDict@@@Z 10007f20 f   AFEntity.obj
 0001:00006ff0       ?Collide@idAFEntity_Base@@UAE_NABUtrace_s@@ABVidVec3@@@Z 10007ff0 f   AFEntity.obj
 0001:000071d0       ??_GidAFEntity_Gibbable@@UAEPAXI@Z 100081d0 f i AFEntity.obj
 0001:000071d0       ??_EidAFEntity_Gibbable@@UAEPAXI@Z 100081d0 f i AFEntity.obj
 0001:000071f0       ?InitSkeletonModel@idAFEntity_Gibbable@@IAEXXZ 100081f0 f   AFEntity.obj
 0001:000072d0       ??4renderEntity_s@@QAEAAU0@ABU0@@Z 100082d0 f i AFEntity.obj
 0001:00007490       ?Damage@idAFEntity_Gibbable@@UAEXPAVidEntity@@0ABVidVec3@@PBDMH@Z 10008490 f   AFEntity.obj
 0001:00007510       ?Collide@idAFEntity_Gibbable@@UAE_NABUtrace_s@@ABVidVec3@@@Z 10008510 f   AFEntity.obj
 0001:00007690       ?Gib@idAFEntity_Gibbable@@MAEXABVidVec3@@PBD@Z 10008690 f   AFEntity.obj
 0001:00007800       ??_EidAFEntity_Generic@@UAEPAXI@Z 10008800 f i AFEntity.obj
 0001:00007800       ??_GidAFEntity_Generic@@UAEPAXI@Z 10008800 f i AFEntity.obj
 0001:00007830       ?Spawn@idAFEntity_Generic@@QAEXXZ 10008830 f   AFEntity.obj
 0001:000078c0       ?Event_Activate@idAFEntity_WithAttachedHead@@QAEXPAVidEntity@@@Z 100088c0 f   AFEntity.obj
 0001:000078c0       ?Event_Activate@idAFEntity_Generic@@AAEXPAVidEntity@@@Z 100088c0 f   AFEntity.obj
 0001:00007a20       ??1idAFEntity_WithAttachedHead@@UAE@XZ 10008a20 f   AFEntity.obj
 0001:00007b00       ?Save@idAFEntity_WithAttachedHead@@QBEXPAVidSaveGame@@@Z 10008b00 f   AFEntity.obj
 0001:00007b20       ?Restore@idAFEntity_WithAttachedHead@@QAEXPAVidRestoreGame@@@Z 10008b20 f   AFEntity.obj
 0001:00007b40       ?LinkCombat@idAFEntity_WithAttachedHead@@UAEXXZ 10008b40 f   AFEntity.obj
 0001:00007bb0       ?UnlinkCombat@idAFEntity_WithAttachedHead@@UAEXXZ 10008bb0 f   AFEntity.obj
 0001:00007c00       ?Hide@idAFEntity_WithAttachedHead@@UAEXXZ 10008c00 f   AFEntity.obj
 0001:00007c60       ?Show@idAFEntity_WithAttachedHead@@UAEXXZ 10008c60 f   AFEntity.obj
 0001:00007cc0       ?ProjectOverlay@idAFEntity_WithAttachedHead@@UAEXABVidVec3@@0MPBD@Z 10008cc0 f   AFEntity.obj
 0001:00007d30       ?Gib@idAFEntity_WithAttachedHead@@MAEXABVidVec3@@PBD@Z 10008d30 f   AFEntity.obj
 0001:00007da0       ?Spawn@idAFEntity_Vehicle@@QAEXXZ 10008da0 f   AFEntity.obj
 0001:00007f00       ?Use@idAFEntity_Vehicle@@QAEXPAVidPlayer@@@Z 10008f00 f   AFEntity.obj
 0001:00008060       ??_GidAFEntity_VehicleSimple@@UAEPAXI@Z 10009060 f i AFEntity.obj
 0001:00008060       ??_EidAFEntity_VehicleSimple@@UAEPAXI@Z 10009060 f i AFEntity.obj
 0001:00008080       ?Think@idAFEntity_VehicleSimple@@UAEXXZ 10009080 f   AFEntity.obj
 0001:00008610       ?Spawn@idAFEntity_VehicleFourWheels@@QAEXXZ 10009610 f   AFEntity.obj
 0001:000087d0       ?Think@idAFEntity_VehicleFourWheels@@UAEXXZ 100097d0 f   AFEntity.obj
 0001:00008c30       ?Spawn@idAFEntity_VehicleSixWheels@@QAEXXZ 10009c30 f   AFEntity.obj
 0001:00008e00       ?Think@idAFEntity_VehicleSixWheels@@UAEXXZ 10009e00 f   AFEntity.obj
 0001:00009380       ?PostSpawn@idAFEntity_VehicleAutomated@@QAEXXZ 1000a380 f   AFEntity.obj
 0001:000093c0       ??_EidAFEntity_SteamPipe@@UAEPAXI@Z 1000a3c0 f i AFEntity.obj
 0001:000093c0       ??_GidAFEntity_SteamPipe@@UAEPAXI@Z 1000a3c0 f i AFEntity.obj
 0001:000093e0       ?InitSteamRenderEntity@idAFEntity_SteamPipe@@AAEXXZ 1000a3e0 f   AFEntity.obj
 0001:000095b0       ?Spawn@idAFEntity_ClawFourFingers@@QAEXXZ 1000a5b0 f   AFEntity.obj
 0001:00009630       ?AF_UpdateEntities@idGameEdit@@UAEXPBD@Z 1000a630 f   AFEntity.obj
 0001:00009730       ?AF_UndoChanges@idGameEdit@@UAEXXZ 1000a730 f   AFEntity.obj
 0001:00009940       ?Spawn@idHarvestable@@QAEXXZ 1000a940 f   AFEntity.obj
 0001:00009a40       ?Init@idHarvestable@@QAEXPAVidEntity@@@Z 1000aa40 f   AFEntity.obj
 0001:00009d90       ?Save@idHarvestable@@QBEXPAVidSaveGame@@@Z 1000ad90 f   AFEntity.obj
 0001:00009e50       ?Restore@idHarvestable@@QAEXPAVidRestoreGame@@@Z 1000ae50 f   AFEntity.obj
 0001:00009f00       ?Gib@idHarvestable@@QAEXXZ 1000af00 f   AFEntity.obj
 0001:0000a000       ?BeginBurn@idHarvestable@@IAEXXZ 1000b000 f   AFEntity.obj
 0001:0000a2e0       ?CalcTriggerBounds@idHarvestable@@IAEXMAAVidBounds@@@Z 1000b2e0 f   AFEntity.obj
 0001:0000a3e0       ?GetFxOrientationAxis@idHarvestable@@IAE_NAAVidMat3@@@Z 1000b3e0 f   AFEntity.obj
 0001:0000abc0       ?Event_SpawnHarvestTrigger@idHarvestable@@IAEXXZ 1000bbc0 f   AFEntity.obj
 0001:0000ace0       ??1idAFEntity_Harvest@@UAE@XZ 1000bce0 f   AFEntity.obj
 0001:0000ad80       ?Save@idAFEntity_Harvest@@QBEXPAVidSaveGame@@@Z 1000bd80 f   AFEntity.obj
 0001:0000ada0       ?Restore@idAFEntity_Harvest@@QAEXPAVidRestoreGame@@@Z 1000bda0 f   AFEntity.obj
 0001:0000adc0       ?Event_SpawnHarvestEntity@idAFEntity_Harvest@@IAEXXZ 1000bdc0 f   AFEntity.obj
 0001:0000aea0       ?Gib@idAFEntity_Harvest@@UAEXABVidVec3@@PBD@Z 1000bea0 f   AFEntity.obj
 0001:0000af00       ??H@YA?AVidStr@@ABV0@0@Z   1000bf00 f i AFEntity.obj
 0001:0000afd0       ??1idMultiModelAF@@UAE@XZ  1000bfd0 f   AFEntity.obj
 0001:0000b0d0       ?SetModelForId@idMultiModelAF@@IAEXHABVidStr@@@Z 1000c0d0 f   AFEntity.obj
 0001:0000b300       ??4idTraceModel@@QAEAAV0@ABV0@@Z 1000c300 f i AFEntity.obj
 0001:0000b570       ??_GidAFAttachment@@UAEPAXI@Z 1000c570 f i AFEntity.obj
 0001:0000b570       ??_EidAFAttachment@@UAEPAXI@Z 1000c570 f i AFEntity.obj
 0001:0000b600       ?LoadAF@idAFEntity_Base@@UAE_NXZ 1000c600 f   AFEntity.obj
 0001:0000b7a0       ??0idAFEntity_Gibbable@@QAE@XZ 1000c7a0 f   AFEntity.obj
 0001:0000b8a0       ?Restore@idAFEntity_Gibbable@@QAEXPAVidRestoreGame@@@Z 1000c8a0 f   AFEntity.obj
 0001:0000b900       ?Spawn@idAFEntity_Gibbable@@QAEXXZ 1000c900 f   AFEntity.obj
 0001:0000b920       ?Present@idAFEntity_Gibbable@@UAEXXZ 1000c920 f   AFEntity.obj
 0001:0000b9d0       ??_EidAFEntity_WithAttachedHead@@UAEPAXI@Z 1000c9d0 f i AFEntity.obj
 0001:0000b9d0       ??_GidAFEntity_WithAttachedHead@@UAEPAXI@Z 1000c9d0 f i AFEntity.obj
 0001:0000b9f0       ?SetupHead@idAFEntity_WithAttachedHead@@QAEXXZ 1000c9f0 f   AFEntity.obj
 0001:0000bce0       ?Spawn@idAFEntity_VehicleSimple@@QAEXXZ 1000cce0 f   AFEntity.obj
 0001:0000c0b0       ??_EidAFEntity_Vehicle@@UAEPAXI@Z 1000d0b0 f i AFEntity.obj
 0001:0000c0b0       ??_EidAFEntity_VehicleFourWheels@@UAEPAXI@Z 1000d0b0 f i AFEntity.obj
 0001:0000c0b0       ??_GidAFEntity_Vehicle@@UAEPAXI@Z 1000d0b0 f i AFEntity.obj
 0001:0000c0b0       ??_EidAFEntity_ClawFourFingers@@UAEPAXI@Z 1000d0b0 f i AFEntity.obj
 0001:0000c0b0       ??_GidAFEntity_VehicleSixWheels@@UAEPAXI@Z 1000d0b0 f i AFEntity.obj
 0001:0000c0b0       ??_EidAFEntity_Base@@UAEPAXI@Z 1000d0b0 f i AFEntity.obj
 0001:0000c0b0       ??_EidAFEntity_VehicleAutomated@@UAEPAXI@Z 1000d0b0 f i AFEntity.obj
 0001:0000c0b0       ??_GidAFEntity_ClawFourFingers@@UAEPAXI@Z 1000d0b0 f i AFEntity.obj
 0001:0000c0b0       ??_EidAFEntity_VehicleSixWheels@@UAEPAXI@Z 1000d0b0 f i AFEntity.obj
 0001:0000c0b0       ??_GidAFEntity_Base@@UAEPAXI@Z 1000d0b0 f i AFEntity.obj
 0001:0000c0b0       ??_GidAFEntity_VehicleAutomated@@UAEPAXI@Z 1000d0b0 f i AFEntity.obj
 0001:0000c0b0       ??_GidAFEntity_VehicleFourWheels@@UAEPAXI@Z 1000d0b0 f i AFEntity.obj
 0001:0000c150       ?Think@idAFEntity_VehicleAutomated@@UAEXXZ 1000d150 f   AFEntity.obj
 0001:0000c690       ??0idAFEntity_SteamPipe@@QAE@XZ 1000d690 f   AFEntity.obj
 0001:0000c7c0       ?Spawn@idAFEntity_SteamPipe@@QAEXXZ 1000d7c0 f   AFEntity.obj
 0001:0000c920       ?AF_CreateMesh@idGameEdit@@UAEPAVidRenderModel@@ABVidDict@@AAVidVec3@@AAVidMat3@@AA_N@Z 1000d920 f   AFEntity.obj
 0001:0000e010       ?CreateInstance@idHarvestable@@SAPAVidClass@@XZ 1000f010 f   AFEntity.obj
 0001:0000e0f0       ??_EidHarvestable@@UAEPAXI@Z 1000f0f0 f i AFEntity.obj
 0001:0000e0f0       ??_GidHarvestable@@UAEPAXI@Z 1000f0f0 f i AFEntity.obj
 0001:0000e190       ?Think@idHarvestable@@UAEXXZ 1000f190 f   AFEntity.obj
 0001:0000e390       ?BeginFX@idHarvestable@@IAEXXZ 1000f390 f   AFEntity.obj
 0001:0000e470       ?Event_Touch@idHarvestable@@IAEXPAVidEntity@@PAUtrace_s@@@Z 1000f470 f   AFEntity.obj
 0001:0000e800       ??_EidAFEntity_Harvest@@UAEPAXI@Z 1000f800 f i AFEntity.obj
 0001:0000e800       ??_GidAFEntity_Harvest@@UAEPAXI@Z 1000f800 f i AFEntity.obj
 0001:0000e820       ??0idDict@@QAE@XZ          1000f820 f i AFEntity.obj
 0001:0000e930       ??1idDict@@QAE@XZ          1000f930 f i AFEntity.obj
 0001:0000e9b0       ?CreateInstance@idMultiModelAF@@SAPAVidClass@@XZ 1000f9b0 f   AFEntity.obj
 0001:0000eaa0       ??_GidMultiModelAF@@UAEPAXI@Z 1000faa0 f i AFEntity.obj
 0001:0000eaa0       ??_EidMultiModelAF@@UAEPAXI@Z 1000faa0 f i AFEntity.obj
 0001:0000eaa0       ??_EidChain@@UAEPAXI@Z     1000faa0 f i AFEntity.obj
 0001:0000eaa0       ??_GidChain@@UAEPAXI@Z     1000faa0 f i AFEntity.obj
 0001:0000eac0       ?CreateInstance@idChain@@SAPAVidClass@@XZ 1000fac0 f   AFEntity.obj
 0001:0000ebb0       ?BuildChain@idChain@@IAEXABVidStr@@ABVidVec3@@MMMH_N@Z 1000fbb0 f   AFEntity.obj
 0001:0000f4d0       ?Spawn@idChain@@QAEXXZ     100104d0 f   AFEntity.obj
 0001:0000f740       ?CreateInstance@idAFEntity_Base@@SAPAVidClass@@XZ 10010740 f   AFEntity.obj
 0001:0000f850       ?DropAFs@idAFEntity_Base@@SAXPAVidEntity@@PBDPAV?$idList@PAVidEntity@@@@@Z 10010850 f   AFEntity.obj
 0001:0000fc40       ?CreateInstance@idAFEntity_Gibbable@@SAPAVidClass@@XZ 10010c40 f   AFEntity.obj
 0001:0000fd90       ?SpawnGibs@idAFEntity_Gibbable@@UAEXABVidVec3@@PBD@Z 10010d90 f   AFEntity.obj
 0001:000101e0       ?CreateInstance@idAFEntity_Generic@@SAPAVidClass@@XZ 100111e0 f   AFEntity.obj
 0001:00010330       ?CreateInstance@idAFEntity_WithAttachedHead@@SAPAVidClass@@XZ 10011330 f   AFEntity.obj
 0001:00010480       ?Spawn@idAFEntity_WithAttachedHead@@QAEXXZ 10011480 f   AFEntity.obj
 0001:00010590       ?CreateInstance@idAFEntity_Vehicle@@SAPAVidClass@@XZ 10011590 f   AFEntity.obj
 0001:000106f0       ?CreateInstance@idAFEntity_VehicleSimple@@SAPAVidClass@@XZ 100116f0 f   AFEntity.obj
 0001:00010850       ?CreateInstance@idAFEntity_VehicleFourWheels@@SAPAVidClass@@XZ 10011850 f   AFEntity.obj
 0001:000109e0       ?CreateInstance@idAFEntity_VehicleSixWheels@@SAPAVidClass@@XZ 100119e0 f   AFEntity.obj
 0001:00010b80       ?CreateInstance@idAFEntity_VehicleAutomated@@SAPAVidClass@@XZ 10011b80 f   AFEntity.obj
 0001:00010d30       ?CreateInstance@idAFEntity_SteamPipe@@SAPAVidClass@@XZ 10011d30 f   AFEntity.obj
 0001:00010dd0       ?Restore@idAFEntity_SteamPipe@@QAEXPAVidRestoreGame@@@Z 10011dd0 f   AFEntity.obj
 0001:00010de0       ?CreateInstance@idAFEntity_ClawFourFingers@@SAPAVidClass@@XZ 10011de0 f   AFEntity.obj
 0001:00010f30       ?AF_SpawnEntity@idGameEdit@@UAE_NPBD@Z 10011f30 f   AFEntity.obj
 0001:00011320       ?CreateInstance@idAFEntity_Harvest@@SAPAVidClass@@XZ 10012320 f   AFEntity.obj
 0001:00011480       ??1SetTimeState@@QAE@XZ    10012480 f i Actor.obj
 0001:00011510       ?Init@idAnimState@@QAEXPAVidActor@@PAVidAnimator@@H@Z 10012510 f   Actor.obj
 0001:000115b0       ?PlayAnim@idAnimState@@QAEXH@Z 100125b0 f   Actor.obj
 0001:00011600       ?CycleAnim@idAnimState@@QAEXH@Z 10012600 f   Actor.obj
 0001:00011650       ?BecomeIdle@idAnimState@@QAEXXZ 10012650 f   Actor.obj
 0001:00011660       ?Disabled@idAnimState@@QBE_NXZ 10012660 f   Actor.obj
 0001:00011670       ?AnimDone@idAnimState@@QBE_NH@Z 10012670 f   Actor.obj
 0001:000116c0       ?IsIdle@idAnimState@@QBE_NXZ 100126c0 f   Actor.obj
 0001:000116e0       ?GetAnimFlags@idAnimState@@QBE?AUanimFlags_t@@XZ 100126e0 f   Actor.obj
 0001:00011740       ?GetType@idActor@@UBEPAVidTypeInfo@@XZ 10012740 f   Actor.obj
 0001:00011750       ?GetDefaultSurfaceType@idActor@@UBEHXZ 10012750 f   Actor.obj
 0001:00011760       ?ShutdownThreads@idActor@@QAEXXZ 10012760 f   Actor.obj
 0001:000117f0       ?GetScriptFunction@idActor@@QAEPBVfunction_t@@PBD@Z 100127f0 f   Actor.obj
 0001:00011840       ?SetEyeHeight@idActor@@QAEXM@Z 10012840 f   Actor.obj
 0001:00011850       ?EyeHeight@idActor@@QBEMXZ 10012850 f   Actor.obj
 0001:00011860       ?EyeOffset@idActor@@QBE?AVidVec3@@XZ 10012860 f   Actor.obj
 0001:000118b0       ?GetEyePosition@idActor@@QBE?AVidVec3@@XZ 100128b0 f   Actor.obj
 0001:00011940       ?StopRagdoll@idActor@@QAEXXZ 10012940 f   Actor.obj
 0001:00011960       ?UpdateAnimationControllers@idActor@@UAE_NXZ 10012960 f   Actor.obj
 0001:000119b0       ?GetDeltaViewAngles@idActor@@QBEABVidAngles@@XZ 100129b0 f   Actor.obj
 0001:000119c0       ?Event_SetWaitState@idActor@@AAEXPBD@Z 100129c0 f   Actor.obj
 0001:000119c0       ?SetWaitState@idActor@@QAEXPBD@Z 100129c0 f   Actor.obj
 0001:000119d0       ?ClearPain@idActor@@QAEXXZ 100129d0 f   Actor.obj
 0001:000119e0       ?Event_EnableEyeFocus@idActor@@AAEXXZ 100129e0 f   Actor.obj
 0001:00011a50       ?Event_EnableWalkIK@idActor@@AAEXXZ 10012a50 f   Actor.obj
 0001:00011a60       ?Event_DisableWalkIK@idActor@@AAEXXZ 10012a60 f   Actor.obj
 0001:00011a70       ?Event_EnableLegIK@idActor@@AAEXH@Z 10012a70 f   Actor.obj
 0001:00011a80       ?Event_DisableLegIK@idActor@@AAEXH@Z 10012a80 f   Actor.obj
 0001:00011a90       ?Event_PreventPain@idActor@@AAEXM@Z 10012a90 f   Actor.obj
 0001:00011ac0       ?Event_DisablePain@idActor@@AAEXXZ 10012ac0 f   Actor.obj
 0001:00011ad0       ?Event_EnablePain@idActor@@AAEXXZ 10012ad0 f   Actor.obj
 0001:00011ae0       ?Event_SetAnimPrefix@idActor@@AAEXPBD@Z 10012ae0 f   Actor.obj
 0001:00011af0       ?Event_StopAnim@idActor@@AAEXHH@Z 10012af0 f   Actor.obj
 0001:00011be0       ?Event_SetBlendFrames@idActor@@AAEXHH@Z 10012be0 f   Actor.obj
 0001:00011c40       ?Event_GetBlendFrames@idActor@@AAEXH@Z 10012c40 f   Actor.obj
 0001:00011ca0       ?Event_AnimDone@idActor@@AAEXHH@Z 10012ca0 f   Actor.obj
 0001:00011d20       ?Event_SetNextState@idActor@@AAEXPBD@Z 10012d20 f   Actor.obj
 0001:00011d80       ?Event_SetState@idActor@@AAEXPBD@Z 10012d80 f   Actor.obj
 0001:00011e00       ?Event_GetState@idActor@@AAEXXZ 10012e00 f   Actor.obj
 0001:00011e30       ?Event_SetDamageCap@idActor@@AAEXM@Z 10012e30 f   Actor.obj
 0001:00011e50       ??1idAnimState@@QAE@XZ     10012e50 f   Actor.obj
 0001:00011eb0       ?SetState@idAnimState@@QAEXPBDH@Z 10012eb0 f   Actor.obj
 0001:00011f60       ?CopyJointsFromBodyToHead@idActor@@IAEXXZ 10012f60 f   Actor.obj
 0001:000122c0       ?Save@idActor@@QBEXPAVidSaveGame@@@Z 100132c0 f   Actor.obj
 0001:00012920       ?Hide@idActor@@UAEXXZ      10013920 f   Actor.obj
 0001:000129d0       ?Show@idActor@@UAEXXZ      100139d0 f   Actor.obj
 0001:00012ab0       ?ProjectOverlay@idActor@@UAEXABVidVec3@@0MPBD@Z 10013ab0 f   Actor.obj
 0001:00012b60       ?SetupBody@idActor@@QAEXXZ 10013b60 f   Actor.obj
 0001:00012f70       ?CheckBlink@idActor@@QAEXXZ 10013f70 f   Actor.obj
 0001:00013060       ?GetPhysicsToVisualTransform@idActor@@UAE_NAAVidVec3@@AAVidMat3@@@Z 10014060 f   Actor.obj
 0001:00013100       ?ConstructScriptObject@idActor@@UAEPAVidThread@@XZ 10014100 f   Actor.obj
 0001:00013230       ?SetState@idActor@@QAEXPBVfunction_t@@@Z 10014230 f   Actor.obj
 0001:000132b0       ?SetState@idActor@@QAEXPBD@Z 100142b0 f   Actor.obj
 0001:00013300       ?UpdateScript@idActor@@QAEXXZ 10014300 f   Actor.obj
 0001:00013400       ?GetViewPos@idActor@@UBEXAAVidVec3@@AAVidMat3@@@Z 10014400 f   Actor.obj
 0001:00013480       ?CheckFOV@idActor@@QBE_NABVidVec3@@@Z 10014480 f   Actor.obj
 0001:00013650       ?GetAIAimTargets@idActor@@UAEXABVidVec3@@AAV2@1@Z 10014650 f   Actor.obj
 0001:00013790       ?GetRenderView@idActor@@UAEPAUrenderView_s@@XZ 10014790 f   Actor.obj
 0001:00013820       ?SetCombatModel@idActor@@QAEXXZ 10014820 f   Actor.obj
 0001:000138f0       ?LinkCombat@idActor@@UAEXXZ 100148f0 f   Actor.obj
 0001:00013970       ?UnlinkCombat@idActor@@UAEXXZ 10014970 f   Actor.obj
 0001:000139c0       ?RemoveAttachments@idActor@@IAEXXZ 100149c0 f   Actor.obj
 0001:00013a40       ?Teleport@idActor@@UAEXABVidVec3@@ABVidAngles@@PAVidEntity@@@Z 10014a40 f   Actor.obj
 0001:00013b20       ?SetDeltaViewAngles@idActor@@QAEXABVidAngles@@@Z 10014b20 f   Actor.obj
 0001:00013b50       ?HasEnemies@idActor@@QBE_NXZ 10014b50 f   Actor.obj
 0001:00013ba0       ?ClosestEnemyToPoint@idActor@@QAEPAV1@ABVidVec3@@@Z 10014ba0 f   Actor.obj
 0001:00013c90       ?EnemyWithMostHealth@idActor@@QAEPAV1@XZ 10014c90 f   Actor.obj
 0001:00013cf0       ?GetAASLocation@idActor@@UBEXPAVidAAS@@AAVidVec3@@AAH@Z 10014cf0 f   Actor.obj
 0001:00013dc0       ?SetAnimState@idActor@@QAEXHPBDH@Z 10014dc0 f   Actor.obj
 0001:00013ed0       ?WaitState@idActor@@QBEPBDXZ 10014ed0 f   Actor.obj
 0001:00013ef0       ?UpdateAnimState@idActor@@QAEXXZ 10014ef0 f   Actor.obj
 0001:00013fd0       ?GetAnim@idActor@@QAEHHPBD@Z 10014fd0 f   Actor.obj
 0001:00014080       ?SyncAnimChannels@idActor@@AAEXHHH@Z 10015080 f   Actor.obj
 0001:000142d0       ?Gib@idActor@@MAEXABVidVec3@@PBD@Z 100152d0 f   Actor.obj
 0001:00014350       ?SpawnGibs@idActor@@UAEXABVidVec3@@PBD@Z 10015350 f   Actor.obj
 0001:00014370       ?GetDamageForLocation@idActor@@QAEHHH@Z 10015370 f   Actor.obj
 0001:000143c0       ?GetDamageGroup@idActor@@QAEPBDH@Z 100153c0 f   Actor.obj
 0001:000143f0       ?PlayFootStepSound@idActor@@AAEXXZ 100153f0 f   Actor.obj
 0001:000144a0       ?Event_DisableEyeFocus@idActor@@AAEXXZ 100154a0 f   Actor.obj
 0001:00014500       ?Event_Footstep@idActor@@AAEXXZ 10015500 f   Actor.obj
 0001:00014510       ?Event_GetPainAnim@idActor@@AAEXXZ 10015510 f   Actor.obj
 0001:00014540       ?Event_PlayAnim@idActor@@AAEXHPBD@Z 10015540 f   Actor.obj
 0001:00014840       ?Event_PlayCycle@idActor@@AAEXHPBD@Z 10015840 f   Actor.obj
 0001:00014b20       ?Event_IdleAnim@idActor@@AAEXHPBD@Z 10015b20 f   Actor.obj
 0001:00014f60       ?Event_SetSyncedAnimWeight@idActor@@AAEXHHM@Z 10015f60 f   Actor.obj
 0001:00015120       ?Event_OverrideAnim@idActor@@AAEXH@Z 10016120 f   Actor.obj
 0001:00015250       ?Event_EnableAnim@idActor@@AAEXHH@Z 10016250 f   Actor.obj
 0001:00015310       ?Event_AnimState@idActor@@AAEXHPBDH@Z 10016310 f   Actor.obj
 0001:00015320       ?Event_GetAnimState@idActor@@AAEXH@Z 10016320 f   Actor.obj
 0001:00015380       ?Event_InAnimState@idActor@@AAEXHPBD@Z 10016380 f   Actor.obj
 0001:00015400       ?Event_FinishAction@idActor@@AAEXPBD@Z 10016400 f   Actor.obj
 0001:00015430       ?Event_HasAnim@idActor@@AAEXHPBD@Z 10016430 f   Actor.obj
 0001:00015470       ?Event_CheckAnim@idActor@@AAEXHPBD@Z 10016470 f   Actor.obj
 0001:000154d0       ?Event_ChooseAnim@idActor@@AAEXHPBD@Z 100164d0 f   Actor.obj
 0001:00015570       ?Event_AnimLength@idActor@@AAEXHPBD@Z 10016570 f   Actor.obj
 0001:00015650       ?Event_AnimDistance@idActor@@AAEXHPBD@Z 10016650 f   Actor.obj
 0001:00015830       ?Event_HasEnemies@idActor@@AAEXXZ 10016830 f   Actor.obj
 0001:00015840       ?Event_NextEnemy@idActor@@AAEXPAVidEntity@@@Z 10016840 f   Actor.obj
 0001:00015910       ?Event_ClosestEnemyToPoint@idActor@@AAEXABVidVec3@@@Z 10016910 f   Actor.obj
 0001:00015930       ?Event_StopSound@idActor@@AAEXHH@Z 10016930 f   Actor.obj
 0001:00015990       ?Event_GetHead@idActor@@AAEXXZ 10016990 f   Actor.obj
 0001:000159d0       ?Event_SetDamageGroupScale@idActor@@AAEXPBDM@Z 100169d0 f   Actor.obj
 0001:00015a30       ?Event_SetDamageGroupScaleAll@idActor@@AAEXM@Z 10016a30 f   Actor.obj
 0001:00015a60       ?Event_GetDamageGroupScale@idActor@@AAEXPBD@Z 10016a60 f   Actor.obj
 0001:00015ae0       ?Event_GetWaitState@idActor@@AAEXXZ 10016ae0 f   Actor.obj
 0001:00015b10       ?FinishSetup@idActor@@AAEXXZ 10016b10 f   Actor.obj
 0001:00015b70       ?LoadAF@idActor@@UAE_NXZ   10016b70 f   Actor.obj
 0001:00015c80       ?GetPhysicsToSoundTransform@idActor@@UAE_NAAVidVec3@@AAVidMat3@@@Z 10016c80 f   Actor.obj
 0001:00015df0       ?CanSee@idActor@@QBE_NPAVidEntity@@_N@Z 10016df0 f   Actor.obj
 0001:00015f00       ?StartRagdoll@idActor@@QAE_NXZ 10016f00 f   Actor.obj
 0001:000161d0       ?Damage@idActor@@UAEXPAVidEntity@@0ABVidVec3@@PBDMH@Z 100171d0 f   Actor.obj
 0001:00016710       ?Pain@idActor@@UAE_NPAVidEntity@@0HABVidVec3@@H@Z 10017710 f   Actor.obj
 0001:00016a30       ??1?$idList@VidStr@@@@QAE@XZ 10017a30 f i Actor.obj
 0001:00016a70       ??1idActor@@UAE@XZ         10017a70 f   Actor.obj
 0001:00016df0       ?SetupDamageGroups@idActor@@QAEXXZ 10017df0 f   Actor.obj
 0001:000172e0       ??0idActor@@QAE@XZ         100182e0 f   Actor.obj
 0001:00017730       ??_EidActor@@UAEPAXI@Z     10018730 f i Actor.obj
 0001:00017730       ??_GidActor@@UAEPAXI@Z     10018730 f i Actor.obj
 0001:00017750       ?SetupHead@idActor@@AAEXXZ 10018750 f   Actor.obj
 0001:00017ed0       ?Restart@idActor@@UAEXXZ   10018ed0 f   Actor.obj
 0001:00017ee0       ?Restore@idActor@@QAEXPAVidRestoreGame@@@Z 10018ee0 f   Actor.obj
 0001:00018ac0       ?Attach@idActor@@QAEXPAVidEntity@@@Z 10019ac0 f   Actor.obj
 0001:00019060       ?CreateInstance@idActor@@SAPAVidClass@@XZ 1001a060 f   Actor.obj
 0001:00019100       ?Spawn@idActor@@QAEXXZ     1001a100 f   Actor.obj
 0001:00019b20       ?GetType@idBrittleFracture@@UBEPAVidTypeInfo@@XZ 1001ab20 f   BrittleFracture.obj
 0001:00019b30       ?Killed@idBrittleFracture@@UAEXPAVidEntity@@0HABVidVec3@@H@Z 1001ab30 f   BrittleFracture.obj
 0001:00019b70       ?Event_Activate@idBrittleFracture@@AAEXPAVidEntity@@@Z 1001ab70 f   BrittleFracture.obj
 0001:00019bb0       ?Clear@idWinding@@UAEXXZ   1001abb0 f i BrittleFracture.obj
 0001:00019bd0       ??1idFixedWinding@@UAE@XZ  1001abd0 f i BrittleFracture.obj
 0001:00019c00       ?Clear@idFixedWinding@@UAEXXZ 1001ac00 f i BrittleFracture.obj
 0001:00019c10       ?Save@idBrittleFracture@@QBEXPAVidSaveGame@@@Z 1001ac10 f   BrittleFracture.obj
 0001:00019f50       ?UpdateRenderEntity@idBrittleFracture@@ABE_NPAUrenderEntity_s@@PBUrenderView_s@@@Z 1001af50 f   BrittleFracture.obj
 0001:0001ac20       ?ModelCallback@idBrittleFracture@@CA_NPAUrenderEntity_s@@PBUrenderView_s@@@Z 1001bc20 f   BrittleFracture.obj
 0001:0001ac60       ?DropShard@idBrittleFracture@@AAEXPAUshard_s@@ABVidVec3@@1MH@Z 1001bc60 f   BrittleFracture.obj
 0001:0001b230       ?DropFloatingIslands@idBrittleFracture@@AAEXABVidVec3@@0H@Z 1001c230 f   BrittleFracture.obj
 0001:0001b460       ??1?$idList@PAVidAFConstraint_Contact@@@@QAE@XZ 1001c460 f i Physics_AF.obj
 0001:0001b460       ??1?$idList@UjointInfo_t@@@@QAE@XZ 1001c460 f i Anim_Blend.obj
 0001:0001b460       ??1?$idList@PAVidMapEntity@@@@QAE@XZ 1001c460 f i Game_local.obj
 0001:0001b460       ??1?$idList@PAVidFixedWinding@@@@QAE@XZ 1001c460 f i BrittleFracture.obj
 0001:0001b460       ??1?$idList@UidFXLocalAction@@@@QAE@XZ 1001c460 f i Fx.obj
 0001:0001b460       ??1?$idList@_N@@QAE@XZ     1001c460 f i BrittleFracture.obj
 0001:0001b460       ??1?$idList@PAVidMapPrimitive@@@@QAE@XZ 1001c460 f i GameEdit.obj
 0001:0001b460       ??1?$idList@PAVidAFConstraint@@@@QAE@XZ 1001c460 f i Physics_AF.obj
 0001:0001b460       ??1?$idList@VidJointQuat@@@@QAE@XZ 1001c460 f i Anim.obj
 0001:0001b460       ??1?$idList@PAVidVarDefName@@@@QAE@XZ 1001c460 f i Script_Program.obj
 0001:0001b460       ??1?$idList@PAVidClipModel@@@@QAE@XZ 1001c460 f i Physics_StaticMulti.obj
 0001:0001b460       ??1?$idList@UcameraFrame_t@@@@QAE@XZ 1001c460 f i Camera.obj
 0001:0001b460       ??1?$idList@PAVidPoolStr@@@@QAE@XZ 1001c460 f i idLib:Dict.obj
 0001:0001b460       ??1?$idList@M@@QAE@XZ      1001c460 f i Actor.obj
 0001:0001b460       ??1?$idList@UparticleEmitter_s@@@@QAE@XZ 1001c460 f i AI.obj
 0001:0001b460       ??1?$idList@W4jointHandle_t@@@@QAE@XZ 1001c460 f i AF.obj
 0001:0001b460       ??1?$idList@UcontactInfo_t@@@@QAE@XZ 1001c460 f i Physics_Base.obj
 0001:0001b460       ??1?$idList@VidAttachInfo@@@@QAE@XZ 1001c460 f i Actor.obj
 0001:0001b460       ??1?$idList@PAUjointMod_t@@@@QAE@XZ 1001c460 f i Anim_Blend.obj
 0001:0001b460       ??1?$idList@UaasLocation_t@@@@QAE@XZ 1001c460 f i Player.obj
 0001:0001b460       ??1?$idList@UjointAnimInfo_t@@@@QAE@XZ 1001c460 f i Anim.obj
 0001:0001b460       ??1?$idList@PAVidVarDef@@@@QAE@XZ 1001c460 f i Script_Program.obj
 0001:0001b460       ??1?$idList@PAVidRenderModel@@@@QAE@XZ 1001c460 f i AFEntity.obj
 0001:0001b460       ??1?$idList@PAVidThread@@@@QAE@XZ 1001c460 f i Game_local.obj
 0001:0001b460       ??1?$idList@UbeamTarget_t@@@@QAE@XZ 1001c460 f i Projectile.obj
 0001:0001b460       ??1?$idList@UAFCollision_s@@@@QAE@XZ 1001c460 f i Physics_AF.obj
 0001:0001b460       ??1?$idList@PAVidTypeDef@@@@QAE@XZ 1001c460 f i Script_Compiler.obj
 0001:0001b460       ??1?$idList@PAVidDict@@@@QAE@XZ 1001c460 f i Player.obj
 0001:0001b460       ??1?$idList@Usignal_t@@@@QAE@XZ 1001c460 f i Entity.obj
 0001:0001b460       ??1?$idList@H@@QAE@XZ      1001c460 f i AF.obj
 0001:0001b460       ??1?$idList@PAVidAnim@@@@QAE@XZ 1001c460 f i Anim_Blend.obj
 0001:0001b460       ??1?$idList@PAUshard_s@@@@QAE@XZ 1001c460 f i BrittleFracture.obj
 0001:0001b460       ??1?$idList@VidAFPoseJointMod@@@@QAE@XZ 1001c460 f i Anim_Blend.obj
 0001:0001b460       ??1?$idList@PAVidEntity@@@@QAE@XZ 1001c460 f i AFEntity.obj
 0001:0001b460       ??1?$idList@UframeLookup_t@@@@QAE@XZ 1001c460 f i Anim_Blend.obj
 0001:0001b460       ??1?$idList@UcopyJoints_t@@@@QAE@XZ 1001c460 f i Actor.obj
 0001:0001b460       ??1?$idList@PAVidMD5Anim@@@@QAE@XZ 1001c460 f i Anim.obj
 0001:0001b460       ??1?$idList@UframeCommand_t@@@@QAE@XZ 1001c460 f i Anim_Blend.obj
 0001:0001b460       ??1?$idList@VidBounds@@@@QAE@XZ 1001c460 f i Anim.obj
 0001:0001b460       ??1?$idList@PAVidAFTree@@@@QAE@XZ 1001c460 f i Physics_AF.obj
 0001:0001b460       ??1?$idList@VidDrawVert@@@@QAE@XZ 1001c460 f i idLib:MapFile.obj
 0001:0001b460       ??1?$idList@PAVidAFBody@@@@QAE@XZ 1001c460 f i Physics_AF.obj
 0001:0001b460       ??1?$idList@VidAngles@@@@QAE@XZ 1001c460 f i AI.obj
 0001:0001b460       ??1?$idList@UjointConversion_s@@@@QAE@XZ 1001c460 f i AF.obj
 0001:0001b460       ??1?$idList@UstaticPState_s@@@@QAE@XZ 1001c460 f i Physics_StaticMulti.obj
 0001:0001b460       ??1?$idList@PAVidAAS@@@@QAE@XZ 1001c460 f i Game_local.obj
 0001:0001b460       ??1?$idList@VidKeyValue@@@@QAE@XZ 1001c460 f i AFEntity.obj
 0001:0001b460       ??1?$idList@PAVidRoutingObstacle@@@@QAE@XZ 1001c460 f i AAS.obj
 0001:0001b460       ??1?$idList@UsurfaceEdge_s@@@@QAE@XZ 1001c460 f i idLib:MapFile.obj
 0001:0001b460       ??1?$idList@PBVfunction_t@@@@QAE@XZ 1001c460 f i Script_Compiler.obj
 0001:0001b460       ??1?$idList@VidVec3@@@@QAE@XZ 1001c460 f i Entity.obj
 0001:0001b460       ??1?$idList@V?$idEntityPtr@VidEntity@@@@@@QAE@XZ 1001c460 f i Entity.obj
 0001:0001b460       ??1?$idList@PBVidClass@@@@QAE@XZ 1001c460 f i SaveGame.obj
 0001:0001b460       ??1?$idList@PAVidMapBrushSide@@@@QAE@XZ 1001c460 f i idLib:MapFile.obj
 0001:0001b490       ??_GidWinding@@UAEPAXI@Z   1001c490 f i BrittleFracture.obj
 0001:0001b490       ??_EidWinding@@UAEPAXI@Z   1001c490 f i BrittleFracture.obj
 0001:0001b4d0       ??_EidFixedWinding@@UAEPAXI@Z 1001c4d0 f i BrittleFracture.obj
 0001:0001b4d0       ??_GidFixedWinding@@UAEPAXI@Z 1001c4d0 f i BrittleFracture.obj
 0001:0001b510       ??0idBrittleFracture@@QAE@XZ 1001c510 f   BrittleFracture.obj
 0001:0001b690       ??1shard_s@@QAE@XZ         1001c690 f i BrittleFracture.obj
 0001:0001b770       ??0shard_s@@QAE@XZ         1001c770 f i BrittleFracture.obj
 0001:0001b820       ??4idFixedWinding@@QAEAAV0@ABV0@@Z 1001c820 f i BrittleFracture.obj
 0001:0001b8d0       ?Present@idBrittleFracture@@UAEXXZ 1001c8d0 f   BrittleFracture.obj
 0001:0001ba10       ?ProjectDecal@idBrittleFracture@@QAEXABVidVec3@@0HPBD@Z 1001ca10 f   BrittleFracture.obj
 0001:0001c390       ?Shatter@idBrittleFracture@@AAEXABVidVec3@@0H@Z 1001d390 f   BrittleFracture.obj
 0001:0001c6b0       ?AddDamageEffect@idBrittleFracture@@UAEXABUtrace_s@@ABVidVec3@@PBD@Z 1001d6b0 f   BrittleFracture.obj
 0001:0001c6e0       ?FindNeighbours@idBrittleFracture@@AAEXXZ 1001d6e0 f   BrittleFracture.obj
 0001:0001d1f0       ?Event_Touch@idBrittleFracture@@AAEXPAVidEntity@@PAUtrace_s@@@Z 1001e1f0 f   BrittleFracture.obj
 0001:0001d2d0       ?ClientReceiveEvent@idBrittleFracture@@UAE_NHHABVidBitMsg@@@Z 1001e2d0 f   BrittleFracture.obj
 0001:0001d3f0       ?CreateInstance@idBrittleFracture@@SAPAVidClass@@XZ 1001e3f0 f   BrittleFracture.obj
 0001:0001d490       ?Restore@idBrittleFracture@@QAEXPAVidRestoreGame@@@Z 1001e490 f   BrittleFracture.obj
 0001:0001dbe0       ?AddShard@idBrittleFracture@@AAEXPAVidClipModel@@AAVidFixedWinding@@@Z 1001ebe0 f   BrittleFracture.obj
 0001:0001df20       ?RemoveShard@idBrittleFracture@@AAEXH@Z 1001ef20 f   BrittleFracture.obj
 0001:0001dfb0       ?Think@idBrittleFracture@@UAEXXZ 1001efb0 f   BrittleFracture.obj
 0001:0001e220       ?ApplyImpulse@idBrittleFracture@@UAEXPAVidEntity@@HABVidVec3@@1@Z 1001f220 f   BrittleFracture.obj
 0001:0001e290       ?AddForce@idBrittleFracture@@UAEXPAVidEntity@@HABVidVec3@@1@Z 1001f290 f   BrittleFracture.obj
 0001:0001e300       ?Fracture_r@idBrittleFracture@@AAEXAAVidFixedWinding@@@Z 1001f300 f   BrittleFracture.obj
 0001:0001e9b0       ?CreateFractures@idBrittleFracture@@AAEXPBVidRenderModel@@@Z 1001f9b0 f   BrittleFracture.obj
 0001:0001ee40       ??1idBrittleFracture@@UAE@XZ 1001fe40 f   BrittleFracture.obj
 0001:0001efa0       ?Spawn@idBrittleFracture@@QAEXXZ 1001ffa0 f   BrittleFracture.obj
 0001:0001f4d0       ??_EidBrittleFracture@@UAEPAXI@Z 100204d0 f i BrittleFracture.obj
 0001:0001f4d0       ??_GidBrittleFracture@@UAEPAXI@Z 100204d0 f i BrittleFracture.obj
 0001:0001f4f0       ?CreateInstance@idCamera@@SAPAVidClass@@XZ 100204f0 f   Camera.obj
 0001:0001f510       ?GetRenderView@idCamera@@UAEPAUrenderView_s@@XZ 10020510 f   Camera.obj
 0001:0001f530       ?GetType@idCameraView@@UBEPAVidTypeInfo@@XZ 10020530 f   Camera.obj
 0001:0001f540       ?Save@idCameraView@@QBEXPAVidSaveGame@@@Z 10020540 f   Camera.obj
 0001:0001f580       ?Restore@idCameraView@@QAEXPAVidRestoreGame@@@Z 10020580 f   Camera.obj
 0001:0001f5c0       ?GetType@idCameraAnim@@UBEPAVidTypeInfo@@XZ 100205c0 f   Camera.obj
 0001:0001f5d0       ?Event_Stop@idCameraAnim@@AAEXXZ 100205d0 f   Camera.obj
 0001:0001f5d0       ?Event_Disable@idTrigger@@IAEXXZ 100205d0 f   Trigger.obj
 0001:0001f5e0       ?Event_SetCallback@idCameraAnim@@AAEXXZ 100205e0 f   Camera.obj
 0001:0001f620       ?Event_Activate@idCameraView@@IAEXPAVidEntity@@@Z 10020620 f   Camera.obj
 0001:0001f6e0       ?Stop@idCameraView@@UAEXXZ 100206e0 f   Camera.obj
 0001:0001f730       ?Spawn@idCameraView@@QAEXXZ 10020730 f   Camera.obj
 0001:0001f7e0       ?GetViewParms@idCameraView@@UAEXPAUrenderView_s@@@Z 100207e0 f   Camera.obj
 0001:0001f990       ?Save@idCameraAnim@@QBEXPAVidSaveGame@@@Z 10020990 f   Camera.obj
 0001:0001fa00       ?Start@idCameraAnim@@AAEXXZ 10020a00 f   Camera.obj
 0001:0001fac0       ?Stop@idCameraAnim@@EAEXXZ 10020ac0 f   Camera.obj
 0001:0001fb70       ?Think@idCameraAnim@@EAEXXZ 10020b70 f   Camera.obj
 0001:0001fc30       ?GetViewParms@idCameraAnim@@UAEXPAUrenderView_s@@@Z 10020c30 f   Camera.obj
 0001:000204f0       ?Event_Activate@idCameraAnim@@AAEXPAVidEntity@@@Z 100214f0 f   Camera.obj
 0001:00020540       ?Event_Start@idCameraAnim@@AAEXXZ 10021540 f   Camera.obj
 0001:00020550       ?CreateInstance@idCameraView@@SAPAVidClass@@XZ 10021550 f   Camera.obj
 0001:00020610       ?Event_SetAttachments@idCameraView@@IAEXXZ 10021610 f   Camera.obj
 0001:000206a0       ??1idCameraAnim@@UAE@XZ    100216a0 f   Camera.obj
 0001:00020760       ?CreateInstance@idCameraAnim@@SAPAVidClass@@XZ 10021760 f   Camera.obj
 0001:00020880       ??_GidCameraAnim@@UAEPAXI@Z 10021880 f i Camera.obj
 0001:00020880       ??_EidCameraAnim@@UAEPAXI@Z 10021880 f i Camera.obj
 0001:000208a0       ?LoadAnim@idCameraAnim@@AAEXXZ 100218a0 f   Camera.obj
 0001:00020f70       ?Restore@idCameraAnim@@QAEXPAVidRestoreGame@@@Z 10021f70 f   Camera.obj
 0001:00020fe0       ?Spawn@idCameraAnim@@QAEXXZ 10021fe0 f   Camera.obj
 0001:00021080       ?CreateInstance@idEntity@@SAPAVidClass@@XZ 10022080 f   Entity.obj
 0001:000210a0       ?GetType@idEntity@@UBEPAVidTypeInfo@@XZ 100220a0 f   Entity.obj
 0001:000210b0       ??_EidClass@@UAEPAXI@Z     100220b0 f i Entity.obj
 0001:000210b0       ??_GidClass@@UAEPAXI@Z     100220b0 f i Entity.obj
 0001:000210d0       ?DoDormantTests@idEntity@@AAE_NXZ 100220d0 f   Entity.obj
 0001:00021150       ?CheckDormant@idEntity@@QAE_NXZ 10022150 f   Entity.obj
 0001:000211a0       ?GetColor@idEntity@@UBEXAAVidVec3@@@Z 100221a0 f   Entity.obj
 0001:000211d0       ?FreeModelDef@idEntity@@UAEXXZ 100221d0 f   Entity.obj
 0001:00021200       ?IsHidden@idEntity@@QBE_NXZ 10022200 f   Entity.obj
 0001:00021210       ?GetRenderEntity@idEntity@@UAEPAUrenderEntity_s@@XZ 10022210 f   Entity.obj
 0001:00021220       ?GetModelDefHandle@idEntity@@UAEHXZ 10022220 f   Entity.obj
 0001:00021230       ?SetSoundVolume@idEntity@@QAEXM@Z 10022230 f   Entity.obj
 0001:00021240       ?GetListenerId@idEntity@@QBEHXZ 10022240 f   Entity.obj
 0001:00021250       ?GetSoundEmitter@idEntity@@QBEPAVidSoundEmitter@@XZ 10022250 f   Entity.obj
 0001:00021260       ?FreeSoundEmitter@idEntity@@QAEX_N@Z 10022260 f   Entity.obj
 0001:00021290       ?IsBound@idEntity@@QBE_NXZ 10022290 f   Entity.obj
 0001:000212a0       ?GetBindMaster@idEntity@@QBEPAV1@XZ 100222a0 f   Entity.obj
 0001:000212b0       ?GetBindJoint@idEntity@@QBE?AW4jointHandle_t@@XZ 100222b0 f   Entity.obj
 0001:000212c0       ?GetBindBody@idEntity@@QBEHXZ 100222c0 f   Entity.obj
 0001:000212d0       ?GetTeamMaster@idEntity@@QBEPAV1@XZ 100222d0 f   Entity.obj
 0001:000212e0       ?GetNextTeamEntity@idEntity@@QBEPAV1@XZ 100222e0 f   Entity.obj
 0001:000212f0       ?QuitTeam@idEntity@@AAEXXZ 100222f0 f   Entity.obj
 0001:00021380       ?SetPhysics@idEntity@@QAEXPAVidPhysics@@@Z 10022380 f   Entity.obj
 0001:00021420       ?RestorePhysics@idEntity@@QAEXPAVidPhysics@@@Z 10022420 f   Entity.obj
 0001:00021430       ?GetPhysics@idEntity@@QBEPAVidPhysics@@XZ 10022430 f   Entity.obj
 0001:00021440       ?GetImpactInfo@idEntity@@UAEXPAV1@HABVidVec3@@PAUimpactInfo_s@@@Z 10022440 f   Entity.obj
 0001:00021460       ?ApplyImpulse@idEntity@@UAEXPAV1@HABVidVec3@@1@Z 10022460 f   Entity.obj
 0001:00021480       ?AddForce@idEntity@@UAEXPAV1@HABVidVec3@@1@Z 10022480 f   Entity.obj
 0001:000214a0       ?ActivatePhysics@idEntity@@UAEXPAV1@@Z 100224a0 f   Entity.obj
 0001:000214b0       ?IsAtRest@idEntity@@UBE_NXZ 100224b0 f   Entity.obj
 0001:000214c0       ?GetRestStartTime@idEntity@@UBEHXZ 100224c0 f   Entity.obj
 0001:000214d0       ?AddContactEntity@idEntity@@UAEXPAV1@@Z 100224d0 f   Entity.obj
 0001:000214e0       ?RemoveContactEntity@idEntity@@UAEXPAV1@@Z 100224e0 f   Entity.obj
 0001:000214f0       ?AddForce@idPhysics_Static@@UAEXHABVidVec3@@0@Z 100224f0 f   Physics_Static.obj
 0001:000214f0       ?DamageFeedback@idEntity@@UAEXPAV1@0AAH@Z 100224f0 f   Entity.obj
 0001:000214f0       ?AddForce@idPhysics_Base@@UAEXHABVidVec3@@0@Z 100224f0 f   Physics_Base.obj
 0001:000214f0       ?ApplyImpulse@idPhysics_Static@@UAEXHABVidVec3@@0@Z 100224f0 f   Physics_Static.obj
 0001:000214f0       ?AddForce@idPhysics_StaticMulti@@UAEXHABVidVec3@@0@Z 100224f0 f   Physics_StaticMulti.obj
 0001:000214f0       ?ApplyImpulse@idPhysics_Base@@UAEXHABVidVec3@@0@Z 100224f0 f   Physics_Base.obj
 0001:000214f0       ?ApplyImpulse@idPhysics_StaticMulti@@UAEXHABVidVec3@@0@Z 100224f0 f   Physics_StaticMulti.obj
 0001:00021500       ?Pain@idEntity@@UAE_NPAV1@0HABVidVec3@@H@Z 10022500 f   Entity.obj
 0001:00021510       ?Killed@idEntity@@UAEXPAV1@0HABVidVec3@@H@Z 10022510 f   Entity.obj
 0001:00021520       ?TriggerGuis@idEntity@@QAEXXZ 10022520 f   Entity.obj
 0001:00021550       ?Event_SetOwner@idEntity@@AAEXPAV1@@Z 10022550 f   Entity.obj
 0001:000215a0       ?Event_SetModel@idEntity@@AAEXPBD@Z 100225a0 f   Entity.obj
 0001:000215b0       ?Event_GetShaderParm@idEntity@@AAEXH@Z 100225b0 f   Entity.obj
 0001:000215f0       ?Event_SetColor@idEntity@@AAEXMMM@Z 100225f0 f   Entity.obj
 0001:00021620       ?Event_GetColor@idEntity@@AAEXXZ 10022620 f   Entity.obj
 0001:00021640       ?Event_IsHidden@idEntity@@AAEXXZ 10022640 f   Entity.obj
 0001:00021660       ?Spawn@idExplodable@@QAEXXZ 10022660 f   Misc.obj
 0001:00021660       ?Event_Hide@idEntity@@AAEXXZ 10022660 f   Entity.obj
 0001:00021670       ?Event_Show@idEntity@@AAEXXZ 10022670 f   Entity.obj
 0001:00021680       ?Event_FadeSound@idEntity@@AAEXHMM@Z 10022680 f   Entity.obj
 0001:000216b0       ?Event_GetWorldOrigin@idEntity@@AAEXXZ 100226b0 f   Entity.obj
 0001:000216d0       ?Event_SetLinearVelocity@idEntity@@AAEXABVidVec3@@@Z 100226d0 f   Entity.obj
 0001:000216f0       ?Event_GetLinearVelocity@idEntity@@AAEXXZ 100226f0 f   Entity.obj
 0001:00021710       ?Event_SetAngularVelocity@idEntity@@AAEXABVidVec3@@@Z 10022710 f   Entity.obj
 0001:00021730       ?Event_GetAngularVelocity@idEntity@@AAEXXZ 10022730 f   Entity.obj
 0001:00021750       ?Event_SetGuiParm@idEntity@@AAEXPBD0@Z 10022750 f   Entity.obj
 0001:000217d0       ?Event_SetGuiFloat@idEntity@@AAEXPBDM@Z 100227d0 f   Entity.obj
 0001:00021840       ?Event_SetKey@idEntity@@AAEXPBD0@Z 10022840 f   Entity.obj
 0001:00021870       ?Event_GetIntKey@idEntity@@AAEXPBD@Z 10022870 f   Entity.obj
 0001:000218a0       ?Event_GetFloatKey@idEntity@@AAEXPBD@Z 100228a0 f   Entity.obj
 0001:000218d0       ?Event_GetVectorKey@idEntity@@AAEXPBD@Z 100228d0 f   Entity.obj
 0001:00021900       ?Event_DistanceTo@idEntity@@AAEXPAV1@@Z 10022900 f   Entity.obj
 0001:000219f0       ?Event_DistanceToPoint@idEntity@@AAEXABVidVec3@@@Z 100229f0 f   Entity.obj
 0001:00021aa0       ?Event_StartFx@idEntity@@AAEXPBD@Z 10022aa0 f   Entity.obj
 0001:00021ac0       ?Event_WaitFrame@idEntity@@AAEXXZ 10022ac0 f   Entity.obj
 0001:00021ae0       ?Event_Wait@idEntity@@AAEXM@Z 10022ae0 f   Entity.obj
 0001:00021b20       ?Event_HasFunction@idEntity@@AAEXPBD@Z 10022b20 f   Entity.obj
 0001:00021b50       ?Event_CallFunction@idEntity@@AAEXPBD@Z 10022b50 f   Entity.obj
 0001:00021c20       ?Event_SetNeverDormant@idEntity@@AAEXH@Z 10022c20 f   Entity.obj
 0001:00021c50       ?Event_PrecacheGui@idEntity@@AAEXPBD@Z 10022c50 f   Entity.obj
 0001:00021c70       ?Event_GetGuiParm@idEntity@@AAEXHPBD@Z 10022c70 f   Entity.obj
 0001:00021cb0       ?Event_GetGuiParmFloat@idEntity@@AAEXHPBD@Z 10022cb0 f   Entity.obj
 0001:00021d00       ?Event_GuiNamedEvent@idEntity@@AAEXHPBD@Z 10022d00 f   Entity.obj
 0001:00021d30       ?WriteBindToSnapshot@idEntity@@QBEXAAVidBitMsgDelta@@@Z 10022d30 f   Entity.obj
 0001:00021db0       ?ServerReceiveEvent@idEntity@@UAE_NHHABVidBitMsg@@@Z 10022db0 f   Entity.obj
 0001:00021dc0       ?DetermineTimeGroup@idEntity@@QAEX_N@Z 10022dc0 f   Entity.obj
 0001:00021df0       ?SetGrabbedState@idEntity@@QAEX_N@Z 10022df0 f   Entity.obj
 0001:00021e10       ?IsGrabbed@idEntity@@QAE_NXZ 10022e10 f   Entity.obj
 0001:00021e20       ?GetType@idAnimatedEntity@@UBEPAVidTypeInfo@@XZ 10022e20 f   Entity.obj
 0001:00021e30       ?Save@idAnimatedEntity@@QBEXPAVidSaveGame@@@Z 10022e30 f   Entity.obj
 0001:00021e40       ?GetAnimator@idAnimatedEntity@@UAEPAVidAnimator@@XZ 10022e40 f   Entity.obj
 0001:00021e50       ?Event_GetJointHandle@idAnimatedEntity@@AAEXPBD@Z 10022e50 f   Entity.obj
 0001:00021e70       ?Event_ClearAllJoints@idAnimatedEntity@@AAEXXZ 10022e70 f   Entity.obj
 0001:00021e80       ?Event_ClearJoint@idAnimatedEntity@@AAEXW4jointHandle_t@@@Z 10022e80 f   Entity.obj
 0001:00021e90       ?Event_SetJointPos@idAnimatedEntity@@AAEXW4jointHandle_t@@W4jointModTransform_t@@ABVidVec3@@@Z 10022e90 f   Entity.obj
 0001:00021ea0       ?Event_SetJointAngle@idAnimatedEntity@@AAEXW4jointHandle_t@@W4jointModTransform_t@@ABVidAngles@@@Z 10022ea0 f   Entity.obj
 0001:00021f20       ?UpdateGuiParms@@YAXPAVidUserInterface@@PBVidDict@@@Z 10022f20 f   Entity.obj
 0001:00021fe0       ?ParseSpawnArgsToRefSound@idGameEdit@@UAEXPBVidDict@@PAUrefSound_t@@@Z 10022fe0 f   Entity.obj
 0001:00022260       ?UpdateChangeableSpawnArgs@idEntity@@UAEXPBVidDict@@@Z 10023260 f   Entity.obj
 0001:000222d0       ?Save@idEntity@@QBEXPAVidSaveGame@@@Z 100232d0 f   Entity.obj
 0001:00022560       ?GetEntityDefName@idEntity@@QBEPBDXZ 10023560 f   Entity.obj
 0001:00022590       ?SetName@idEntity@@QAEXPBD@Z 10023590 f   Entity.obj
 0001:00022630       ?IsActive@idEntity@@QBE_NXZ 10023630 f   Entity.obj
 0001:00022640       ?BecomeInactive@idEntity@@QAEXH@Z 10023640 f   Entity.obj
 0001:000226f0       ?GetColor@idEntity@@UBEXAAVidVec4@@@Z 100236f0 f   Entity.obj
 0001:00022720       ?UpdateModelTransform@idEntity@@QAEXXZ 10023720 f   Entity.obj
 0001:000229f0       ?UpdatePVSAreas@idEntity@@AAEXXZ 100239f0 f   Entity.obj
 0001:00022b40       ?UpdatePVSAreas@idEntity@@QAEXABVidVec3@@@Z 10023b40 f   Entity.obj
 0001:00022bb0       ?GetNumPVSAreas@idEntity@@QAEHXZ 10023bb0 f   Entity.obj
 0001:00022bd0       ?GetPVSAreas@idEntity@@QAEPBHXZ 10023bd0 f   Entity.obj
 0001:00022bf0       ?PhysicsTeamInPVS@idEntity@@QAE_NUpvsHandle_s@@@Z 10023bf0 f   Entity.obj
 0001:00022ca0       ?Present@idEntity@@UAEXXZ  10023ca0 f   Entity.obj
 0001:00022d30       ?UpdateRenderEntity@idEntity@@QAE_NPAUrenderEntity_s@@PBUrenderView_s@@@Z 10023d30 f   Entity.obj
 0001:00022f00       ?ModelCallback@idEntity@@SA_NPAUrenderEntity_s@@PBUrenderView_s@@@Z 10023f00 f   Entity.obj
 0001:00022f40       ?UpdateSound@idEntity@@QAEXXZ 10023f40 f   Entity.obj
 0001:00023070       ?Unbind@idEntity@@QAEXXZ   10024070 f   Entity.obj
 0001:000231d0       ?RemoveBinds@idEntity@@AAEXXZ 100241d0 f   Entity.obj
 0001:00023380       ?ConvertLocalToWorldTransform@idEntity@@QAEXAAVidVec3@@AAVidMat3@@@Z 10024380 f   Entity.obj
 0001:000235c0       ?GetMasterPosition@idEntity@@QBE_NAAVidVec3@@AAVidMat3@@@Z 100245c0 f   Entity.obj
 0001:000239b0       ?JoinTeam@idEntity@@QAEXPAV1@@Z 100249b0 f   Entity.obj
 0001:00023ad0       ?GetFloorPos@idEntity@@QBE_NMAAVidVec3@@@Z 10024ad0 f   Entity.obj
 0001:00023bf0       ?CanDamage@idEntity@@UBE_NABVidVec3@@AAV2@@Z 10024bf0 f   Entity.obj
 0001:00023fb0       ?Damage@idEntity@@UAEXPAV1@0ABVidVec3@@PBDMH@Z 10024fb0 f   Entity.obj
 0001:00024210       ?ConstructScriptObject@idEntity@@UAEPAVidThread@@XZ 10025210 f   Entity.obj
 0001:000242c0       ?DeconstructScriptObject@idEntity@@UAEXXZ 100252c0 f   Entity.obj
 0001:00024370       ?ClearSignalThread@idEntity@@QAEXW4signalNum_t@@PAVidThread@@@Z 10025370 f   Entity.obj
 0001:00024400       ?Signal@idEntity@@QAEXW4signalNum_t@@@Z 10025400 f   Entity.obj
 0001:000244b0       ?FindTargets@idEntity@@QAEXXZ 100254b0 f   Entity.obj
 0001:00024530       ?ActivateTargets@idEntity@@QBEXPAV1@@Z 10025530 f   Entity.obj
 0001:00024600       ?TouchTriggers@idEntity@@QBE_NXZ 10025600 f   Entity.obj
 0001:000249f0       ?Event_GetName@idEntity@@AAEXXZ 100259f0 f   Entity.obj
 0001:00024a00       ?Event_SetName@idEntity@@AAEXPBD@Z 10025a00 f   Entity.obj
 0001:00024a10       ?Event_FindTargets@idEntity@@AAEXXZ 10025a10 f   Entity.obj
 0001:00024a20       ?Event_ActivateTargets@idEntity@@AAEXPAV1@@Z 10025a20 f   Entity.obj
 0001:00024a30       ?Event_NumTargets@idEntity@@AAEXXZ 10025a30 f   Entity.obj
 0001:00024a50       ?Event_GetTarget@idEntity@@AAEXM@Z 10025a50 f   Entity.obj
 0001:00024ac0       ?Event_RemoveBinds@idEntity@@AAEXXZ 10025ac0 f   Entity.obj
 0001:00024ad0       ?Event_Unbind@idEntity@@AAEXXZ 10025ad0 f   Entity.obj
 0001:00024ae0       ?Event_GetAngles@idEntity@@AAEXXZ 10025ae0 f   Entity.obj
 0001:00024b30       ?Event_SetSize@idEntity@@AAEXABVidVec3@@0@Z 10025b30 f   Entity.obj
 0001:00024b80       ?Event_GetSize@idEntity@@AAEXXZ 10025b80 f   Entity.obj
 0001:00024bf0       ?Event_GetMins@idEntity@@AAEXXZ 10025bf0 f   Entity.obj
 0001:00024c10       ?Event_GetMaxs@idEntity@@AAEXXZ 10025c10 f   Entity.obj
 0001:00024c30       ?Event_Touches@idEntity@@AAEXPAV1@@Z 10025c30 f   Entity.obj
 0001:00024cf0       ?Event_GetNextKey@idEntity@@AAEXPBD0@Z 10025cf0 f   Entity.obj
 0001:00024d40       ?Event_GetKey@idEntity@@AAEXPBD@Z 10025d40 f   Entity.obj
 0001:00024d70       ?Event_GetEntityKey@idEntity@@AAEXPBD@Z 10025d70 f   Entity.obj
 0001:00024de0       ?Event_RestorePosition@idEntity@@AAEXXZ 10025de0 f   Entity.obj
 0001:00024f30       ?Event_SetGui@idEntity@@AAEXHPBD@Z 10025f30 f   Entity.obj
 0001:00024fc0       ?WriteColorToSnapshot@idEntity@@QBEXAAVidBitMsgDelta@@@Z 10025fc0 f   Entity.obj
 0001:00025010       ?ReadColorFromSnapshot@idEntity@@QAEXABVidBitMsgDelta@@@Z 10026010 f   Entity.obj
 0001:00025060       ?WriteGUIToSnapshot@idEntity@@QBEXAAVidBitMsgDelta@@@Z 10026060 f   Entity.obj
 0001:000250e0       ?ReadGUIFromSnapshot@idEntity@@QAEXABVidBitMsgDelta@@@Z 100260e0 f   Entity.obj
 0001:00025130       ?ServerSendEvent@idEntity@@QBEXHPBVidBitMsg@@_NH@Z 10026130 f   Entity.obj
 0001:00025290       ?ClientSendEvent@idEntity@@QBEXHPBVidBitMsg@@@Z 10026290 f   Entity.obj
 0001:000253c0       ?Restore@idAnimatedEntity@@QAEXPAVidRestoreGame@@@Z 100263c0 f   Entity.obj
 0001:00025450       ?GetJointWorldTransform@idAnimatedEntity@@QAE_NW4jointHandle_t@@HAAVidVec3@@AAVidMat3@@@Z 10026450 f   Entity.obj
 0001:00025490       ?GetJointTransformForAnim@idAnimatedEntity@@QBE_NW4jointHandle_t@@HHAAVidVec3@@AAVidMat3@@@Z 10026490 f   Entity.obj
 0001:00025600       ?UpdateDamageEffects@idAnimatedEntity@@QAEXXZ 10026600 f   Entity.obj
 0001:000259e0       ?Event_GetJointPos@idAnimatedEntity@@AAEXW4jointHandle_t@@@Z 100269e0 f   Entity.obj
 0001:00025a60       ?Event_GetJointAngle@idAnimatedEntity@@AAEXW4jointHandle_t@@@Z 10026a60 f   Entity.obj
 0001:00025b00       ??1?$idLinkList@VidEntity@@@@QAE@XZ 10026b00 f i Entity.obj
 0001:00025b00       ??1?$idLinkList@VidActor@@@@QAE@XZ 10026b00 f i Actor.obj
 0001:00025b00       ??1?$idLinkList@VidEvent@@@@QAE@XZ 10026b00 f i Event.obj
 0001:00025b10       ?Right@idStr@@QBE?AV1@H@Z  10026b10 f i Entity.obj
 0001:00025b90       ?ParseSpawnArgsToRenderEntity@idGameEdit@@UAEXPBVidDict@@PAUrenderEntity_s@@@Z 10026b90 f   Entity.obj
 0001:000260b0       ?FixupLocalizedStrings@idEntity@@AAEXXZ 100270b0 f   Entity.obj
 0001:00026120       ?BecomeActive@idEntity@@QAEXH@Z 10027120 f   Entity.obj
 0001:00026200       ?UpdateModel@idEntity@@QAEXXZ 10027200 f   Entity.obj
 0001:000262b0       ?UpdateVisuals@idEntity@@QAEXXZ 100272b0 f   Entity.obj
 0001:000262c0       ?ProjectOverlay@idEntity@@UAEXABVidVec3@@0MPBD@Z 100272c0 f   Entity.obj
 0001:00026910       ?GetRenderView@idEntity@@UAEPAUrenderView_s@@XZ 10027910 f   Entity.obj
 0001:00026a80       ?StartSoundShader@idEntity@@QAE_NPBVidSoundShader@@HH_NPAH@Z 10027a80 f   Entity.obj
 0001:00026c10       ?StopSound@idEntity@@QAEXH_N@Z 10027c10 f   Entity.obj
 0001:00026cc0       ?InitBind@idEntity@@AAE_NPAV1@@Z 10027cc0 f   Entity.obj
 0001:00026d40       ?FinishBind@idEntity@@AAEXXZ 10027d40 f   Entity.obj
 0001:00026da0       ?Bind@idEntity@@QAEXPAV1@_N@Z 10027da0 f   Entity.obj
 0001:00026e00       ?BindToJoint@idEntity@@QAEXPAV1@PBD_N@Z 10027e00 f   Entity.obj
 0001:00026ec0       ?BindToJoint@idEntity@@QAEXPAV1@W4jointHandle_t@@_N@Z 10027ec0 f   Entity.obj
 0001:00026f20       ?BindToBody@idEntity@@QAEXPAV1@H_N@Z 10027f20 f   Entity.obj
 0001:00026fa0       ?GetLocalVector@idEntity@@QBE?AVidVec3@@ABV2@@Z 10027fa0 f   Entity.obj
 0001:00027050       ?GetLocalCoordinates@idEntity@@QBE?AVidVec3@@ABV2@@Z 10028050 f   Entity.obj
 0001:00027130       ?GetWorldVector@idEntity@@QBE?AVidVec3@@ABV2@@Z 10028130 f   Entity.obj
 0001:00027270       ?GetWorldCoordinates@idEntity@@QBE?AVidVec3@@ABV2@@Z 10028270 f   Entity.obj
 0001:000273c0       ?InitDefaultPhysics@idEntity@@AAEXABVidVec3@@ABVidMat3@@@Z 100283c0 f   Entity.obj
 0001:000277e0       ?SetAxis@idEntity@@QAEXABVidMat3@@@Z 100287e0 f   Entity.obj
 0001:00027890       ?GetPhysicsToSoundTransform@idEntity@@UAE_NAAVidVec3@@AAVidMat3@@@Z 10028890 f   Entity.obj
 0001:00027970       ?AddDamageEffect@idEntity@@UAEXABUtrace_s@@ABVidVec3@@PBD@Z 10028970 f   Entity.obj
 0001:00027b50       ?RemoveNullTargets@idEntity@@QAEXXZ 10028b50 f   Entity.obj
 0001:00027bd0       ?Teleport@idEntity@@UAEXABVidVec3@@ABVidAngles@@PAV1@@Z 10028bd0 f   Entity.obj
 0001:00027c30       ?Event_RandomTarget@idEntity@@AAEXPBD@Z 10028c30 f   Entity.obj
 0001:00027d50       ?Event_BindToJoint@idEntity@@AAEXPAV1@PBDM@Z 10028d50 f   Entity.obj
 0001:00027d80       ?Event_Bind@idEntity@@AAEXPAV1@@Z 10028d80 f   Entity.obj
 0001:00027dd0       ?Event_BindPosition@idEntity@@AAEXPAV1@@Z 10028dd0 f   Entity.obj
 0001:00027e20       ?Event_SpawnBind@idEntity@@AAEXXZ 10028e20 f   Entity.obj
 0001:000280b0       ?Event_SetSkin@idEntity@@AAEXPBD@Z 100290b0 f   Entity.obj
 0001:000280e0       ?Event_SetShaderParms@idEntity@@AAEXMMMM@Z 100290e0 f   Entity.obj
 0001:00028120       ?Event_StartSoundShader@idEntity@@AAEXPBDH@Z 10029120 f   Entity.obj
 0001:00028170       ?Event_StopSound@idEntity@@AAEXHH@Z 10029170 f   Entity.obj
 0001:00028190       ?Event_SetWorldOrigin@idEntity@@AAEXABVidVec3@@@Z 10029190 f   Entity.obj
 0001:000281d0       ?Event_SetOrigin@idEntity@@AAEXABVidVec3@@@Z 100291d0 f   Entity.obj
 0001:000281d0       ?SetOrigin@idEntity@@QAEXABVidVec3@@@Z 100291d0 f   Entity.obj
 0001:00028200       ?Event_GetOrigin@idEntity@@AAEXXZ 10029200 f   Entity.obj
 0001:00028240       ?Event_SetAngles@idEntity@@AAEXABVidAngles@@@Z 10029240 f   Entity.obj
 0001:00028240       ?SetAngles@idEntity@@QAEXABVidAngles@@@Z 10029240 f   Entity.obj
 0001:00028270       ?Event_UpdateCameraTarget@idEntity@@AAEXXZ 10029270 f   Entity.obj
 0001:00028480       ?ReadBindFromSnapshot@idEntity@@QAEXABVidBitMsgDelta@@@Z 10029480 f   Entity.obj
 0001:00028510       ?ClientReceiveEvent@idEntity@@UAE_NHHABVidBitMsg@@@Z 10029510 f   Entity.obj
 0001:00028610       ?UpdateAnimation@idAnimatedEntity@@QAEXXZ 10029610 f   Entity.obj
 0001:000286e0       ?AddLocalDamageEffect@idAnimatedEntity@@QAEXW4jointHandle_t@@ABVidVec3@@11PBVidDeclEntityDef@@PBVidMaterial@@@Z 100296e0 f   Entity.obj
 0001:00028e00       ?ClientReceiveEvent@idAnimatedEntity@@UAE_NHHABVidBitMsg@@@Z 10029e00 f   Entity.obj
 0001:00028f50       ?RemoveIndex@?$idCurve@VidVec3@@@@UAEXH@Z 10029f50 f i Entity.obj
 0001:00028fe0       ?Clear@?$idCurve@VidVec3@@@@UAEXXZ 10029fe0 f i Entity.obj
 0001:00029030       ?GetCurrentFirstDerivative@?$idCurve@VidVec3@@@@UBE?AVidVec3@@M@Z 1002a030 f i Entity.obj
 0001:00029030       ?GetCurrentSecondDerivative@?$idCurve@VidVec3@@@@UBE?AVidVec3@@M@Z 1002a030 f i Entity.obj
 0001:00029060       ?IsDone@?$idCurve@VidVec3@@@@UBE_NM@Z 1002a060 f i Entity.obj
 0001:00029090       ?GetCurrentValue@?$idCurve@VidVec3@@@@UBE?AVidVec3@@M@Z 1002a090 f i Entity.obj
 0001:000291a0       ??1?$idCurve_NonUniformBSpline@VidVec3@@@@UAE@XZ 1002a1a0 f i Entity.obj
 0001:00029220       ??0idEntity@@QAE@XZ        1002a220 f   Entity.obj
 0001:000294b0       ?Spawn@idEntity@@QAEXXZ    1002a4b0 f   Entity.obj
 0001:00029b30       ?Event_SetShaderParm@idEntity@@AAEXHM@Z 1002ab30 f   Entity.obj
 0001:00029b30       ?SetShaderParm@idEntity@@QAEXHM@Z 1002ab30 f   Entity.obj
 0001:00029b70       ?SetColor@idEntity@@UAEXMMM@Z 1002ab70 f   Entity.obj
 0001:00029bb0       ?SetColor@idEntity@@UAEXABVidVec3@@@Z 1002abb0 f   Entity.obj
 0001:00029bf0       ?SetColor@idEntity@@UAEXABVidVec4@@@Z 1002abf0 f   Entity.obj
 0001:00029c30       ?SetModel@idEntity@@UAEXPBD@Z 1002ac30 f   Entity.obj
 0001:00029d10       ?SetSkin@idEntity@@QAEXPBVidDeclSkin@@@Z 1002ad10 f   Entity.obj
 0001:00029d30       ?Hide@idEntity@@UAEXXZ     1002ad30 f   Entity.obj
 0001:00029d60       ?Show@idEntity@@UAEXXZ     1002ad60 f   Entity.obj
 0001:00029d90       ?StartSound@idEntity@@QAE_NPBDHH_NPAH@Z 1002ad90 f   Entity.obj
 0001:00029e10       ?RunPhysics@idEntity@@QAE_NXZ 1002ae10 f   Entity.obj
 0001:0002a1e0       ?SetSignal@idEntity@@QAEXW4signalNum_t@@PAVidThread@@PBVfunction_t@@@Z 1002b1e0 f   Entity.obj
 0001:0002a410       ?HandleGuiCommands@idEntity@@QAE_NPAV1@PBD@Z 1002b410 f   Entity.obj
 0001:0002adc0       ?Event_StartSound@idEntity@@AAEXPBDHH@Z 1002bdc0 f   Entity.obj
 0001:0002ae10       ?ClientPredictionThink@idAnimatedEntity@@UAEXXZ 1002be10 f   Entity.obj
 0001:0002ae30       ?Think@idAnimatedEntity@@UAEXXZ 1002be30 f   Entity.obj
 0001:0002ae50       ?SetModel@idAnimatedEntity@@UAEXPBD@Z 1002be50 f   Entity.obj
 0001:0002af00       ?AddDamageEffect@idAnimatedEntity@@UAEXABUtrace_s@@ABVidVec3@@PBD@Z 1002bf00 f   Entity.obj
 0001:0002b5b0       ?AddValue@?$idCurve@VidVec3@@@@UAEHMABVidVec3@@@Z 1002c5b0 f i Entity.obj
 0001:0002bab0       ?SetBoundaryType@?$idCurve_Spline@VidVec3@@@@UAEXW4boundary_t@1@@Z 1002cab0 f i Entity.obj
 0001:0002bac0       ?SetCloseTime@?$idCurve_Spline@VidVec3@@@@UAEXM@Z 1002cac0 f i Entity.obj
 0001:0002bad0       ?GetCloseTime@?$idCurve_Spline@VidVec3@@@@UAEMXZ 1002cad0 f i Entity.obj
 0001:0002baf0       ?IsDone@?$idCurve_Spline@VidVec3@@@@UBE_NM@Z 1002caf0 f i Entity.obj
 0001:0002bb20       ??1idEntity@@UAE@XZ        1002cb20 f   Entity.obj
 0001:0002be40       ?Restore@idEntity@@QAEXPAVidRestoreGame@@@Z 1002ce40 f   Entity.obj
 0001:0002c3a0       ?ClientPredictionThink@idEntity@@UAEXXZ 1002d3a0 f   Entity.obj
 0001:0002c3a0       ?Think@idEntity@@UAEXXZ    1002d3a0 f   Entity.obj
 0001:0002c3a0       ?Think@idMultiModelAF@@UAEXXZ 1002d3a0 f   AFEntity.obj
 0001:0002c3c0       ??0idAnimatedEntity@@QAE@XZ 1002d3c0 f   Entity.obj
 0001:0002c430       ??1idAnimatedEntity@@UAE@XZ 1002d430 f   Entity.obj
 0001:0002c4b0       ?GetCurrentValue@?$idCurve_CatmullRomSpline@VidVec3@@@@UBE?AVidVec3@@M@Z 1002d4b0 f i Entity.obj
 0001:0002ca60       ?GetCurrentFirstDerivative@?$idCurve_CatmullRomSpline@VidVec3@@@@UBE?AVidVec3@@M@Z 1002da60 f i Entity.obj
 0001:0002d140       ?GetCurrentSecondDerivative@?$idCurve_CatmullRomSpline@VidVec3@@@@UBE?AVidVec3@@M@Z 1002e140 f i Entity.obj
 0001:0002d810       ??_G?$idCurve@VidVec3@@@@UAEPAXI@Z 1002e810 f i Entity.obj
 0001:0002d810       ??_E?$idCurve_CatmullRomSpline@VidVec3@@@@UAEPAXI@Z 1002e810 f i Entity.obj
 0001:0002d810       ??_E?$idCurve_NonUniformBSpline@VidVec3@@@@UAEPAXI@Z 1002e810 f i Entity.obj
 0001:0002d810       ??_E?$idCurve_BSpline@VidVec3@@@@UAEPAXI@Z 1002e810 f i Entity.obj
 0001:0002d810       ??_G?$idCurve_BSpline@VidVec3@@@@UAEPAXI@Z 1002e810 f i Entity.obj
 0001:0002d810       ??_G?$idCurve_CatmullRomSpline@VidVec3@@@@UAEPAXI@Z 1002e810 f i Entity.obj
 0001:0002d810       ??_E?$idCurve@VidVec3@@@@UAEPAXI@Z 1002e810 f i Entity.obj
 0001:0002d810       ??_G?$idCurve_NonUniformBSpline@VidVec3@@@@UAEPAXI@Z 1002e810 f i Entity.obj
 0001:0002d8a0       ?GetOrder@?$idCurve_BSpline@VidVec3@@@@UBEHXZ 1002e8a0 f i Entity.obj
 0001:0002d8b0       ?SetOrder@?$idCurve_BSpline@VidVec3@@@@UAEXH@Z 1002e8b0 f i Entity.obj
 0001:0002d8c0       ?Basis@?$idCurve_BSpline@VidVec3@@@@IBEMHHM@Z 1002e8c0 f i Entity.obj
 0001:0002dea0       ?GetCurrentValue@?$idCurve_BSpline@VidVec3@@@@UBE?AVidVec3@@M@Z 1002eea0 f i Entity.obj
 0001:0002e750       ?GetCurrentFirstDerivative@?$idCurve_BSpline@VidVec3@@@@UBE?AVidVec3@@M@Z 1002f750 f i Entity.obj
 0001:0002f5c0       ?GetCurrentSecondDerivative@?$idCurve_BSpline@VidVec3@@@@UBE?AVidVec3@@M@Z 100305c0 f i Entity.obj
 0001:00031040       ?GetCurrentValue@?$idCurve_NonUniformBSpline@VidVec3@@@@UBE?AVidVec3@@M@Z 10032040 f i Entity.obj
 0001:00031600       ?GetCurrentFirstDerivative@?$idCurve_NonUniformBSpline@VidVec3@@@@UBE?AVidVec3@@M@Z 10032600 f i Entity.obj
 0001:00031e10       ?GetCurrentSecondDerivative@?$idCurve_NonUniformBSpline@VidVec3@@@@UBE?AVidVec3@@M@Z 10032e10 f i Entity.obj
 0001:000328b0       ?RemoveIndex@?$idCurve_NURBS@VidVec3@@@@UAEXH@Z 100338b0 f i Entity.obj
 0001:00032960       ?Clear@?$idCurve_NURBS@VidVec3@@@@UAEXXZ 10033960 f i Entity.obj
 0001:000329c0       ?GetCurrentValue@?$idCurve_NURBS@VidVec3@@@@UBE?AVidVec3@@M@Z 100339c0 f i Entity.obj
 0001:00033010       ?GetCurrentFirstDerivative@?$idCurve_NURBS@VidVec3@@@@UBE?AVidVec3@@M@Z 10034010 f i Entity.obj
 0001:00033bc0       ?GetCurrentSecondDerivative@?$idCurve_NURBS@VidVec3@@@@UBE?AVidVec3@@M@Z 10034bc0 f i Entity.obj
 0001:00034fe0       ??1?$idCurve_NURBS@VidVec3@@@@UAE@XZ 10035fe0 f i Entity.obj
 0001:00035080       ?AddValue@?$idCurve_NURBS@VidVec3@@@@UAEHMABVidVec3@@M@Z 10036080 f i Entity.obj
 0001:00035720       ?AddValue@?$idCurve_NURBS@VidVec3@@@@UAEHMABVidVec3@@@Z 10036720 f i Entity.obj
 0001:00035dc0       ??_G?$idCurve_NURBS@VidVec3@@@@UAEPAXI@Z 10036dc0 f i Entity.obj
 0001:00035dc0       ??_E?$idCurve_NURBS@VidVec3@@@@UAEPAXI@Z 10036dc0 f i Entity.obj
 0001:00035de0       ??_EidTarget_FadeSoundClass@@UAEPAXI@Z 10036de0 f i Target.obj
 0001:00035de0       ??_GidTarget_Show@@UAEPAXI@Z 10036de0 f i Target.obj
 0001:00035de0       ??_GidTrigger@@UAEPAXI@Z   10036de0 f i Trigger.obj
 0001:00035de0       ??_GidEntity@@UAEPAXI@Z    10036de0 f i Entity.obj
 0001:00035de0       ??_GidTarget_SetKeyVal@@UAEPAXI@Z 10036de0 f i Target.obj
 0001:00035de0       ??_GidFuncAASObstacle@@UAEPAXI@Z 10036de0 f i Misc.obj
 0001:00035de0       ??_GidObjectiveComplete@@UAEPAXI@Z 10036de0 f i Item.obj
 0001:00035de0       ??_GidTrigger_Fade@@UAEPAXI@Z 10036de0 f i Trigger.obj
 0001:00035de0       ??_EidFuncAASObstacle@@UAEPAXI@Z 10036de0 f i Misc.obj
 0001:00035de0       ??_GidBeam@@UAEPAXI@Z      10036de0 f i Misc.obj
 0001:00035de0       ??_EidTarget_EndLevel@@UAEPAXI@Z 10036de0 f i Target.obj
 0001:00035de0       ??_GidExplodable@@UAEPAXI@Z 10036de0 f i Misc.obj
 0001:00035de0       ??_EidLiquid@@UAEPAXI@Z    10036de0 f i Misc.obj
 0001:00035de0       ??_EidCameraView@@UAEPAXI@Z 10036de0 f i Camera.obj
 0001:00035de0       ??_GidTarget_EndLevel@@UAEPAXI@Z 10036de0 f i Target.obj
 0001:00035de0       ??_EidTarget_CallObjectFunction@@UAEPAXI@Z 10036de0 f i Target.obj
 0001:00035de0       ??_EidSound@@UAEPAXI@Z     10036de0 f i Sound.obj
 0001:00035de0       ??_EidTarget_SetGlobalShaderTime@@UAEPAXI@Z 10036de0 f i Target.obj
 0001:00035de0       ??_GidTarget_RemoveWeapons@@UAEPAXI@Z 10036de0 f i Target.obj
 0001:00035de0       ??_GidTarget_EnableLevelWeapons@@UAEPAXI@Z 10036de0 f i Target.obj
 0001:00035de0       ??_GidTarget_GiveSecurity@@UAEPAXI@Z 10036de0 f i Target.obj
 0001:00035de0       ??_EidTarget_Tip@@UAEPAXI@Z 10036de0 f i Target.obj
 0001:00035de0       ??_GidTarget_Tip@@UAEPAXI@Z 10036de0 f i Target.obj
 0001:00035de0       ??_GidTarget_LightFadeOut@@UAEPAXI@Z 10036de0 f i Target.obj
 0001:00035de0       ??_EidTarget_SessionCommand@@UAEPAXI@Z 10036de0 f i Target.obj
 0001:00035de0       ??_GidTarget_SetPrimaryObjective@@UAEPAXI@Z 10036de0 f i Target.obj
 0001:00035de0       ??_GidFuncEmitter@@UAEPAXI@Z 10036de0 f i Misc.obj
 0001:00035de0       ??_GidItemRemover@@UAEPAXI@Z 10036de0 f i Item.obj
 0001:00035de0       ??_GidTarget_Give@@UAEPAXI@Z 10036de0 f i Target.obj
 0001:00035de0       ??_EidTarget_WaitForButton@@UAEPAXI@Z 10036de0 f i Target.obj
 0001:00035de0       ??_GidTarget_FadeSoundClass@@UAEPAXI@Z 10036de0 f i Target.obj
 0001:00035de0       ??_EidTarget_LightFadeIn@@UAEPAXI@Z 10036de0 f i Target.obj
 0001:00035de0       ??_EidTarget_LockDoor@@UAEPAXI@Z 10036de0 f i Target.obj
 0001:00035de0       ??_EidPlayerStart@@UAEPAXI@Z 10036de0 f i Misc.obj
 0001:00035de0       ??_EidItemRemover@@UAEPAXI@Z 10036de0 f i Item.obj
 0001:00035de0       ??_GidEarthQuake@@UAEPAXI@Z 10036de0 f i Misc.obj
 0001:00035de0       ??_GidSound@@UAEPAXI@Z     10036de0 f i Sound.obj
 0001:00035de0       ??_EidTarget_SetKeyVal@@UAEPAXI@Z 10036de0 f i Target.obj
 0001:00035de0       ??_GidTarget_SetFov@@UAEPAXI@Z 10036de0 f i Target.obj
 0001:00035de0       ??_EidExplodable@@UAEPAXI@Z 10036de0 f i Misc.obj
 0001:00035de0       ??_EidVacuumEntity@@UAEPAXI@Z 10036de0 f i Misc.obj
 0001:00035de0       ??_EidLocationEntity@@UAEPAXI@Z 10036de0 f i Misc.obj
 0001:00035de0       ??_GidTarget_EnableStamina@@UAEPAXI@Z 10036de0 f i Target.obj
 0001:00035de0       ??_GidFuncPortal@@UAEPAXI@Z 10036de0 f i Misc.obj
 0001:00035de0       ??_EidEarthQuake@@UAEPAXI@Z 10036de0 f i Misc.obj
 0001:00035de0       ??_EidTarget_Damage@@UAEPAXI@Z 10036de0 f i Target.obj
 0001:00035de0       ??_EidTarget_SetFov@@UAEPAXI@Z 10036de0 f i Target.obj
 0001:00035de0       ??_GidTarget_WaitForButton@@UAEPAXI@Z 10036de0 f i Target.obj
 0001:00035de0       ??_GidFuncSmoke@@UAEPAXI@Z 10036de0 f i Misc.obj
 0001:00035de0       ??_GidTrigger_Touch@@UAEPAXI@Z 10036de0 f i Trigger.obj
 0001:00035de0       ??_GidTarget_LevelTrigger@@UAEPAXI@Z 10036de0 f i Target.obj
 0001:00035de0       ??_EidTarget_Show@@UAEPAXI@Z 10036de0 f i Target.obj
 0001:00035de0       ??_EidTarget_SetShaderParm@@UAEPAXI@Z 10036de0 f i Target.obj
 0001:00035de0       ??_EidTarget_Remove@@UAEPAXI@Z 10036de0 f i Target.obj
 0001:00035de0       ??_EidTarget_SetPrimaryObjective@@UAEPAXI@Z 10036de0 f i Target.obj
 0001:00035de0       ??_GidLocationSeparatorEntity@@UAEPAXI@Z 10036de0 f i Misc.obj
 0001:00035de0       ??_EidObjectiveComplete@@UAEPAXI@Z 10036de0 f i Item.obj
 0001:00035de0       ??_GidFuncSplat@@UAEPAXI@Z 10036de0 f i Misc.obj
 0001:00035de0       ??_GidLocationEntity@@UAEPAXI@Z 10036de0 f i Misc.obj
 0001:00035de0       ??_GidDamagable@@UAEPAXI@Z 10036de0 f i Misc.obj
 0001:00035de0       ??_GidTarget_SetShaderTime@@UAEPAXI@Z 10036de0 f i Target.obj
 0001:00035de0       ??_EidTrigger_Touch@@UAEPAXI@Z 10036de0 f i Trigger.obj
 0001:00035de0       ??_EidLocationSeparatorEntity@@UAEPAXI@Z 10036de0 f i Misc.obj
 0001:00035de0       ??_EidPathCorner@@UAEPAXI@Z 10036de0 f i Misc.obj
 0001:00035de0       ??_GidTarget_Damage@@UAEPAXI@Z 10036de0 f i Target.obj
 0001:00035de0       ??_GidTarget_GiveEmail@@UAEPAXI@Z 10036de0 f i Target.obj
 0001:00035de0       ??_EidFuncPortal@@UAEPAXI@Z 10036de0 f i Misc.obj
 0001:00035de0       ??_GidSplinePath@@UAEPAXI@Z 10036de0 f i Mover.obj
 0001:00035de0       ??_EidBeam@@UAEPAXI@Z      10036de0 f i Misc.obj
 0001:00035de0       ??_EidTarget@@UAEPAXI@Z    10036de0 f i Target.obj
 0001:00035de0       ??_EidCombatNode@@UAEPAXI@Z 10036de0 f i AI.obj
 0001:00035de0       ??_GidTrigger_Hurt@@UAEPAXI@Z 10036de0 f i Trigger.obj
 0001:00035de0       ??_EidTarget_Give@@UAEPAXI@Z 10036de0 f i Target.obj
 0001:00035de0       ??_EidVacuumSeparatorEntity@@UAEPAXI@Z 10036de0 f i Misc.obj
 0001:00035de0       ??_EidTarget_EnableLevelWeapons@@UAEPAXI@Z 10036de0 f i Target.obj
 0001:00035de0       ??_GidSpawnableEntity@@UAEPAXI@Z 10036de0 f i Misc.obj
 0001:00035de0       ??_EidFuncSmoke@@UAEPAXI@Z 10036de0 f i Misc.obj
 0001:00035de0       ??_GidFuncAASPortal@@UAEPAXI@Z 10036de0 f i Misc.obj
 0001:00035de0       ??_EidTarget_GiveSecurity@@UAEPAXI@Z 10036de0 f i Target.obj
 0001:00035de0       ??_EidTarget_LevelTrigger@@UAEPAXI@Z 10036de0 f i Target.obj
 0001:00035de0       ??_EidSplinePath@@UAEPAXI@Z 10036de0 f i Mover.obj
 0001:00035de0       ??_EidFuncAASPortal@@UAEPAXI@Z 10036de0 f i Misc.obj
 0001:00035de0       ??_GidVacuumEntity@@UAEPAXI@Z 10036de0 f i Misc.obj
 0001:00035de0       ??_GidTarget_SetModel@@UAEPAXI@Z 10036de0 f i Target.obj
 0001:00035de0       ??_GidTarget@@UAEPAXI@Z    10036de0 f i Target.obj
 0001:00035de0       ??_GidCombatNode@@UAEPAXI@Z 10036de0 f i AI.obj
 0001:00035de0       ??_EidTrigger_Fade@@UAEPAXI@Z 10036de0 f i Trigger.obj
 0001:00035de0       ??_GidTarget_LightFadeIn@@UAEPAXI@Z 10036de0 f i Target.obj
 0001:00035de0       ??_EidFuncSplat@@UAEPAXI@Z 10036de0 f i Misc.obj
 0001:00035de0       ??_GidCameraView@@UAEPAXI@Z 10036de0 f i Camera.obj
 0001:00035de0       ??_GidTarget_SessionCommand@@UAEPAXI@Z 10036de0 f i Target.obj
 0001:00035de0       ??_EidFuncRadioChatter@@UAEPAXI@Z 10036de0 f i Misc.obj
 0001:00035de0       ??_EidTrigger_Hurt@@UAEPAXI@Z 10036de0 f i Trigger.obj
 0001:00035de0       ??_GidPathCorner@@UAEPAXI@Z 10036de0 f i Misc.obj
 0001:00035de0       ??_EidDamagable@@UAEPAXI@Z 10036de0 f i Misc.obj
 0001:00035de0       ??_GidTarget_LockDoor@@UAEPAXI@Z 10036de0 f i Target.obj
 0001:00035de0       ??_GidPlayerStart@@UAEPAXI@Z 10036de0 f i Misc.obj
 0001:00035de0       ??_GidTarget_CallObjectFunction@@UAEPAXI@Z 10036de0 f i Target.obj
 0001:00035de0       ??_GidVacuumSeparatorEntity@@UAEPAXI@Z 10036de0 f i Misc.obj
 0001:00035de0       ??_EidTarget_SetModel@@UAEPAXI@Z 10036de0 f i Target.obj
 0001:00035de0       ??_EidTarget_FadeEntity@@UAEPAXI@Z 10036de0 f i Target.obj
 0001:00035de0       ??_GidStaticEntity@@UAEPAXI@Z 10036de0 f i Misc.obj
 0001:00035de0       ??_EidSpawnableEntity@@UAEPAXI@Z 10036de0 f i Misc.obj
 0001:00035de0       ??_GidActivator@@UAEPAXI@Z 10036de0 f i Misc.obj
 0001:00035de0       ??_GidTarget_SetGlobalShaderTime@@UAEPAXI@Z 10036de0 f i Target.obj
 0001:00035de0       ??_GidTarget_Remove@@UAEPAXI@Z 10036de0 f i Target.obj
 0001:00035de0       ??_EidEntity@@UAEPAXI@Z    10036de0 f i Entity.obj
 0001:00035de0       ??_EidTrigger_Count@@UAEPAXI@Z 10036de0 f i Trigger.obj
 0001:00035de0       ??_EidFuncEmitter@@UAEPAXI@Z 10036de0 f i Misc.obj
 0001:00035de0       ??_EidTrigger@@UAEPAXI@Z   10036de0 f i Trigger.obj
 0001:00035de0       ??_EidTarget_EnableStamina@@UAEPAXI@Z 10036de0 f i Target.obj
 0001:00035de0       ??_EidTarget_RemoveWeapons@@UAEPAXI@Z 10036de0 f i Target.obj
 0001:00035de0       ??_EidTarget_SetShaderTime@@UAEPAXI@Z 10036de0 f i Target.obj
 0001:00035de0       ??_GidTarget_SetShaderParm@@UAEPAXI@Z 10036de0 f i Target.obj
 0001:00035de0       ??_EidActivator@@UAEPAXI@Z 10036de0 f i Misc.obj
 0001:00035de0       ??_EidStaticEntity@@UAEPAXI@Z 10036de0 f i Misc.obj
 0001:00035de0       ??_GidTrigger_Count@@UAEPAXI@Z 10036de0 f i Trigger.obj
 0001:00035de0       ??_GidFuncRadioChatter@@UAEPAXI@Z 10036de0 f i Misc.obj
 0001:00035de0       ??_EidTarget_GiveEmail@@UAEPAXI@Z 10036de0 f i Target.obj
 0001:00035de0       ??_EidTarget_LightFadeOut@@UAEPAXI@Z 10036de0 f i Target.obj
 0001:00035de0       ??_GidLiquid@@UAEPAXI@Z    10036de0 f i Misc.obj
 0001:00035de0       ??_GidTarget_FadeEntity@@UAEPAXI@Z 10036de0 f i Target.obj
 0001:00035e00       ?GetSpline@idEntity@@QBEPAV?$idCurve_Spline@VidVec3@@@@XZ 10036e00 f   Entity.obj
 0001:00036110       ?CreateInstance@idAnimatedEntity@@SAPAVidClass@@XZ 10037110 f   Entity.obj
 0001:000361e0       ??_EidAnimatedEntity@@UAEPAXI@Z 100371e0 f i Entity.obj
 0001:000361e0       ??_GidAnimatedEntity@@UAEPAXI@Z 100371e0 f i Entity.obj
 0001:00036200       ?GetType@idEntityFx@@UBEPAVidTypeInfo@@XZ 10037200 f   Fx.obj
 0001:00036210       ?ApplyFade@idEntityFx@@IAEXABUidFXSingleAction@@AAUidFXLocalAction@@HH@Z 10037210 f   Fx.obj
 0001:000363a0       ?GetType@idTeleporter@@UBEPAVidTypeInfo@@XZ 100373a0 f   Fx.obj
 0001:000363b0       ?Save@idEntityFx@@QBEXPAVidSaveGame@@@Z 100373b0 f   Fx.obj
 0001:00036520       ?CleanUp@idEntityFx@@IAEXXZ 10037520 f   Fx.obj
 0001:000365f0       ?Start@idEntityFx@@QAEXH@Z 100375f0 f   Fx.obj
 0001:00036650       ?Duration@idEntityFx@@QAE?BHXZ 10037650 f   Fx.obj
 0001:000366a0       ?Event_ClearFx@idEntityFx@@IAEXXZ 100376a0 f   Fx.obj
 0001:00036840       ?WriteToSnapshot@idEntityFx@@UBEXAAVidBitMsgDelta@@@Z 10037840 f   Fx.obj
 0001:000368b0       ?Event_DoAction@idTeleporter@@AAEXPAVidEntity@@@Z 100378b0 f   Fx.obj
 0001:00036960       ??4renderLight_s@@QAEAAU0@ABU0@@Z 10037960 f i Fx.obj
 0001:00036af0       ??0idEntityFx@@QAE@XZ      10037af0 f   Fx.obj
 0001:00036b80       ??1idEntityFx@@UAE@XZ      10037b80 f   Fx.obj
 0001:00036c20       ??4idFXLocalAction@@QAEAAU0@ABU0@@Z 10037c20 f i Fx.obj
 0001:00036cc0       ?CreateInstance@idEntityFx@@SAPAVidClass@@XZ 10037cc0 f   Fx.obj
 0001:00036d60       ?Run@idEntityFx@@QAEXH@Z   10037d60 f   Fx.obj
 0001:00037b40       ?Think@idEntityFx@@UAEXXZ  10038b40 f   Fx.obj
 0001:00037b80       ?StartFx@idEntityFx@@SAPAV1@PBDPBVidVec3@@PBVidMat3@@PAVidEntity@@_N@Z 10038b80 f   Fx.obj
 0001:00037e00       ?ClientPredictionThink@idEntityFx@@UAEXXZ 10038e00 f   Fx.obj
 0001:00037e30       ?CreateInstance@idTeleporter@@SAPAVidClass@@XZ 10038e30 f   Fx.obj
 0001:00037ee0       ??_EidTeleporter@@UAEPAXI@Z 10038ee0 f i Fx.obj
 0001:00037ee0       ??_EidEntityFx@@UAEPAXI@Z  10038ee0 f i Fx.obj
 0001:00037ee0       ??_GidEntityFx@@UAEPAXI@Z  10038ee0 f i Fx.obj
 0001:00037ee0       ??_GidTeleporter@@UAEPAXI@Z 10038ee0 f i Fx.obj
 0001:00037f00       ?Restore@idEntityFx@@QAEXPAVidRestoreGame@@@Z 10038f00 f   Fx.obj
 0001:000381d0       ?Setup@idEntityFx@@QAEXPBD@Z 100391d0 f   Fx.obj
 0001:00038480       ?Spawn@idEntityFx@@QAEXXZ  10039480 f   Fx.obj
 0001:000385c0       ?Event_Trigger@idEntityFx@@IAEXPAVidEntity@@@Z 100395c0 f   Fx.obj
 0001:000386d0       ?ReadFromSnapshot@idEntityFx@@UAEXABVidBitMsgDelta@@@Z 100396d0 f   Fx.obj
 0001:000387d0       ?GetType@idCursor3D@@UBEPAVidTypeInfo@@XZ 100397d0 f   GameEdit.obj
 0001:000387e0       ?FindEntityDefDict@idGameEdit@@UBEPBVidDict@@PBD_N@Z 100397e0 f   GameEdit.obj
 0001:000387f0       ?SpawnEntityDef@idGameEdit@@UAEXABVidDict@@PAPAVidEntity@@@Z 100397f0 f   GameEdit.obj
 0001:00038810       ?FindEntity@idGameEdit@@UBEPAVidEntity@@PBD@Z 10039810 f   GameEdit.obj
 0001:00038820       ?GetUniqueEntityName@idGameEdit@@UBEPBDPBD@Z 10039820 f   GameEdit.obj
 0001:00038880       ?EntitySetOrigin@idGameEdit@@UAEXPAVidEntity@@ABVidVec3@@@Z 10039880 f   GameEdit.obj
 0001:000388a0       ?EntitySetAxis@idGameEdit@@UAEXPAVidEntity@@ABVidMat3@@@Z 100398a0 f   GameEdit.obj
 0001:000388c0       ?EntitySetColor@idGameEdit@@UAEXPAVidEntity@@VidVec3@@@Z 100398c0 f   GameEdit.obj
 0001:000388e0       ?EntityTranslate@idGameEdit@@UAEXPAVidEntity@@ABVidVec3@@@Z 100398e0 f   GameEdit.obj
 0001:00038900       ?EntityGetSpawnArgs@idGameEdit@@UBEPBVidDict@@PAVidEntity@@@Z 10039900 f   GameEdit.obj
 0001:00038920       ?EntityUpdateChangeableSpawnArgs@idGameEdit@@UAEXPAVidEntity@@PBVidDict@@@Z 10039920 f   GameEdit.obj
 0001:00038940       ?EntityUpdateVisuals@idGameEdit@@UAEXPAVidEntity@@@Z 10039940 f   GameEdit.obj
 0001:00038950       ?EntitySetModel@idGameEdit@@UAEXPAVidEntity@@PBD@Z 10039950 f   GameEdit.obj
 0001:00038980       ?EntityStopSound@idGameEdit@@UAEXPAVidEntity@@@Z 10039980 f   GameEdit.obj
 0001:000389a0       ?EntityDelete@idGameEdit@@UAEXPAVidEntity@@@Z 100399a0 f   GameEdit.obj
 0001:000389c0       ?PlayerIsValid@idGameEdit@@UBE_NXZ 100399c0 f   GameEdit.obj
 0001:000389e0       ?MapGetEntityDict@idGameEdit@@UBEPBVidDict@@PBD@Z 100399e0 f   GameEdit.obj
 0001:00038a10       ?MapSetEntityKeyVal@idGameEdit@@UBEXPBD00@Z 10039a10 f   GameEdit.obj
 0001:00038a50       ?MapRemoveEntity@idGameEdit@@UBEXPBD@Z 10039a50 f   GameEdit.obj
 0001:00038a80       ??_EidGameEdit@@UAEPAXI@Z  10039a80 f i GameEdit.obj
 0001:00038a80       ??_GidGameEdit@@UAEPAXI@Z  10039a80 f i GameEdit.obj
 0001:00038aa0       ??_EidCursor3D@@UAEPAXI@Z  10039aa0 f i GameEdit.obj
 0001:00038aa0       ??_GidCursor3D@@UAEPAXI@Z  10039aa0 f i GameEdit.obj
 0001:00038b10       ?Present@idCursor3D@@UAEXXZ 10039b10 f   GameEdit.obj
 0001:00038c30       ?Clear@idDragEntity@@QAEXXZ 10039c30 f   GameEdit.obj
 0001:00038c90       ?SetSelected@idDragEntity@@QAEXPAVidEntity@@@Z 10039c90 f   GameEdit.obj
 0001:00038cd0       ?DeleteSelected@idDragEntity@@QAEXXZ 10039cd0 f   GameEdit.obj
 0001:00038d20       ?UnbindSelected@idDragEntity@@QAEXXZ 10039d20 f   GameEdit.obj
 0001:00038e50       ?ClearSelectedEntities@idEditEntities@@QAEXXZ 10039e50 f   GameEdit.obj
 0001:00038ea0       ??0selectedTypeInfo_s@@QAE@XZ 10039ea0 f i GameEdit.obj
 0001:00038ec0       ??1selectedTypeInfo_s@@QAE@XZ 10039ec0 f i GameEdit.obj
 0001:00038ed0       ?GetSelectedEntities@idGameEdit@@UAEHQAPAVidEntity@@H@Z 10039ed0 f   GameEdit.obj
 0001:00038f20       ?TriggerSelected@idGameEdit@@UAEXXZ 10039f20 f   GameEdit.obj
 0001:00038f90       ?ClearEntitySelection@idGameEdit@@UAEXXZ 10039f90 f   GameEdit.obj
 0001:00039020       ?EntityGetOrigin@idGameEdit@@UBEXPAVidEntity@@AAVidVec3@@@Z 1003a020 f   GameEdit.obj
 0001:00039060       ?EntityGetAxis@idGameEdit@@UBEXPAVidEntity@@AAVidMat3@@@Z 1003a060 f   GameEdit.obj
 0001:000390c0       ?PlayerGetOrigin@idGameEdit@@UBEXAAVidVec3@@@Z 1003a0c0 f   GameEdit.obj
 0001:00039100       ?PlayerGetAxis@idGameEdit@@UBEXAAVidMat3@@@Z 1003a100 f   GameEdit.obj
 0001:00039160       ?PlayerGetViewAngles@idGameEdit@@UBEXAAVidAngles@@@Z 1003a160 f   GameEdit.obj
 0001:00039190       ?PlayerGetEyePosition@idGameEdit@@UBEXAAVidVec3@@@Z 1003a190 f   GameEdit.obj
 0001:000391d0       ?MapSave@idGameEdit@@UBEXPBD@Z 1003a1d0 f   GameEdit.obj
 0001:00039200       ?MapEntityTranslate@idGameEdit@@UBEXPBDABVidVec3@@@Z 1003a200 f   GameEdit.obj
 0001:00039290       ?CreateInstance@idCursor3D@@SAPAVidClass@@XZ 1003a290 f   GameEdit.obj
 0001:00039360       ??0idDragEntity@@QAE@XZ    1003a360 f   GameEdit.obj
 0001:000393f0       ??1idDragEntity@@QAE@XZ    1003a3f0 f   GameEdit.obj
 0001:00039470       ?BindSelected@idDragEntity@@QAEXXZ 1003a470 f   GameEdit.obj
 0001:000398a0       ?RemoveSelectedEntity@idEditEntities@@QAEXPAVidEntity@@@Z 1003a8a0 f   GameEdit.obj
 0001:00039920       ?EntityIsSelectable@idEditEntities@@QAE_NPAVidEntity@@PAVidVec4@@PAVidStr@@@Z 1003a920 f   GameEdit.obj
 0001:00039a70       ?EntityChangeSpawnArgs@idGameEdit@@UAEXPAVidEntity@@PBVidDict@@@Z 1003aa70 f   GameEdit.obj
 0001:00039ae0       ?MapCopyDictToEntity@idGameEdit@@UBEXPBDPBVidDict@@@Z 1003aae0 f   GameEdit.obj
 0001:00039b50       ?MapGetUniqueMatchingKeyVals@idGameEdit@@UBEHPBDQAPBDH@Z 1003ab50 f   GameEdit.obj
 0001:00039bd0       ?MapGetEntitiesMatchingClassWithString@idGameEdit@@UBEHPBD0QAPBDH@Z 1003abd0 f   GameEdit.obj
 0001:00039de0       ??4selectedTypeInfo_s@@QAEAAU0@ABU0@@Z 1003ade0 f i GameEdit.obj
 0001:00039e30       ??0idMapEntity@@QAE@XZ     1003ae30 f i GameEdit.obj
 0001:00039f70       ?Update@idDragEntity@@QAEXPAVidPlayer@@@Z 1003af70 f   GameEdit.obj
 0001:0003aa40       ?AddSelectedEntity@idEditEntities@@QAEXPAVidEntity@@@Z 1003ba40 f   GameEdit.obj
 0001:0003ab90       ?AddSelectedEntity@idGameEdit@@UAEXPAVidEntity@@@Z 1003bb90 f   GameEdit.obj
 0001:0003abb0       ?MapAddEntity@idGameEdit@@UBEXPBVidDict@@@Z 1003bbb0 f   GameEdit.obj
 0001:0003ac30       ??1?$idList@UselectedTypeInfo_s@@@@QAE@XZ 1003bc30 f i GameEdit.obj
 0001:0003ac70       ??0idEditEntities@@QAE@XZ  1003bc70 f   GameEdit.obj
 0001:0003ad00       ?SelectEntity@idEditEntities@@QAE_NABVidVec3@@0PBVidEntity@@@Z 1003bd00 f   GameEdit.obj
 0001:0003ae60       ?DisplayEntities@idEditEntities@@QAEXXZ 1003be60 f   GameEdit.obj
 0001:0003d080       ??1idClip@@QAE@XZ          1003e080 f i Game_local.obj
 0001:0003d0d0       _GetGameAPI                1003e0d0 f   Game_local.obj
 0001:0003d1b0       ?GetPersistentPlayerInfo@idGameLocal@@UAEABVidDict@@H@Z 1003e1b0 f   Game_local.obj
 0001:0003d210       ?SetPersistentPlayerInfo@idGameLocal@@UAEXHABVidDict@@@Z 1003e210 f   Game_local.obj
 0001:0003d230       ?Printf@idGameLocal@@QBAXPBDZZ 1003e230 f   Game_local.obj
 0001:0003d270       ?Warning@idGameLocal@@QBAXPBDZZ 1003e270 f   Game_local.obj
 0001:0003d2d0       ?Error@idGameLocal@@QBAXPBDZZ 1003e2d0 f   Game_local.obj
 0001:0003d330       ?gameError@@YAXPBDZZ       1003e330 f   Game_local.obj
 0001:0003d370       ?SetLocalClient@idGameLocal@@UAEXH@Z 1003e370 f   Game_local.obj
 0001:0003d380       ?GetUserInfo@idGameLocal@@UAEPBVidDict@@H@Z 1003e380 f   Game_local.obj
 0001:0003d3c0       ?InitScriptForMap@idGameLocal@@AAEXXZ 1003e3c0 f   Game_local.obj
 0001:0003d4a0       ?GetClientByNum@idGameLocal@@QBEPAVidPlayer@@H@Z 1003e4a0 f   Game_local.obj
 0001:0003d4c0       ?GetNextClientNum@idGameLocal@@QBEHH@Z 1003e4c0 f   Game_local.obj
 0001:0003d520       ?GetLocalPlayer@idGameLocal@@QBEPAVidPlayer@@XZ 1003e520 f   Game_local.obj
 0001:0003d570       ?InPlayerPVS@idGameLocal@@QBE_NPAVidEntity@@@Z 1003e570 f   Game_local.obj
 0001:0003d5c0       ?InPlayerConnectedArea@idGameLocal@@QBE_NPAVidEntity@@@Z 1003e5c0 f   Game_local.obj
 0001:0003d610       ?GetGravity@idGameLocal@@QBEABVidVec3@@XZ 1003e610 f   Game_local.obj
 0001:0003d620       ?Draw@idGameLocal@@UAE_NH@Z 1003e620 f   Game_local.obj
 0001:0003d660       ?HandleESC@idGameLocal@@UAE?AW4escReply_t@@PAPAVidUserInterface@@@Z 1003e660 f   Game_local.obj
 0001:0003d6f0       ?StartMenu@idGameLocal@@UAEPAVidUserInterface@@XZ 1003e6f0 f   Game_local.obj
 0001:0003d710       ?HandleGuiCommands@idGameLocal@@UAEPBDPBD@Z 1003e710 f   Game_local.obj
 0001:0003d730       ?CallFrameCommand@idGameLocal@@QAEXPAVidEntity@@PBVfunction_t@@@Z 1003e730 f   Game_local.obj
 0001:0003d760       ?SpawnEntityType@idGameLocal@@QAEPAVidEntity@@ABVidTypeInfo@@PBVidDict@@_N@Z 1003e760 f   Game_local.obj
 0001:0003d820       ?FindEntityDef@idGameLocal@@QBEPBVidDeclEntityDef@@PBD_N@Z 1003e820 f   Game_local.obj
 0001:0003d880       ?FindEntityDefDict@idGameLocal@@QBEPBVidDict@@PBD_N@Z 1003e880 f   Game_local.obj
 0001:0003d8e0       ?GameState@idGameLocal@@QBE?AW4gameState_t@@XZ 1003e8e0 f   Game_local.obj
 0001:0003d8f0       ?GetTraceEntity@idGameLocal@@QBEPAVidEntity@@ABUtrace_s@@@Z 1003e8f0 f   Game_local.obj
 0001:0003d930       ?GetCamera@idGameLocal@@QBEPAVidCamera@@XZ 1003e930 f   Game_local.obj
 0001:0003d940       ?LocationForPoint@idGameLocal@@QAEPAVidLocationEntity@@ABVidVec3@@@Z 1003e940 f   Game_local.obj
 0001:0003d9a0       ?sortSpawnPoints@idGameLocal@@CAHPBX0@Z 1003e9a0 f   Game_local.obj
 0001:0003d9f0       ?SetGlobalMaterial@idGameLocal@@QAEXPBVidMaterial@@@Z 1003e9f0 f   Game_local.obj
 0001:0003da00       ?GetGlobalMaterial@idGameLocal@@QAEPBVidMaterial@@XZ 1003ea00 f   Game_local.obj
 0001:0003da10       ?GetSpawnId@idGameLocal@@QBEHPBVidEntity@@@Z 1003ea10 f   Game_local.obj
 0001:0003da30       ?ThrottleUserInfo@idGameLocal@@UAEXXZ 1003ea30 f   Game_local.obj
 0001:0003da40       ?IsPortalSkyAcive@idGameLocal@@QAE_NXZ 1003ea40 f   Game_local.obj
 0001:0003da50       ?SelectTimeGroup@idGameLocal@@UAEXH@Z 1003ea50 f   Game_local.obj
 0001:0003dae0       ?GetTimeGroupTime@idGameLocal@@UAEHH@Z 1003eae0 f   Game_local.obj
 0001:0003db00       ?QuickSlowmoReset@idGameLocal@@QAEXXZ 1003eb00 f   Game_local.obj
 0001:0003db10       ?GetClientStats@idGameLocal@@UAEXHPADH@Z 1003eb10 f   Game_local.obj
 0001:0003db20       ?SwitchTeam@idGameLocal@@UAEXHH@Z 1003eb20 f   Game_local.obj
 0001:0003db70       ??0beamTarget_t@@QAE@XZ    1003eb70 f i Projectile.obj
 0001:0003db70       ??0?$idEntityPtr@VidEntity@@@@QAE@XZ 1003eb70 f i AFEntity.obj
 0001:0003db70       ??0?$idStaticList@UspawnSpot_t@@$0BAAA@@@QAE@XZ 1003eb70 f i Game_local.obj
 0001:0003db70       ??0?$idStaticList@PAVidEntity@@$0BAAA@@@QAE@XZ 1003eb70 f i Game_local.obj
 0001:0003db70       ??0idAttachInfo@@QAE@XZ    1003eb70 f i Actor.obj
 0001:0003db80       ??$idDeclAllocator@VidDeclModelDef@@@@YAPAVidDecl@@XZ 1003eb80 f i Game_local.obj
 0001:0003dbe0       ??$idListDecls_f@$04@@YAXABVidCmdArgs@@@Z 1003ebe0 f i Game_local.obj
 0001:0003dc00       ??$idPrintDecls_f@$04@@YAXABVidCmdArgs@@@Z 1003ec00 f i Game_local.obj
 0001:0003dc20       ??$ArgCompletion_Decl@$04@idCmdSystem@@SAXABVidCmdArgs@@P6AXPBD@Z@Z 1003ec20 f i Game_local.obj
 0001:0003dc40       ?Shutdown@?$idBlockAlloc@UentityNetEvent_s@@$0CA@@@QAEXXZ 1003ec40 f i Game_local.obj
 0001:0003dc90       ?Shutdown@?$idBlockAlloc@Usnapshot_s@@$0EA@@@QAEXXZ 1003ec90 f i Game_local.obj
 0001:0003dce0       ?Left@idStr@@QBE?AV1@H@Z   1003ece0 f i Game_local.obj
 0001:0003dd10       ?Argv@idCmdArgs@@QBEPBDH@Z 1003ed10 f i Game_local.obj
 0001:0003dd30       ?ArgCompletion_Boolean@idCmdSystem@@SAXABVidCmdArgs@@P6AXPBD@Z@Z 1003ed30 f i Game_local.obj
 0001:0003dd90       ?Restore@idLiquid@@QAEXPAVidRestoreGame@@@Z 1003ed90 f i Misc.obj
 0001:0003dd90       ?SetPushed@idPhysics_Base@@UAEXH@Z 1003ed90 f i Physics_Base.obj
 0001:0003dd90       ?ApplyFriction@idAFConstraint@@MAEXM@Z 1003ed90 f i Physics_AF.obj
 0001:0003dd90       ?UpdateTime@idPhysics_AF@@UAEXH@Z 1003ed90 f i Physics_AF.obj
 0001:0003dd90       ?SetPushed@idPhysics_Static@@UAEXH@Z 1003ed90 f i Physics_Static.obj
 0001:0003dd90       ?ApplyFriction@idAFConstraint_ContactFriction@@MAEXM@Z 1003ed90 f i Physics_AF.obj
 0001:0003dd90       ?AccumPass@FullscreenFX@@UAEXPBUrenderView_s@@@Z 1003ed90 f i PlayerView.obj
 0001:0003dd90       ?AddContactEntity@idPhysics_StaticMulti@@UAEXPAVidEntity@@@Z 1003ed90 f i Physics_StaticMulti.obj
 0001:0003dd90       ?Event_SetDecelSound@idMover@@AAEXPBD@Z 1003ed90 f i Mover.obj
 0001:0003dd90       ?Translate@idAFConstraint_Suspension@@UAEXABVidVec3@@@Z 1003ed90 f i Physics_AF.obj
 0001:0003dd90       ?InternalSetBool@idCVar@@EAEX_N@Z 1003ed90 f i Game_local.obj
 0001:0003dd90       ?ApplyFriction@idAFConstraint_Spring@@MAEXM@Z 1003ed90 f i Physics_AF.obj
 0001:0003dd90       ?UpdateTime@idPhysics_StaticMulti@@UAEXH@Z 1003ed90 f i Physics_StaticMulti.obj
 0001:0003dd90       ?Evaluate@idAFConstraint_UniversalJointFriction@@MAEXM@Z 1003ed90 f i Physics_AF.obj
 0001:0003dd90       ?UpdateTime@idPhysics_Base@@UAEXH@Z 1003ed90 f i Physics_Base.obj
 0001:0003dd90       ?Translate@idAFConstraint@@UAEXABVidVec3@@@Z 1003ed90 f i Physics_AF.obj
 0001:0003dd90       ?Restore@idPhysics@@QAEXPAVidRestoreGame@@@Z 1003ed90 f i Physics.obj
 0001:0003dd90       ?ApplyFriction@idAFConstraint_UniversalJointFriction@@MAEXM@Z 1003ed90 f i Physics_AF.obj
 0001:0003dd90       ?InternalSetFloat@idCVar@@EAEXM@Z 1003ed90 f i Game_local.obj
 0001:0003dd90       ?Evaluate@idForce@@UAEXH@Z 1003ed90 f i Force.obj
 0001:0003dd90       ?Rotate@idAFConstraint_BallAndSocketJointFriction@@UAEXABVidRotation@@@Z 1003ed90 f i Physics_AF.obj
 0001:0003dd90       ?Rotate@idAFConstraint_HingeSteering@@UAEXABVidRotation@@@Z 1003ed90 f i Physics_AF.obj
 0001:0003dd90       ?RemoveContactEntity@idPhysics_Static@@UAEXPAVidEntity@@@Z 1003ed90 f i Physics_Static.obj
 0001:0003dd90       ?UpdateTime@idPhysics_Player@@UAEXH@Z 1003ed90 f i Physics_Player.obj
 0001:0003dd90       ?SetPushed@idPhysics_StaticMulti@@UAEXH@Z 1003ed90 f i Physics_StaticMulti.obj
 0001:0003dd90       ?Evaluate@idAFConstraint_HingeFriction@@MAEXM@Z 1003ed90 f i Physics_AF.obj
 0001:0003dd90       ?ReadFromSnapshot@idPhysics_Base@@UAEXABVidBitMsgDelta@@@Z 1003ed90 f i Physics_Base.obj
 0001:0003dd90       ?WriteToSnapshot@idFuncShootProjectile@@UBEXAAVidBitMsg@@@Z 1003ed90 f i Misc.obj
 0001:0003dd90       ?Translate@idAFConstraint_HingeFriction@@UAEXABVidVec3@@@Z 1003ed90 f i Physics_AF.obj
 0001:0003dd90       ?Save@idWorldspawn@@QAEXPAVidRestoreGame@@@Z 1003ed90 f i WorldSpawn.obj
 0001:0003dd90       ?UpdateTime@idPhysics_RigidBody@@UAEXH@Z 1003ed90 f i Physics_RigidBody.obj
 0001:0003dd90       ?ApplyFriction@idAFConstraint_PyramidLimit@@MAEXM@Z 1003ed90 f i Physics_AF.obj
 0001:0003dd90       ?Translate@idAFConstraint_ContactFriction@@UAEXABVidVec3@@@Z 1003ed90 f i Physics_AF.obj
 0001:0003dd90       ?Event_SetMoveSound@idMover@@AAEXPBD@Z 1003ed90 f i Mover.obj
 0001:0003dd90       ?Translate@idAFConstraint_Contact@@UAEXABVidVec3@@@Z 1003ed90 f i Physics_AF.obj
 0001:0003dd90       ?ReadFromSnapshot@idFuncShootProjectile@@UAEXABVidBitMsg@@@Z 1003ed90 f i Misc.obj
 0001:0003dd90       ?Evaluate@idAFConstraint_ConeLimit@@MAEXM@Z 1003ed90 f i Physics_AF.obj
 0001:0003dd90       ?SetGravity@idPhysics_StaticMulti@@UAEXABVidVec3@@@Z 1003ed90 f i Physics_StaticMulti.obj
 0001:0003dd90       ?UpdateTime@idPhysics_Static@@UAEXH@Z 1003ed90 f i Physics_Static.obj
 0001:0003dd90       ?Rotate@idAFConstraint_Contact@@UAEXABVidRotation@@@Z 1003ed90 f i Physics_AF.obj
 0001:0003dd90       ?Save@idClass@@QBEXPAVidSaveGame@@@Z 1003ed90 f i Class.obj
 0001:0003dd90       ?Restore@idClass@@QAEXPAVidRestoreGame@@@Z 1003ed90 f i Class.obj
 0001:0003dd90       ?WriteToSnapshot@idPhysics_Base@@UBEXAAVidBitMsgDelta@@@Z 1003ed90 f i Physics_Base.obj
 0001:0003dd90       ?Rotate@idAFConstraint_HingeFriction@@UAEXABVidRotation@@@Z 1003ed90 f i Physics_AF.obj
 0001:0003dd90       ?Event_SetAccelSound@idMover@@AAEXPBD@Z 1003ed90 f i Mover.obj
 0001:0003dd90       ?Translate@idAFConstraint_BallAndSocketJointFriction@@UAEXABVidVec3@@@Z 1003ed90 f i Physics_AF.obj
 0001:0003dd90       ?ApplyFriction@idAFConstraint_Slider@@MAEXM@Z 1003ed90 f i Physics_AF.obj
 0001:0003dd90       ?Translate@idAFConstraint_UniversalJointFriction@@UAEXABVidVec3@@@Z 1003ed90 f i Physics_AF.obj
 0001:0003dd90       ?UpdateTime@idPhysics_Monster@@UAEXH@Z 1003ed90 f i Physics_Monster.obj
 0001:0003dd90       ?Save@idPhysics@@QBEXPAVidSaveGame@@@Z 1003ed90 f i Physics.obj
 0001:0003dd90       ?ApplyFriction@idAFConstraint_BallAndSocketJointFriction@@MAEXM@Z 1003ed90 f i Physics_AF.obj
 0001:0003dd90       ?AddContactEntity@idPhysics_Static@@UAEXPAVidEntity@@@Z 1003ed90 f i Physics_Static.obj
 0001:0003dd90       ?GetMapLoadingGUI@idGameLocal@@UAEXQAD@Z 1003ed90 f i Game_local.obj
 0001:0003dd90       ?RemoveContactEntity@idPhysics_StaticMulti@@UAEXPAVidEntity@@@Z 1003ed90 f i Physics_StaticMulti.obj
 0001:0003dd90       ?Translate@idAFConstraint_HingeSteering@@UAEXABVidVec3@@@Z 1003ed90 f i Physics_AF.obj
 0001:0003dd90       ?WriteToSnapshot@idEntity@@UBEXAAVidBitMsgDelta@@@Z 1003ed90 f i Entity.obj
 0001:0003dd90       ?InternalSetInteger@idCVar@@EAEXH@Z 1003ed90 f i Game_local.obj
 0001:0003dd90       ?ApplyFriction@idAFConstraint_HingeSteering@@MAEXM@Z 1003ed90 f i Physics_AF.obj
 0001:0003dd90       ?Rotate@idAFConstraint_Suspension@@UAEXABVidRotation@@@Z 1003ed90 f i Physics_AF.obj
 0001:0003dd90       ?ApplyFriction@idAFConstraint_Fixed@@MAEXM@Z 1003ed90 f i Physics_AF.obj
 0001:0003dd90       ?ReadFromSnapshot@idEntity@@UAEXABVidBitMsgDelta@@@Z 1003ed90 f i Entity.obj
 0001:0003dd90       ?Event_Assert@idThread@@AAEXM@Z 1003ed90 f i Script_Thread.obj
 0001:0003dd90       ?ApplyFriction@idAFConstraint_HingeFriction@@MAEXM@Z 1003ed90 f i Physics_AF.obj
 0001:0003dd90       ?Evaluate@idAFConstraint_BallAndSocketJointFriction@@MAEXM@Z 1003ed90 f i Physics_AF.obj
 0001:0003dd90       ?Evaluate@idAFConstraint_ContactFriction@@MAEXM@Z 1003ed90 f i Physics_AF.obj
 0001:0003dd90       ?SetGravity@idPhysics_Static@@UAEXABVidVec3@@@Z 1003ed90 f i Physics_Static.obj
 0001:0003dd90       ?Evaluate@idAFConstraint_HingeSteering@@MAEXM@Z 1003ed90 f i Physics_AF.obj
 0001:0003dd90       ?Save@idLiquid@@QBEXPAVidSaveGame@@@Z 1003ed90 f i Misc.obj
 0001:0003dd90       ?Save@idAFEntity_SteamPipe@@QBEXPAVidSaveGame@@@Z 1003ed90 f i AFEntity.obj
 0001:0003dd90       ?Evaluate@idAFConstraint@@MAEXM@Z 1003ed90 f i Physics_AF.obj
 0001:0003dd90       ?Rotate@idAFConstraint_UniversalJointFriction@@UAEXABVidRotation@@@Z 1003ed90 f i Physics_AF.obj
 0001:0003dd90       ?Evaluate@idAFConstraint_PyramidLimit@@MAEXM@Z 1003ed90 f i Physics_AF.obj
 0001:0003dd90       ?ApplyFriction@idAFConstraint_Suspension@@MAEXM@Z 1003ed90 f i Physics_AF.obj
 0001:0003dd90       ?RemovePhysics@idForce@@UAEXPBVidPhysics@@@Z 1003ed90 f i Force.obj
 0001:0003dd90       ?ApplyFriction@idAFConstraint_ConeLimit@@MAEXM@Z 1003ed90 f i Physics_AF.obj
 0001:0003dd90       ?Evaluate@idAFConstraint_Contact@@MAEXM@Z 1003ed90 f i Physics_AF.obj
 0001:0003dd90       ?InternalSetString@idCVar@@EAEXPBD@Z 1003ed90 f i Game_local.obj
 0001:0003dd90       ?Rotate@idAFConstraint@@UAEXABVidRotation@@@Z 1003ed90 f i Physics_AF.obj
 0001:0003dd90       ?Save@idTestModel@@QAEXPAVidSaveGame@@@Z 1003ed90 f i Anim_Testmodel.obj
 0001:0003dd90       ?Rotate@idAFConstraint_ContactFriction@@UAEXABVidRotation@@@Z 1003ed90 f i Physics_AF.obj
 0001:0003dda0       ??_EidCVar@@UAEPAXI@Z      1003eda0 f i Game_local.obj
 0001:0003dda0       ??_GidCVar@@UAEPAXI@Z      1003eda0 f i Game_local.obj
 0001:0003ddc0       ??1idDecl@@UAE@XZ          1003edc0 f i Game_local.obj
 0001:0003ddd0       ?SetDefaultText@idDecl@@UAE_NXZ 1003edd0 f i Game_local.obj
 0001:0003dde0       ?DefaultDefinition@idDecl@@UBEPBDXZ 1003ede0 f i Game_local.obj
 0001:0003ddf0       ?ReadFloat@idRestoreGame@@QAEXAAM@Z 1003edf0 f i SaveGame.obj
 0001:0003ddf0       ?Parse@idDecl@@UAE_NPBDH@Z 1003edf0 f i Game_local.obj
 0001:0003de00       ?FreeData@idDecl@@UAEXXZ   1003ee00 f i Game_local.obj
 0001:0003de10       ?Size@idDecl@@UBEIXZ       1003ee10 f i Game_local.obj
 0001:0003de20       ?List@idDecl@@UBEXXZ       1003ee20 f i Game_local.obj
 0001:0003de30       ?Print@idDecl@@UBEXXZ      1003ee30 f i Game_local.obj
 0001:0003de40       ??_EidDecl@@UAEPAXI@Z      1003ee40 f i Game_local.obj
 0001:0003de40       ??_GidDecl@@UAEPAXI@Z      1003ee40 f i Game_local.obj
 0001:0003de60       ??1idGame@@UAE@XZ          1003ee60 f i Game_local.obj
 0001:0003de70       ??_GidGame@@UAEPAXI@Z      1003ee70 f i Game_local.obj
 0001:0003de70       ??_EidGame@@UAEPAXI@Z      1003ee70 f i Game_local.obj
 0001:0003de90       ?DPrintf@idGameLocal@@QBAXPBDZZ 1003ee90 f   Game_local.obj
 0001:0003def0       ?DWarning@idGameLocal@@QBAXPBDZZ 1003eef0 f   Game_local.obj
 0001:0003df60       ?SetUserInfo@idGameLocal@@UAEPBVidDict@@HABV2@_N1@Z 1003ef60 f   Game_local.obj
 0001:0003e170       ?GetClientByName@idGameLocal@@QBEPAVidPlayer@@PBD@Z 1003f170 f   Game_local.obj
 0001:0003e210       ?GetClientByCmdArgs@idGameLocal@@QBEPAVidPlayer@@ABVidCmdArgs@@@Z 1003f210 f   Game_local.obj
 0001:0003e360       ?SetupPlayerPVS@idGameLocal@@AAEXXZ 1003f360 f   Game_local.obj
 0001:0003e800       ?UpdateGravity@idGameLocal@@AAEXXZ 1003f800 f   Game_local.obj
 0001:0003e8d0       ?RunTimeGroup2@idGameLocal@@QAEXXZ 1003f8d0 f   Game_local.obj
 0001:0003e9c0       ?CalcFov@idGameLocal@@QBEXMAAM0@Z 1003f9c0 f   Game_local.obj
 0001:0003ebd0       ?GetMapName@idGameLocal@@QBEPBDXZ 1003fbd0 f   Game_local.obj
 0001:0003ebe0       ?CallObjectFrameCommand@idGameLocal@@QAEXPAVidEntity@@PBD@Z 1003fbe0 f   Game_local.obj
 0001:0003ec60       ?ShowTargets@idGameLocal@@AAEXXZ 1003fc60 f   Game_local.obj
 0001:0003f6e0       ?NumAAS@idGameLocal@@QBEHXZ 100406e0 f   Game_local.obj
 0001:0003f6f0       ?GetAAS@idGameLocal@@QBEPAVidAAS@@H@Z 100406f0 f   Game_local.obj
 0001:0003f740       ?GetAAS@idGameLocal@@QBEPAVidAAS@@PBD@Z 10040740 f   Game_local.obj
 0001:0003f7c0       ?SetAASAreaState@idGameLocal@@QAEXABVidBounds@@H_N@Z 100407c0 f   Game_local.obj
 0001:0003f810       ?CheatsOk@idGameLocal@@QAE_N_N@Z 10040810 f   Game_local.obj
 0001:0003f890       ?UnregisterEntity@idGameLocal@@QAEXPAVidEntity@@@Z 10040890 f   Game_local.obj
 0001:0003f920       ?SpawnEntityDef@idGameLocal@@QAE_NABVidDict@@PAPAVidEntity@@_N@Z 10040920 f   Game_local.obj
 0001:0003fc10       ?InhibitEntitySpawn@idGameLocal@@AAE_NAAVidDict@@@Z 10040c10 f   Game_local.obj
 0001:0003fd80       ?ArgCompletion_EntityName@idGameLocal@@SAXABVidCmdArgs@@P6AXPBD@Z@Z 10040d80 f   Game_local.obj
 0001:0003fdd0       ?FindEntityUsingDef@idGameLocal@@QBEPAVidEntity@@PAV2@PBD@Z 10040dd0 f   Game_local.obj
 0001:0003fe40       ?FindTraceEntity@idGameLocal@@QBEPAVidEntity@@VidVec3@@0ABVidTypeInfo@@PBV2@@Z 10040e40 f   Game_local.obj
 0001:0003ffc0       ?EntitiesWithinRadius@idGameLocal@@QBEHVidVec3@@MPAPAVidEntity@@H@Z 10040fc0 f   Game_local.obj
 0001:000400e0       ?KillBox@idGameLocal@@QAEXPAVidEntity@@_N@Z 100410e0 f   Game_local.obj
 0001:00040250       ?RequirementMet@idGameLocal@@QAE_NPAVidEntity@@ABVidStr@@H@Z 10041250 f   Game_local.obj
 0001:000402b0       ?AlertAI@idGameLocal@@QAEXPAVidEntity@@@Z 100412b0 f   Game_local.obj
 0001:00040310       ?GetAlertEntity@idGameLocal@@QAEPAVidActor@@XZ 10041310 f   Game_local.obj
 0001:00040530       ?SetCamera@idGameLocal@@QAEXPAVidCamera@@@Z 10041530 f   Game_local.obj
 0001:00040840       ?SkipCinematic@idGameLocal@@QAE_NXZ 10041840 f   Game_local.obj
 0001:00040980       ?SpreadLocations@idGameLocal@@QAEXXZ 10041980 f   Game_local.obj
 0001:00040b50       ?SetPortalState@idGameLocal@@QAEXHH@Z 10041b50 f   Game_local.obj
 0001:00040bf0       ?RandomizeInitialSpawns@idGameLocal@@AAEXXZ 10041bf0 f   Game_local.obj
 0001:000410c0       ?SelectInitialSpawnPoint@idGameLocal@@QAEPAVidEntity@@PAVidPlayer@@@Z 100420c0 f   Game_local.obj
 0001:000416e0       ?UpdateServerInfoFlags@idGameLocal@@AAEXXZ 100426e0 f   Game_local.obj
 0001:000418f0       ?SetPortalSkyEnt@idGameLocal@@QAEXPAVidEntity@@@Z 100428f0 f   Game_local.obj
 0001:00041920       ?GetBestGameType@idGameLocal@@UAEXPBD0QAD@Z 10042920 f   Game_local.obj
 0001:00041970       ?ComputeSlowMsec@idGameLocal@@QAEXXZ 10042970 f   Game_local.obj
 0001:00041be0       ??1?$idBlockAlloc@Usnapshot_s@@$0EA@@@QAE@XZ 10042be0 f i Game_local.obj
 0001:00041bf0       ??$idDeclAllocator@VidDecl@@@@YAPAVidDecl@@XZ 10042bf0 f i Game_local.obj
 0001:00041c10       ??H@YA?AVidStr@@ABV0@PBD@Z 10042c10 f i Game_local.obj
 0001:00041d00       ??1idMultiplayerGame@@QAE@XZ 10042d00 f i Game_local.obj
 0001:00041d80       ??1idEventQueue@@QAE@XZ    10042d80 f i Game_local.obj
 0001:00041d90       ??_F?$idList@H@@QAEXXZ     10042d90 f i Game_local.obj
 0001:00041d90       ??_F?$idList@Usignal_t@@@@QAEXXZ 10042d90 f i Entity.obj
 0001:00041db0       ?Clear@idGameLocal@@AAEXXZ 10042db0 f   Game_local.obj
 0001:000421c0       ?SaveGame@idGameLocal@@UAEXPAVidFile@@@Z 100431c0 f   Game_local.obj
 0001:00042900       ?SetServerInfo@idGameLocal@@UAEXABVidDict@@@Z 10043900 f   Game_local.obj
 0001:00042990       ?SortActiveEntityList@idGameLocal@@AAEXXZ 10043990 f   Game_local.obj
 0001:00042c40       ?RunDebugInfo@idGameLocal@@AAEXXZ 10043c40 f   Game_local.obj
 0001:000436c0       ?RegisterEntity@idGameLocal@@QAEXPAVidEntity@@@Z 100446c0 f   Game_local.obj
 0001:000437f0       ?RemoveEntityFromHash@idGameLocal@@QAE_NPBDPAVidEntity@@@Z 100447f0 f   Game_local.obj
 0001:00043910       ?FindEntity@idGameLocal@@QBEPAVidEntity@@PBD@Z 10044910 f   Game_local.obj
 0001:000439b0       ?RadiusPushClipModel@idGameLocal@@QAEXABVidVec3@@MPBVidClipModel@@@Z 100449b0 f   Game_local.obj
 0001:00043be0       ??1idMapEntity@@QAE@XZ     10044be0 f i Game_local.obj
 0001:00043cc0       ?Init@idGameLocal@@UAEXXZ  10044cc0 f   Game_local.obj
 0001:00044560       ?NextMap@idGameLocal@@QAE_NXZ 10045560 f   Game_local.obj
 0001:00044930       ?DumpOggSounds@idGameLocal@@AAEXXZ 10045930 f   Game_local.obj
 0001:00045930       ?GetShakeSounds@idGameLocal@@AAEXPBVidDict@@@Z 10046930 f   Game_local.obj
 0001:00045d80       ?CacheDictionaryMedia@idGameLocal@@UAEXPBVidDict@@@Z 10046d80 f   Game_local.obj
 0001:00046430       ?SpawnPlayer@idGameLocal@@UAEXH@Z 10047430 f   Game_local.obj
 0001:000466f0       ?RunFrame@idGameLocal@@UAE?AUgameReturn_t@@PBVusercmd_t@@@Z 100476f0 f   Game_local.obj
 0001:00046ff0       ?SpawnMapEntities@idGameLocal@@AAEXXZ 10047ff0 f   Game_local.obj
 0001:000472e0       ?AddEntityToHash@idGameLocal@@QAEXPBDPAVidEntity@@@Z 100482e0 f   Game_local.obj
 0001:000473b0       ?GetTargets@idGameLocal@@QBEHABVidDict@@AAV?$idList@V?$idEntityPtr@VidEntity@@@@@@PBD@Z 100483b0 f   Game_local.obj
 0001:00047620       ?RadiusPush@idGameLocal@@QAEXABVidVec3@@MMPBVidEntity@@1M_N@Z 10048620 f   Game_local.obj
 0001:00047900       ?ProjectDecal@idGameLocal@@QAEXABVidVec3@@0M_NMPBDM@Z 10048900 f   Game_local.obj
 0001:00048450       ?BloodSplat@idGameLocal@@QAEXABVidVec3@@0MPBD@Z 10049450 f   Game_local.obj
 0001:000486a0       ?NeedRestart@idGameLocal@@QAE_NXZ 100496a0 f   Game_local.obj
 0001:00048920       ?MapPopulate@idGameLocal@@AAEXXZ 10049920 f   Game_local.obj
 0001:00048980       ?RadiusDamage@idGameLocal@@QAEXABVidVec3@@PAVidEntity@@111PBDM@Z 10049980 f   Game_local.obj
 0001:00048fc0       ??1idMapFile@@QAE@XZ       10049fc0 f i Game_local.obj
 0001:00049070       ?LoadMap@idGameLocal@@QAEXPBDH@Z 1004a070 f   Game_local.obj
 0001:00049710       ?InitFromNewMap@idGameLocal@@UAEXPBDPAVidRenderWorld@@PAVidSoundWorld@@_N3H@Z 1004a710 f   Game_local.obj
 0001:000497e0       ?InitFromSaveGame@idGameLocal@@UAE_NPBDPAVidRenderWorld@@PAVidSoundWorld@@PAVidFile@@@Z 1004a7e0 f   Game_local.obj
 0001:0004a220       ?GetLevelMap@idGameLocal@@QAEPAVidMapFile@@XZ 1004b220 f   Game_local.obj
 0001:0004a3c0       ?Shutdown@?$idBlockAlloc@UentityState_s@@$0BAA@@@QAEXXZ 1004b3c0 f i Game_local.obj
 0001:0004a420       ?Shutdown@idGameLocal@@UAEXXZ 1004b420 f   Game_local.obj
 0001:0004a5e0       ??1?$idBlockAlloc@UentityState_s@@$0BAA@@@QAE@XZ 1004b5e0 f i Game_local.obj
 0001:0004a5f0       ??1idGameLocal@@UAE@XZ     1004b5f0 f i Game_local.obj
 0001:0004a990       ??0idGameLocal@@QAE@XZ     1004b990 f   Game_local.obj
 0001:0004aff0       ??_EidGameLocal@@UAEPAXI@Z 1004bff0 f i Game_local.obj
 0001:0004aff0       ??_GidGameLocal@@UAEPAXI@Z 1004bff0 f i Game_local.obj
 0001:0004b010       ?MapClear@idGameLocal@@AAEX_N@Z 1004c010 f   Game_local.obj
 0001:0004b210       ?MapShutdown@idGameLocal@@UAEXXZ 1004c210 f   Game_local.obj
 0001:0004b300       ?LocalMapRestart@idGameLocal@@QAEXXZ 1004c300 f   Game_local.obj
 0001:0004b490       ?MapRestart@idGameLocal@@QAEXXZ 1004c490 f   Game_local.obj
 0001:0004b830       ?MapRestart_f@idGameLocal@@SAXABVidCmdArgs@@@Z 1004c830 f   Game_local.obj
 0001:0004b880       ?NextMap_f@idGameLocal@@SAXABVidCmdArgs@@@Z 1004c880 f   Game_local.obj
 0001:0004b8c0       ?ServerClientConnect@idGameLocal@@UAEXHPBD@Z 1004c8c0 f   Game_network.obj
 0001:0004b930       ?NetworkEventWarning@idGameLocal@@AAAXPBUentityNetEvent_s@@PBDZZ 1004c930 f   Game_network.obj
 0001:0004b9b0       ?Init@idEventQueue@@QAEXXZ 1004c9b0 f   Game_network.obj
 0001:0004b9c0       ?Alloc@?$idBlockAlloc@UentityNetEvent_s@@$0CA@@@QAEPAUentityNetEvent_s@@XZ 1004c9c0 f i Game_network.obj
 0001:0004ba40       ?Alloc@?$idBlockAlloc@Usnapshot_s@@$0EA@@@QAEPAUsnapshot_s@@XZ 1004ca40 f i Game_network.obj
 0001:0004bac0       ?InitAsyncNetwork@idGameLocal@@AAEXXZ 1004cac0 f   Game_network.obj
 0001:0004bbf0       ?ClientRemapDecl@idGameLocal@@QAEHW4declType_t@@H@Z 1004cbf0 f   Game_network.obj
 0001:0004bca0       ?ServerAllowClient@idGameLocal@@UAE?AW4allowReply_t@@HPBD00QAD@Z 1004cca0 f   Game_network.obj
 0001:0004be20       ?ServerWriteInitialReliableMessages@idGameLocal@@UAEXH@Z 1004ce20 f   Game_network.obj
 0001:0004c040       ?FreeSnapshotsOlderThanSequence@idGameLocal@@AAEXHH@Z 1004d040 f   Game_network.obj
 0001:0004c0f0       ?ApplySnapshot@idGameLocal@@AAE_NHH@Z 1004d0f0 f   Game_network.obj
 0001:0004c1f0       ?ClientApplySnapshot@idGameLocal@@UAE_NHH@Z 1004d1f0 f   Game_network.obj
 0001:0004c1f0       ?ServerApplySnapshot@idGameLocal@@UAE_NHH@Z 1004d1f0 f   Game_network.obj
 0001:0004c200       ?ServerSendChatMessage@idGameLocal@@QAEXHPBD0@Z 1004d200 f   Game_network.obj
 0001:0004c2c0       ?ClientShowSnapshot@idGameLocal@@ABEXH@Z 1004d2c0 f   Game_network.obj
 0001:0004c570       ?UpdateLagometer@idGameLocal@@AAEXHH@Z 1004d570 f   Game_network.obj
 0001:0004c6d0       ?ClientPrediction@idGameLocal@@UAE?AUgameReturn_t@@HPBVusercmd_t@@_N@Z 1004d6d0 f   Game_network.obj
 0001:0004c890       ?Alloc@idEventQueue@@QAEPAUentityNetEvent_s@@XZ 1004d890 f   Game_network.obj
 0001:0004c8b0       ?Shutdown@idEventQueue@@QAEXXZ 1004d8b0 f   Game_network.obj
 0001:0004c8d0       ?Enqueue@idEventQueue@@QAEXPAUentityNetEvent_s@@W4outOfOrderBehaviour_t@1@@Z 1004d8d0 f   Game_network.obj
 0001:0004c9f0       ??$ArgCompletion_Integer@$0A@$02@idCmdSystem@@SAXABVidCmdArgs@@P6AXPBD@Z@Z 1004d9f0 f i Game_network.obj
 0001:0004ca30       ?InitClientDeclRemap@idGameLocal@@AAEXH@Z 1004da30 f   Game_network.obj
 0001:0004cc10       ?ServerSendDeclRemapToClient@idGameLocal@@AAEXHW4declType_t@@H@Z 1004dc10 f   Game_network.obj
 0001:0004ce70       ?ServerRemapDecl@idGameLocal@@QAEHHW4declType_t@@H@Z 1004de70 f   Game_network.obj
 0001:0004ced0       ?ServerClientBegin@idGameLocal@@UAEXH@Z 1004ded0 f   Game_network.obj
 0001:0004cfd0       ?ServerClientDisconnect@idGameLocal@@UAEXH@Z 1004dfd0 f   Game_network.obj
 0001:0004d0f0       ?SaveEntityNetworkEvent@idGameLocal@@QAEXPBVidEntity@@HPBVidBitMsg@@@Z 1004e0f0 f   Game_network.obj
 0001:0004d1a0       ?ServerProcessEntityNetworkEventQueue@idGameLocal@@AAEXXZ 1004e1a0 f   Game_network.obj
 0001:0004d2b0       ?ServerProcessReliableMessage@idGameLocal@@UAEXHABVidBitMsg@@@Z 1004e2b0 f   Game_network.obj
 0001:0004d530       ?ClientProcessEntityNetworkEventQueue@idGameLocal@@AAEXXZ 1004e530 f   Game_network.obj
 0001:0004d650       ??0element_s@?$idBlockAlloc@UentityState_s@@$0BAA@@@QAE@XZ 1004e650 f i Game_network.obj
 0001:0004d660       ?ClientProcessReliableMessage@idGameLocal@@UAEXHABVidBitMsg@@@Z 1004e660 f   Game_network.obj
 0001:0004e0d0       ?Tokenize@idGameLocal@@QAEXAAV?$idList@VidStr@@@@PBD@Z 1004f0d0 f   Game_network.obj
 0001:0004e480       ?DownloadRequest@idGameLocal@@UAE_NPBD00QAD@Z 1004f480 f   Game_network.obj
 0001:0004e8a0       ?Alloc@?$idBlockAlloc@UentityState_s@@$0BAA@@@QAEPAUentityState_s@@XZ 1004f8a0 f i Game_network.obj
 0001:0004e980       ?ServerWriteSnapshot@idGameLocal@@UAEXHHAAVidBitMsg@@PAEH@Z 1004f980 f   Game_network.obj
 0001:0004eea0       ?ClientReadSnapshot@idGameLocal@@UAEXHHHHHHABVidBitMsg@@@Z 1004fea0 f   Game_network.obj
 0001:0004fb40       ?ShutdownAsyncNetwork@idGameLocal@@AAEXXZ 10050b40 f   Game_network.obj
 0001:0004fbd0       ?GetType@idGrabber@@UBEPAVidTypeInfo@@XZ 10050bd0 f   Grabber.obj
 0001:0004fbe0       ?SetDragDistance@idGrabber@@QAEXM@Z 10050be0 f   Grabber.obj
 0001:0004fbf0       ?grabbableAI@idGrabber@@AAE_NPBD@Z 10050bf0 f   Grabber.obj
 0001:0004fc70       ??0idGrabber@@QAE@XZ       10050c70 f   Grabber.obj
 0001:0004fd20       ?Save@idGrabber@@QBEXPAVidSaveGame@@@Z 10050d20 f   Grabber.obj
 0001:0004fe30       ?StopDrag@idGrabber@@AAEX_N@Z 10050e30 f   Grabber.obj
 0001:000502f0       ?UpdateBeams@idGrabber@@AAEXXZ 100512f0 f   Grabber.obj
 0001:000504d0       ?ApplyShake@idGrabber@@AAEXXZ 100514d0 f   Grabber.obj
 0001:00050650       ?CreateInstance@idGrabber@@SAPAVidClass@@XZ 10051650 f   Grabber.obj
 0001:00050770       ??1idGrabber@@UAE@XZ       10051770 f   Grabber.obj
 0001:00050800       ?StartDrag@idGrabber@@AAEXPAVidEntity@@H@Z 10051800 f   Grabber.obj
 0001:00050d00       ??_GidGrabber@@UAEPAXI@Z   10051d00 f i Grabber.obj
 0001:00050d00       ??_EidGrabber@@UAEPAXI@Z   10051d00 f i Grabber.obj
 0001:00050d20       ?Initialize@idGrabber@@QAEXXZ 10051d20 f   Grabber.obj
 0001:00050ff0       ?Update@idGrabber@@QAEHPAVidPlayer@@_N@Z 10051ff0 f   Grabber.obj
 0001:00051c00       ?Restore@idGrabber@@QAEXPAVidRestoreGame@@@Z 10052c00 f   Grabber.obj
 0001:00051d80       ??1idIK@@UAE@XZ            10052d80 f   IK.obj
 0001:00051d90       ?Save@idIK@@QBEXPAVidSaveGame@@@Z 10052d90 f   IK.obj
 0001:00051e10       ?PutToRest@idPhysics_Static@@UAEXXZ 10052e10 f   Physics_Static.obj
 0001:00051e10       ??1?$idStaticList@UspawnSpot_t@@$0BAAA@@@QAE@XZ 10052e10 f   Game_local.obj
 0001:00051e10       ?DebugDraw@idAFConstraint@@UAEXXZ 10052e10 f   Physics_AF.obj
 0001:00051e10       ?Spawn@idCursor3D@@QAEXXZ  10052e10 f   GameEdit.obj
 0001:00051e10       ?Spawn@idFuncShootProjectile@@QAEXXZ 10052e10 f   Misc.obj
 0001:00051e10       ?Spawn@idSpawnableEntity@@QAEXXZ 10052e10 f   Misc.obj
 0001:00051e10       ?PostBind@idEntity@@UAEXXZ 10052e10 f   Entity.obj
 0001:00051e10       ?DormantEnd@idEntity@@UAEXXZ 10052e10 f   Entity.obj
 0001:00051e10       ?Spawn@idGuidedProjectile@@QAEXXZ 10052e10 f   Projectile.obj
 0001:00051e10       ?Activate@idPhysics_Static@@UAEXXZ 10052e10 f   Physics_Static.obj
 0001:00051e10       ?SaveState@idPhysics_StaticMulti@@UAEXXZ 10052e10 f   Physics_StaticMulti.obj
 0001:00051e10       ?SaveState@idPhysics_Static@@UAEXXZ 10052e10 f   Physics_Static.obj
 0001:00051e10       ?Think@idWeapon@@UAEXXZ    10052e10 f   Weapon.obj
 0001:00051e10       ?ShowEditingDialog@idEntity@@UAEXXZ 10052e10 f   Entity.obj
 0001:00051e10       ?Spawn@idItemRemover@@QAEXXZ 10052e10 f   Item.obj
 0001:00051e10       ?Spawn@idPathCorner@@QAEXXZ 10052e10 f   Misc.obj
 0001:00051e10       ?FreeLightDef@idEntity@@UAEXXZ 10052e10 f   Entity.obj
 0001:00051e10       ?LinkClip@idPhysics_Base@@UAEXXZ 10052e10 f   Physics_Base.obj
 0001:00051e10       ?EnableClip@idPhysics_Base@@UAEXXZ 10052e10 f   Physics_Base.obj
 0001:00051e10       ?LowQuality@FullscreenFX@@UAEXXZ 10052e10 f   PlayerView.obj
 0001:00051e10       ?Spawn@idTarget_Tip@@QAEXXZ 10052e10 f   Target.obj
 0001:00051e10       ?Spawn@idClass@@QAEXXZ     10052e10 f   Class.obj
 0001:00051e10       ?Spawn@idFuncSplat@@QAEXXZ 10052e10 f   Misc.obj
 0001:00051e10       ?Spawn@idSplinePath@@QAEXXZ 10052e10 f   Mover.obj
 0001:00051e10       ?DebugDraw@idAFConstraint_ContactFriction@@UAEXXZ 10052e10 f   Physics_AF.obj
 0001:00051e10       ??1element_s@?$idBlockAlloc@UentityState_s@@$0BAA@@@QAE@XZ 10052e10 f   Game_local.obj
 0001:00051e10       ?SaveState@idPhysics_Base@@UAEXXZ 10052e10 f   Physics_Base.obj
 0001:00051e10       ??1?$idStaticList@PAVidEntity@@$0BAAA@@@QAE@XZ 10052e10 f   Game_local.obj
 0001:00051e10       ?Activate@idPhysics_Base@@UAEXXZ 10052e10 f   Physics_Base.obj
 0001:00051e10       ?Event_DropToFloor@idMoveableItem@@IAEXXZ 10052e10 f   Item.obj
 0001:00051e10       ?ClearContacts@idPhysics_StaticMulti@@UAEXXZ 10052e10 f   Physics_StaticMulti.obj
 0001:00051e10       ?PutToRest@idPhysics_Base@@UAEXXZ 10052e10 f   Physics_Base.obj
 0001:00051e10       ?Mem_EnableLeakTest@@YAXPBD@Z 10052e10 f   idLib:Heap.obj
 0001:00051e10       ?PreUnbind@idEntity@@UAEXXZ 10052e10 f   Entity.obj
 0001:00051e10       ?DisableClip@idPhysics_Base@@UAEXXZ 10052e10 f   Physics_Base.obj
 0001:00051e10       ?PutToRest@idPhysics_StaticMulti@@UAEXXZ 10052e10 f   Physics_StaticMulti.obj
 0001:00051e10       ?Spawn@idCamera@@QAEXXZ    10052e10 f   Camera.obj
 0001:00051e10       ?RestoreState@idPhysics_StaticMulti@@UAEXXZ 10052e10 f   Physics_StaticMulti.obj
 0001:00051e10       ?RevBitFieldNoSwap@@YAXPAXH@Z 10052e10 f   idLib:Lib.obj
 0001:00051e10       ?Spawn@idHomingProjectile@@QAEXXZ 10052e10 f   Projectile.obj
 0001:00051e10       ?FindUninitializedMemory@idClass@@QAEXXZ 10052e10 f   Class.obj
 0001:00051e10       ?RestoreState@idPhysics_Base@@UAEXXZ 10052e10 f   Physics_Base.obj
 0001:00051e10       ?Activate@idPhysics_StaticMulti@@UAEXXZ 10052e10 f   Physics_StaticMulti.obj
 0001:00051e10       ?Spawn@idLiquid@@QAEXXZ    10052e10 f   Misc.obj
 0001:00051e10       ?UnlinkClip@idPhysics_Base@@UAEXXZ 10052e10 f   Physics_Base.obj
 0001:00051e10       ?RevBytesNoSwap@@YAXPAXHH@Z 10052e10 f   idLib:Lib.obj
 0001:00051e10       ?PostUnbind@idEntity@@UAEXXZ 10052e10 f   Entity.obj
 0001:00051e10       ?PreBind@idEntity@@UAEXXZ  10052e10 f   Entity.obj
 0001:00051e10       ?Spawn@idTarget_GiveEmail@@QAEXXZ 10052e10 f   Target.obj
 0001:00051e10       ?Event_Gibbed@idPlayer@@AAEXXZ 10052e10 f   Player.obj
 0001:00051e10       ?DormantBegin@idEntity@@UAEXXZ 10052e10 f   Entity.obj
 0001:00051e10       ?Spawn@idVideoCDItem@@QAEXXZ 10052e10 f   Item.obj
 0001:00051e10       ?Evaluate@idIK@@UAEXXZ     10052e10 f   IK.obj
 0001:00051e10       ?Initialize@FullscreenFX_InfluenceVision@@UAEXXZ 10052e10 f   PlayerView.obj
 0001:00051e10       ?ClearContacts@idPhysics_Static@@UAEXXZ 10052e10 f   Physics_Static.obj
 0001:00051e10       ?RestoreState@idPhysics_Static@@UAEXXZ 10052e10 f   Physics_Static.obj
 0001:00051e20       ?ClearJointMods@idIK@@UAEXXZ 10052e20 f   IK.obj
 0001:00051e30       ?Save@idIK_Walk@@QBEXPAVidSaveGame@@@Z 10052e30 f   IK.obj
 0001:000520f0       ?ClearJointMods@idIK_Walk@@UAEXXZ 100530f0 f   IK.obj
 0001:00052190       ?EnableAll@idIK_Walk@@QAEXXZ 10053190 f   IK.obj
 0001:000521b0       ?DisableAll@idIK_Walk@@QAEXXZ 100531b0 f   IK.obj
 0001:000521c0       ?EnableLeg@idIK_Walk@@QAEXH@Z 100531c0 f   IK.obj
 0001:000521e0       ?DisableLeg@idIK_Walk@@QAEXH@Z 100531e0 f   IK.obj
 0001:00052200       ??_EidIK@@UAEPAXI@Z        10053200 f i IK.obj
 0001:00052200       ??_GidIK@@UAEPAXI@Z        10053200 f i IK.obj
 0001:00052220       ?Restore@idIK@@QAEXPAVidRestoreGame@@@Z 10053220 f   IK.obj
 0001:00052370       ?IsInitialized@idIK@@QBE_NXZ 10053370 f   IK.obj
 0001:00052390       ?Init@idIK@@UAE_NPAVidEntity@@PBDABVidVec3@@@Z 10053390 f   IK.obj
 0001:000524d0       ?SolveTwoBones@idIK@@QAE_NABVidVec3@@00MMAAV2@@Z 100534d0 f   IK.obj
 0001:000528c0       ?GetBoneAxis@idIK@@QAEMABVidVec3@@00AAVidMat3@@@Z 100538c0 f   IK.obj
 0001:00052b10       ??1idIK_Walk@@UAE@XZ       10053b10 f   IK.obj
 0001:00052b70       ?Restore@idIK_Walk@@QAEXPAVidRestoreGame@@@Z 10053b70 f   IK.obj
 0001:00052e00       ??0idIK_Walk@@QAE@XZ       10053e00 f   IK.obj
 0001:00053050       ??_EidIK_Walk@@UAEPAXI@Z   10054050 f i IK.obj
 0001:00053050       ??_GidIK_Walk@@UAEPAXI@Z   10054050 f i IK.obj
 0001:000530d0       ?Init@idIK_Walk@@UAE_NPAVidEntity@@PBDABVidVec3@@@Z 100540d0 f   IK.obj
 0001:00053d30       ?Evaluate@idIK_Walk@@UAEXXZ 10054d30 f   IK.obj
 0001:00055b20       ?GetType@idItem@@UBEPAVidTypeInfo@@XZ 10056b20 f   Item.obj
 0001:00055b30       ??1idItem@@UAE@XZ          10056b30 f   Item.obj
 0001:00055ba0       ?Save@idItem@@QBEXPAVidSaveGame@@@Z 10056ba0 f   Item.obj
 0001:00055c30       ?Restore@idItem@@QAEXPAVidRestoreGame@@@Z 10056c30 f   Item.obj
 0001:00055cd0       ?ClientPredictionThink@idItem@@UAEXXZ 10056cd0 f   Item.obj
 0001:00055cd0       ?ClientPredictionThink@idBrittleFracture@@UAEXXZ 10056cd0 f   BrittleFracture.obj
 0001:00055cf0       ?WriteToSnapshot@idItem@@UBEXAAVidBitMsgDelta@@@Z 10056cf0 f   Item.obj
 0001:00055d10       ?ReadFromSnapshot@idItem@@UAEXABVidBitMsgDelta@@@Z 10056d10 f   Item.obj
 0001:00055d40       ?Event_Touch@idItem@@AAEXPAVidEntity@@PAUtrace_s@@@Z 10056d40 f   Item.obj
 0001:00055d80       ?Event_Respawn@idItem@@AAEXXZ 10056d80 f   Item.obj
 0001:00055e10       ?GetType@idItemPowerup@@UBEPAVidTypeInfo@@XZ 10056e10 f   Item.obj
 0001:00055e20       ?Save@idItemPowerup@@QBEXPAVidSaveGame@@@Z 10056e20 f   Item.obj
 0001:00055e50       ?Restore@idItemPowerup@@QAEXPAVidRestoreGame@@@Z 10056e50 f   Item.obj
 0001:00055e80       ?GiveToPlayer@idItemPowerup@@UAE_NPAVidPlayer@@@Z 10056e80 f   Item.obj
 0001:00055ec0       ?GetType@idItemTeam@@UBEPAVidTypeInfo@@XZ 10056ec0 f   Item.obj
 0001:00055ed0       ?PrivateReturn@idItemTeam@@AAEXXZ 10056ed0 f   Item.obj
 0001:00055ff0       ?FreeLightDef@idItemTeam@@UAEXXZ 10056ff0 f   Item.obj
 0001:00056020       ?UpdateGuis@idItemTeam@@AAEXXZ 10057020 f   Item.obj
 0001:00056100       ?GetType@idObjective@@UBEPAVidTypeInfo@@XZ 10057100 f   Item.obj
 0001:00056110       ?Save@idObjective@@QBEXPAVidSaveGame@@@Z 10057110 f   Item.obj
 0001:00056130       ?Restore@idObjective@@QAEXPAVidRestoreGame@@@Z 10057130 f   Item.obj
 0001:00056150       ?Spawn@idObjective@@QAEXXZ 10057150 f   Item.obj
 0001:00056190       ?Event_GetPlayerPos@idObjective@@AAEXXZ 10057190 f   Item.obj
 0001:00056200       ?Event_HideObjective@idObjective@@AAEXPAVidEntity@@@Z 10057200 f   Item.obj
 0001:00056340       ?GetType@idVideoCDItem@@UBEPAVidTypeInfo@@XZ 10057340 f   Item.obj
 0001:00056350       ?GetType@idPDAItem@@UBEPAVidTypeInfo@@XZ 10057350 f   Item.obj
 0001:00056360       ?GetType@idMoveableItem@@UBEPAVidTypeInfo@@XZ 10057360 f   Item.obj
 0001:00056370       ?Save@idMoveableItem@@QBEXPAVidSaveGame@@@Z 10057370 f   Item.obj
 0001:000563d0       ?Restore@idMoveableItem@@QAEXPAVidRestoreGame@@@Z 100573d0 f   Item.obj
 0001:00056430       ?Think@idMoveableItem@@UAEXXZ 10057430 f   Item.obj
 0001:00056550       ?Collide@idMoveableItem@@UAE_NABUtrace_s@@ABVidVec3@@@Z 10057550 f   Item.obj
 0001:000566a0       ?WriteToSnapshot@idMoveableItem@@UBEXAAVidBitMsgDelta@@@Z 100576a0 f   Item.obj
 0001:000566c0       ?GetType@idMoveablePDAItem@@UBEPAVidTypeInfo@@XZ 100576c0 f   Item.obj
 0001:000566d0       ?GetType@idItemRemover@@UBEPAVidTypeInfo@@XZ 100576d0 f   Item.obj
 0001:000566e0       ?GetType@idObjectiveComplete@@UBEPAVidTypeInfo@@XZ 100576e0 f   Item.obj
 0001:000566f0       ?Save@idTarget_Tip@@QBEXPAVidSaveGame@@@Z 100576f0 f   Target.obj
 0001:000566f0       ?Save@idObjectiveComplete@@QBEXPAVidSaveGame@@@Z 100576f0 f   Item.obj
 0001:00056710       ?Restore@idObjectiveComplete@@QAEXPAVidRestoreGame@@@Z 10057710 f   Item.obj
 0001:00056710       ?Restore@idTarget_Tip@@QAEXPAVidRestoreGame@@@Z 10057710 f   Target.obj
 0001:00056730       ?Event_GetPlayerPos@idObjectiveComplete@@AAEXXZ 10057730 f   Item.obj
 0001:000567a0       ?Event_HideObjective@idObjectiveComplete@@AAEXPAVidEntity@@@Z 100577a0 f   Item.obj
 0001:00056900       ??0idItem@@QAE@XZ          10057900 f   Item.obj
 0001:00056970       ?UpdateRenderEntity@idItem@@ABE_NPAUrenderEntity_s@@PBUrenderView_s@@@Z 10057970 f   Item.obj
 0001:00056c00       ?ModelCallback@idItem@@CA_NPAUrenderEntity_s@@PBUrenderView_s@@@Z 10057c00 f   Item.obj
 0001:00056c40       ?Think@idItem@@UAEXXZ      10057c40 f   Item.obj
 0001:00056d20       ?Spawn@idItem@@QAEXXZ      10057d20 f   Item.obj
 0001:000570c0       ?GiveToPlayer@idItem@@UAE_NPAVidPlayer@@@Z 100580c0 f   Item.obj
 0001:00057120       ?Pickup@idItem@@UAE_NPAVidPlayer@@@Z 10058120 f   Item.obj
 0001:00057360       ?Event_Trigger@idItem@@AAEXPAVidEntity@@@Z 10058360 f   Item.obj
 0001:000573e0       ?Event_RespawnFx@idItem@@AAEXXZ 100583e0 f   Item.obj
 0001:00057430       ?Spawn@idItemPowerup@@QAEXXZ 10058430 f   Item.obj
 0001:000574b0       ?LoadScript@idItemTeam@@AAEPAVfunction_t@@PAD@Z 100584b0 f   Item.obj
 0001:00057590       ?Pickup@idItemTeam@@UAE_NPAVidPlayer@@@Z 10058590 f   Item.obj
 0001:00057690       ?Event_TakeFlag@idItemTeam@@AAEXPAVidPlayer@@@Z 10058690 f   Item.obj
 0001:000578f0       ?Event_DropFlag@idItemTeam@@AAEX_N@Z 100588f0 f   Item.obj
 0001:00057c10       ?Event_FlagReturn@idItemTeam@@AAEXPAVidPlayer@@@Z 10058c10 f   Item.obj
 0001:00057d80       ?Event_FlagCapture@idItemTeam@@AAEXXZ 10058d80 f   Item.obj
 0001:00057f20       ?WriteToSnapshot@idItemTeam@@UBEXAAVidBitMsgDelta@@@Z 10058f20 f   Item.obj
 0001:00057f70       ?Present@idItemTeam@@UAEXXZ 10058f70 f   Item.obj
 0001:00057fd0       ??_EidObjective@@UAEPAXI@Z 10058fd0 f i Item.obj
 0001:00057fd0       ??_GidItemPowerup@@UAEPAXI@Z 10058fd0 f i Item.obj
 0001:00057fd0       ??_EidPDAItem@@UAEPAXI@Z   10058fd0 f i Item.obj
 0001:00057fd0       ??_GidVideoCDItem@@UAEPAXI@Z 10058fd0 f i Item.obj
 0001:00057fd0       ??_GidPDAItem@@UAEPAXI@Z   10058fd0 f i Item.obj
 0001:00057fd0       ??_EidItemPowerup@@UAEPAXI@Z 10058fd0 f i Item.obj
 0001:00057fd0       ??_GidObjective@@UAEPAXI@Z 10058fd0 f i Item.obj
 0001:00057fd0       ??_GidItem@@UAEPAXI@Z      10058fd0 f i Item.obj
 0001:00057fd0       ??_EidVideoCDItem@@UAEPAXI@Z 10058fd0 f i Item.obj
 0001:00057fd0       ??_EidItem@@UAEPAXI@Z      10058fd0 f i Item.obj
 0001:00058050       ?GiveToPlayer@idVideoCDItem@@UAE_NPAVidPlayer@@@Z 10059050 f   Item.obj
 0001:00058130       ??1idMoveableItem@@UAE@XZ  10059130 f   Item.obj
 0001:000581d0       ?Pickup@idMoveableItem@@UAE_NPAVidPlayer@@@Z 100591d0 f   Item.obj
 0001:00058200       ?ReadFromSnapshot@idMoveableItem@@UAEXABVidBitMsgDelta@@@Z 10059200 f   Item.obj
 0001:00058230       ?Gib@idMoveableItem@@IAEXABVidVec3@@PBD@Z 10059230 f   Item.obj
 0001:000582f0       ?Event_Gib@idMoveableItem@@IAEXPBD@Z 100592f0 f   Item.obj
 0001:00058310       ?GiveToPlayer@idMoveablePDAItem@@UAE_NPAVidPlayer@@@Z 10059310 f   Item.obj
 0001:00058310       ?GiveToPlayer@idPDAItem@@UAE_NPAVidPlayer@@@Z 10059310 f   Item.obj
 0001:00058350       ?CreateInstance@idItemRemover@@SAPAVidClass@@XZ 10059350 f   Item.obj
 0001:00058400       ?Event_Trigger@idItemRemover@@AAEXPAVidEntity@@@Z 10059400 f   Item.obj
 0001:00058460       ?CreateInstance@idObjectiveComplete@@SAPAVidClass@@XZ 10059460 f   Item.obj
 0001:00058520       ?Spawn@idObjectiveComplete@@QAEXXZ 10059520 f   Item.obj
 0001:00058550       ?Event_Trigger@idObjectiveComplete@@AAEXPAVidEntity@@@Z 10059550 f   Item.obj
 0001:000586b0       ?CreateInstance@idItem@@SAPAVidClass@@XZ 100596b0 f   Item.obj
 0001:00058750       ?Present@idItem@@UAEXXZ    10059750 f   Item.obj
 0001:000587e0       ?GetAttributes@idItem@@QAEXAAVidDict@@@Z 100597e0 f   Item.obj
 0001:000588d0       ?ClientReceiveEvent@idItem@@UAE_NHHABVidBitMsg@@@Z 100598d0 f   Item.obj
 0001:00058960       ?CreateInstance@idItemPowerup@@SAPAVidClass@@XZ 10059960 f   Item.obj
 0001:00058a10       ?ClientReceiveEvent@idItemTeam@@UAE_NHHABVidBitMsg@@@Z 10059a10 f   Item.obj
 0001:00058b10       ?Drop@idItemTeam@@QAEX_N@Z 10059b10 f   Item.obj
 0001:00058b20       ?Return@idItemTeam@@QAEXPAVidPlayer@@@Z 10059b20 f   Item.obj
 0001:00058b40       ?ReadFromSnapshot@idItemTeam@@UAEXABVidBitMsgDelta@@@Z 10059b40 f   Item.obj
 0001:00058bd0       ?CreateInstance@idObjective@@SAPAVidClass@@XZ 10059bd0 f   Item.obj
 0001:00058c90       ?Event_CamShot@idObjective@@AAEXXZ 10059c90 f   Item.obj
 0001:00059030       ?Event_Trigger@idObjective@@AAEXPAVidEntity@@@Z 1005a030 f   Item.obj
 0001:000593c0       ?CreateInstance@idVideoCDItem@@SAPAVidClass@@XZ 1005a3c0 f   Item.obj
 0001:00059470       ?CreateInstance@idPDAItem@@SAPAVidClass@@XZ 1005a470 f   Item.obj
 0001:00059520       ?CreateInstance@idMoveableItem@@SAPAVidClass@@XZ 1005a520 f   Item.obj
 0001:000595f0       ?Spawn@idMoveableItem@@QAEXXZ 1005a5f0 f   Item.obj
 0001:00059d50       ?CreateInstance@idMoveablePDAItem@@SAPAVidClass@@XZ 1005ad50 f   Item.obj
 0001:00059e30       ??_EidMoveableItem@@UAEPAXI@Z 1005ae30 f i Item.obj
 0001:00059e30       ??_GidMoveableItem@@UAEPAXI@Z 1005ae30 f i Item.obj
 0001:00059e30       ??_GidMoveablePDAItem@@UAEPAXI@Z 1005ae30 f i Item.obj
 0001:00059e30       ??_EidMoveablePDAItem@@UAEPAXI@Z 1005ae30 f i Item.obj
 0001:00059e50       ?Event_DropToFloor@idItem@@AAEXXZ 1005ae50 f   Item.obj
 0001:00059f10       ?CreateInstance@idItemTeam@@SAPAVidClass@@XZ 1005af10 f   Item.obj
 0001:0005a050       ??_EidItemTeam@@UAEPAXI@Z  1005b050 f i Item.obj
 0001:0005a050       ??_GidItemTeam@@UAEPAXI@Z  1005b050 f i Item.obj
 0001:0005a0e0       ?Spawn@idItemTeam@@QAEXXZ  1005b0e0 f   Item.obj
 0001:0005a340       ?DropItem@idMoveableItem@@SAPAVidEntity@@PBDABVidVec3@@ABVidMat3@@1HH@Z 1005b340 f   Item.obj
 0001:0005a5c0       ?DropItems@idMoveableItem@@SAXPAVidAnimatedEntity@@PBDPAV?$idList@PAVidEntity@@@@@Z 1005b5c0 f   Item.obj
 0001:0005acf0       ?SpawnNugget@idItemTeam@@AAEXVidVec3@@@Z 1005bcf0 f   Item.obj
 0001:0005af10       ?Think@idItemTeam@@UAEXXZ  1005bf10 f   Item.obj
 0001:0005b020       ?GetType@idLight@@UBEPAVidTypeInfo@@XZ 1005c020 f   Light.obj
 0001:0005b030       ?UpdateChangeableSpawnArgs@idLight@@UAEXPBVidDict@@@Z 1005c030 f   Light.obj
 0001:0005b0c0       ?Fade@idLight@@QAEXABVidVec4@@M@Z 1005c0c0 f   Light.obj
 0001:0005b140       ?FadeOut@idLight@@QAEXM@Z  1005c140 f   Light.obj
 0001:0005b140       ?Event_FadeOut@idLight@@AAEXM@Z 1005c140 f   Light.obj
 0001:0005b160       ?PresentLightDefChange@idLight@@AAEXXZ 1005c160 f   Light.obj
 0001:0005b1a0       ?PresentModelDefChange@idLight@@AAEXXZ 1005c1a0 f   Light.obj
 0001:0005b1f0       ?FreeLightDef@idLight@@UAEXXZ 1005c1f0 f   Light.obj
 0001:0005b220       ?Event_GetLightParm@idLight@@AAEXH@Z 1005c220 f   Light.obj
 0001:0005b260       ?ParseSpawnArgsToRenderLight@idGameEdit@@UAEXPBVidDict@@PAUrenderLight_s@@@Z 1005c260 f   Light.obj
 0001:0005bde0       ?Save@idLight@@QBEXPAVidSaveGame@@@Z 1005cde0 f   Light.obj
 0001:0005bef0       ?SetLightLevel@idLight@@QAEXXZ 1005cef0 f   Light.obj
 0001:0005bff0       ?GetColor@idLight@@UBEXAAVidVec3@@@Z 1005cff0 f   Light.obj
 0001:0005c020       ?GetColor@idLight@@UBEXAAVidVec4@@@Z 1005d020 f   Light.obj
 0001:0005c050       ?SetColor@idLight@@UAEXMMM@Z 1005d050 f   Light.obj
 0001:0005c080       ?SetColor@idLight@@UAEXABVidVec4@@@Z 1005d080 f   Light.obj
 0001:0005c0c0       ?Event_SetShader@idLight@@AAEXPBD@Z 1005d0c0 f   Light.obj
 0001:0005c0c0       ?SetShader@idLight@@QAEXPBD@Z 1005d0c0 f   Light.obj
 0001:0005c120       ?SetLightParm@idLight@@QAEXHM@Z 1005d120 f   Light.obj
 0001:0005c190       ?SetLightParms@idLight@@QAEXMMMM@Z 1005d190 f   Light.obj
 0001:0005c260       ?On@idLight@@QAEXXZ        1005d260 f   Light.obj
 0001:0005c2d0       ?FadeIn@idLight@@QAEXM@Z   1005d2d0 f   Light.obj
 0001:0005c340       ?BecomeBroken@idLight@@QAEXPAVidEntity@@@Z 1005d340 f   Light.obj
 0001:0005c690       ?Present@idLight@@UAEXXZ   1005d690 f   Light.obj
 0001:0005c9c0       ?Think@idLight@@UAEXXZ     1005d9c0 f   Light.obj
 0001:0005ca90       ?GetPhysicsToSoundTransform@idLight@@UAE_NAAVidVec3@@AAVidMat3@@@Z 1005da90 f   Light.obj
 0001:0005cc80       ?ShowEditingDialog@idLight@@UAEXXZ 1005dc80 f   Light.obj
 0001:0005ccb0       ?Event_SetLightParm@idLight@@AAEXHM@Z 1005dcb0 f   Light.obj
 0001:0005ccd0       ?Event_SetLightParms@idLight@@AAEXMMMM@Z 1005dcd0 f   Light.obj
 0001:0005cd00       ?Event_SetRadiusXYZ@idLight@@AAEXMMM@Z 1005dd00 f   Light.obj
 0001:0005cd60       ?Event_SetRadius@idLight@@AAEXM@Z 1005dd60 f   Light.obj
 0001:0005cdc0       ?Event_Hide@idLight@@AAEXXZ 1005ddc0 f   Light.obj
 0001:0005ce60       ?Event_Show@idLight@@AAEXXZ 1005de60 f   Light.obj
 0001:0005cec0       ?Event_On@idLight@@AAEXXZ  1005dec0 f   Light.obj
 0001:0005ced0       ?Event_Off@idLight@@AAEXXZ 1005ded0 f   Light.obj
 0001:0005ced0       ?Off@idLight@@QAEXXZ       1005ded0 f   Light.obj
 0001:0005cf20       ?Event_ToggleOnOff@idLight@@AAEXPAVidEntity@@@Z 1005df20 f   Light.obj
 0001:0005cf90       ?Event_SetSoundHandles@idLight@@AAEXXZ 1005df90 f   Light.obj
 0001:0005d030       ?Event_FadeIn@idLight@@AAEXM@Z 1005e030 f   Light.obj
 0001:0005d040       ?WriteToSnapshot@idLight@@UBEXAAVidBitMsgDelta@@@Z 1005e040 f   Light.obj
 0001:0005d1b0       ?ReadFromSnapshot@idLight@@UAEXABVidBitMsgDelta@@@Z 1005e1b0 f   Light.obj
 0001:0005d390       ?ClientReceiveEvent@idLight@@UAE_NHHABVidBitMsg@@@Z 1005e390 f   Light.obj
 0001:0005d3b0       ??0idLight@@QAE@XZ         1005e3b0 f   Light.obj
 0001:0005d520       ??_EidLight@@UAEPAXI@Z     1005e520 f i Light.obj
 0001:0005d520       ??_GidLight@@UAEPAXI@Z     1005e520 f i Light.obj
 0001:0005d5b0       ?Restore@idLight@@QAEXPAVidRestoreGame@@@Z 1005e5b0 f   Light.obj
 0001:0005d730       ?Spawn@idLight@@QAEXXZ     1005e730 f   Light.obj
 0001:0005df80       ?Killed@idLight@@UAEXPAVidEntity@@0HABVidVec3@@H@Z 1005ef80 f   Light.obj
 0001:0005df90       ?SaveState@idLight@@QAEXPAVidDict@@@Z 1005ef90 f   Light.obj
 0001:0005e020       ?CreateInstance@idLight@@SAPAVidClass@@XZ 1005f020 f   Light.obj
 0001:0005e0c0       ?GetType@idSpawnableEntity@@UBEPAVidTypeInfo@@XZ 1005f0c0 f   Misc.obj
 0001:0005e0d0       ?GetType@idPlayerStart@@UBEPAVidTypeInfo@@XZ 1005f0d0 f   Misc.obj
 0001:0005e0e0       ?Spawn@idPlayerStart@@QAEXXZ 1005f0e0 f   Misc.obj
 0001:0005e0f0       ?Save@idPlayerStart@@QBEXPAVidSaveGame@@@Z 1005f0f0 f   Misc.obj
 0001:0005e110       ?Restore@idPlayerStart@@QAEXPAVidRestoreGame@@@Z 1005f110 f   Misc.obj
 0001:0005e130       ?GetType@idActivator@@UBEPAVidTypeInfo@@XZ 1005f130 f   Misc.obj
 0001:0005e140       ?Restore@idActivator@@QAEXPAVidRestoreGame@@@Z 1005f140 f   Misc.obj
 0001:0005e170       ?Think@idActivator@@UAEXXZ 1005f170 f   Misc.obj
 0001:0005e1b0       ?Event_Activate@idActivator@@AAEXPAVidEntity@@@Z 1005f1b0 f   Misc.obj
 0001:0005e1b0       ?Event_Trigger@idTrigger_Touch@@AAEXPAVidEntity@@@Z 1005f1b0 f   Trigger.obj
 0001:0005e1d0       ?GetType@idPathCorner@@UBEPAVidTypeInfo@@XZ 1005f1d0 f   Misc.obj
 0001:0005e1e0       ?GetType@idDamagable@@UBEPAVidTypeInfo@@XZ 1005f1e0 f   Misc.obj
 0001:0005e1f0       ?Restore@idBeam@@QAEXPAVidRestoreGame@@@Z 1005f1f0 f   Misc.obj
 0001:0005e1f0       ?Restore@idDamagable@@QAEXPAVidRestoreGame@@@Z 1005f1f0 f   Misc.obj
 0001:0005e220       ?Hide@idStaticEntity@@UAEXXZ 1005f220 f   Misc.obj
 0001:0005e220       ?Hide@idDamagable@@UAEXXZ  1005f220 f   Misc.obj
 0001:0005e240       ?Show@idDamagable@@UAEXXZ  1005f240 f   Misc.obj
 0001:0005e260       ?GetType@idExplodable@@UBEPAVidTypeInfo@@XZ 1005f260 f   Misc.obj
 0001:0005e270       ?GetType@idSpring@@UBEPAVidTypeInfo@@XZ 1005f270 f   Misc.obj
 0001:0005e280       ?Spawn@idSpring@@QAEXXZ    1005f280 f   Misc.obj
 0001:0005e380       ?GetType@idForceField@@UBEPAVidTypeInfo@@XZ 1005f380 f   Misc.obj
 0001:0005e390       ?Think@idForceField@@UAEXXZ 1005f390 f   Misc.obj
 0001:0005e390       ?Think@idCursor3D@@UAEXXZ  1005f390 f   GameEdit.obj
 0001:0005e3c0       ?Save@idForceField@@QBEXPAVidSaveGame@@@Z 1005f3c0 f   Misc.obj
 0001:0005e3e0       ?Restore@idForceField@@QAEXPAVidRestoreGame@@@Z 1005f3e0 f   Misc.obj
 0001:0005e400       ?Event_Toggle@idForceField@@AAEXXZ 1005f400 f   Misc.obj
 0001:0005e420       ?Event_Activate@idForceField@@AAEXPAVidEntity@@@Z 1005f420 f   Misc.obj
 0001:0005e470       ?GetType@idAnimated@@UBEPAVidTypeInfo@@XZ 1005f470 f   Misc.obj
 0001:0005e480       ?Event_GetAnimationLength@idAnimated@@AAEXXZ 1005f480 f   Misc.obj
 0001:0005e4c0       ?GetType@idStaticEntity@@UBEPAVidTypeInfo@@XZ 1005f4c0 f   Misc.obj
 0001:0005e4d0       ??0idStaticEntity@@QAE@XZ  1005f4d0 f   Misc.obj
 0001:0005e540       ??1idTarget@@UAE@XZ        1005f540 f i Target.obj
 0001:0005e540       ??1idCamera@@UAE@XZ        1005f540 f i Camera.obj
 0001:0005e540       ??1idTrigger@@UAE@XZ       1005f540 f i Trigger.obj
 0001:0005e540       ??1idStaticEntity@@UAE@XZ  1005f540 f i Misc.obj
 0001:0005e550       ?Save@idStaticEntity@@QBEXPAVidSaveGame@@@Z 1005f550 f   Misc.obj
 0001:0005e5d0       ?Restore@idStaticEntity@@QAEXPAVidRestoreGame@@@Z 1005f5d0 f   Misc.obj
 0001:0005e640       ?ShowEditingDialog@idStaticEntity@@UAEXXZ 1005f640 f   Misc.obj
 0001:0005e660       ?Think@idStaticEntity@@UAEXXZ 1005f660 f   Misc.obj
 0001:0005e7a0       ?Fade@idStaticEntity@@QAEXABVidVec4@@M@Z 1005f7a0 f   Misc.obj
 0001:0005e820       ?WriteToSnapshot@idStaticEntity@@UBEXAAVidBitMsgDelta@@@Z 1005f820 f   Misc.obj
 0001:0005e870       ?GetType@idFuncEmitter@@UBEPAVidTypeInfo@@XZ 1005f870 f   Misc.obj
 0001:0005e880       ?Save@idFuncEmitter@@QBEXPAVidSaveGame@@@Z 1005f880 f   Misc.obj
 0001:0005e8a0       ?Restore@idFuncEmitter@@QAEXPAVidRestoreGame@@@Z 1005f8a0 f   Misc.obj
 0001:0005e8c0       ?GetType@idFuncShootProjectile@@UBEPAVidTypeInfo@@XZ 1005f8c0 f   Misc.obj
 0001:0005e8d0       ?Restore@idFuncShootProjectile@@QAEXPAVidRestoreGame@@@Z 1005f8d0 f   Misc.obj
 0001:0005e930       ?GetType@idFuncSplat@@UBEPAVidTypeInfo@@XZ 1005f930 f   Misc.obj
 0001:0005e940       ?GetType@idFuncSmoke@@UBEPAVidTypeInfo@@XZ 1005f940 f   Misc.obj
 0001:0005e950       ?Save@idFuncSmoke@@QBEXPAVidSaveGame@@@Z 1005f950 f   Misc.obj
 0001:0005e990       ?Restore@idFuncSmoke@@QAEXPAVidRestoreGame@@@Z 1005f990 f   Misc.obj
 0001:0005e9d0       ?Event_Activate@idFuncSmoke@@QAEXPAVidEntity@@@Z 1005f9d0 f   Misc.obj
 0001:0005ea10       ?Think@idFuncSmoke@@UAEXXZ 1005fa10 f   Misc.obj
 0001:0005eb20       ?GetType@idTextEntity@@UBEPAVidTypeInfo@@XZ 1005fb20 f   Misc.obj
 0001:0005eb30       ?Restore@idTextEntity@@QAEXPAVidRestoreGame@@@Z 1005fb30 f   Misc.obj
 0001:0005eb60       ?GetType@idVacuumSeparatorEntity@@UBEPAVidTypeInfo@@XZ 1005fb60 f   Misc.obj
 0001:0005eb70       ?Save@idVacuumSeparatorEntity@@QBEXPAVidSaveGame@@@Z 1005fb70 f   Misc.obj
 0001:0005ebb0       ?Restore@idVacuumSeparatorEntity@@QAEXPAVidRestoreGame@@@Z 1005fbb0 f   Misc.obj
 0001:0005ebf0       ?Event_Activate@idVacuumSeparatorEntity@@QAEXPAVidEntity@@@Z 1005fbf0 f   Misc.obj
 0001:0005ec10       ?GetType@idLocationSeparatorEntity@@UBEPAVidTypeInfo@@XZ 1005fc10 f   Misc.obj
 0001:0005ec20       ?GetType@idVacuumEntity@@UBEPAVidTypeInfo@@XZ 1005fc20 f   Misc.obj
 0001:0005ec30       ?GetType@idLocationEntity@@UBEPAVidTypeInfo@@XZ 1005fc30 f   Misc.obj
 0001:0005ec40       ?GetType@idBeam@@UBEPAVidTypeInfo@@XZ 1005fc40 f   Misc.obj
 0001:0005ec50       ?Spawn@idBeam@@QAEXXZ      1005fc50 f   Misc.obj
 0001:0005ecb0       ?SetBeamTarget@idBeam@@QAEXABVidVec3@@@Z 1005fcb0 f   Misc.obj
 0001:0005ed10       ?Event_Activate@idBeam@@AAEXPAVidEntity@@@Z 1005fd10 f   Misc.obj
 0001:0005ed40       ?GetType@idLiquid@@UBEPAVidTypeInfo@@XZ 1005fd40 f   Misc.obj
 0001:0005ed50       ?GetType@idShaking@@UBEPAVidTypeInfo@@XZ 1005fd50 f   Misc.obj
 0001:0005ed60       ?Save@idShaking@@QBEXPAVidSaveGame@@@Z 1005fd60 f   Misc.obj
 0001:0005ed90       ?Restore@idShaking@@QAEXPAVidRestoreGame@@@Z 1005fd90 f   Misc.obj
 0001:0005edd0       ?GetType@idEarthQuake@@UBEPAVidTypeInfo@@XZ 1005fdd0 f   Misc.obj
 0001:0005ede0       ?Save@idEarthQuake@@QBEXPAVidSaveGame@@@Z 1005fde0 f   Misc.obj
 0001:0005ee70       ?Restore@idEarthQuake@@QAEXPAVidRestoreGame@@@Z 1005fe70 f   Misc.obj
 0001:0005ef10       ?Think@idEarthQuake@@UAEXXZ 1005ff10 f   Misc.obj
 0001:0005eff0       ?GetType@idFuncPortal@@UBEPAVidTypeInfo@@XZ 1005fff0 f   Misc.obj
 0001:0005f000       ?Save@idFuncPortal@@QBEXPAVidSaveGame@@@Z 10060000 f   Misc.obj
 0001:0005f030       ?Restore@idFuncPortal@@QAEXPAVidRestoreGame@@@Z 10060030 f   Misc.obj
 0001:0005f080       ?Event_Activate@idFuncPortal@@AAEXPAVidEntity@@@Z 10060080 f   Misc.obj
 0001:0005f0c0       ?GetType@idFuncAASPortal@@UBEPAVidTypeInfo@@XZ 100600c0 f   Misc.obj
 0001:0005f0d0       ?Save@idFuncAASObstacle@@QBEXPAVidSaveGame@@@Z 100600d0 f   Misc.obj
 0001:0005f0d0       ?Save@idActivator@@QBEXPAVidSaveGame@@@Z 100600d0 f   Misc.obj
 0001:0005f0d0       ?Save@idFuncAASPortal@@QBEXPAVidSaveGame@@@Z 100600d0 f   Misc.obj
 0001:0005f0f0       ?Restore@idFuncAASPortal@@QAEXPAVidRestoreGame@@@Z 100600f0 f   Misc.obj
 0001:0005f130       ?Event_Activate@idFuncAASPortal@@AAEXPAVidEntity@@@Z 10060130 f   Misc.obj
 0001:0005f170       ?GetType@idFuncAASObstacle@@UBEPAVidTypeInfo@@XZ 10060170 f   Misc.obj
 0001:0005f180       ?Restore@idFuncAASObstacle@@QAEXPAVidRestoreGame@@@Z 10060180 f   Misc.obj
 0001:0005f1c0       ?Event_Activate@idFuncAASObstacle@@AAEXPAVidEntity@@@Z 100601c0 f   Misc.obj
 0001:0005f200       ?GetType@idFuncRadioChatter@@UBEPAVidTypeInfo@@XZ 10060200 f   Misc.obj
 0001:0005f210       ?Save@idFuncRadioChatter@@QBEXPAVidSaveGame@@@Z 10060210 f   Misc.obj
 0001:0005f230       ?Restore@idFuncRadioChatter@@QAEXPAVidRestoreGame@@@Z 10060230 f   Misc.obj
 0001:0005f250       ?Event_ResetRadioHud@idFuncRadioChatter@@AAEXPAVidEntity@@@Z 10060250 f   Misc.obj
 0001:0005f2a0       ?GetType@idPhantomObjects@@UBEPAVidTypeInfo@@XZ 100602a0 f   Misc.obj
 0001:0005f2b0       ?GetType@idShockwave@@UBEPAVidTypeInfo@@XZ 100602b0 f   Misc.obj
 0001:0005f2c0       ??0idShockwave@@QAE@XZ     100602c0 f   Misc.obj
 0001:0005f320       ?Save@idShockwave@@QBEXPAVidSaveGame@@@Z 10060320 f   Misc.obj
 0001:0005f3d0       ?Restore@idShockwave@@QAEXPAVidRestoreGame@@@Z 100603d0 f   Misc.obj
 0001:0005f470       ?Event_Activate@idShockwave@@AAEXPAVidEntity@@@Z 10060470 f   Misc.obj
 0001:0005f4a0       ?GetType@idFuncMountedObject@@UBEPAVidTypeInfo@@XZ 100604a0 f   Misc.obj
 0001:0005f4b0       ?Think@idFuncMountedObject@@UAEXXZ 100604b0 f   Misc.obj
 0001:0005f4c0       ?Event_Touch@idFuncMountedObject@@AAEXPAVidEntity@@PAUtrace_s@@@Z 100604c0 f   Misc.obj
 0001:0005f4e0       ?Event_Activate@idFuncMountedObject@@AAEXPAVidEntity@@@Z 100604e0 f   Misc.obj
 0001:0005f5b0       ?GetType@idFuncMountedWeapon@@UBEPAVidTypeInfo@@XZ 100605b0 f   Misc.obj
 0001:0005f5c0       ?GetType@idPortalSky@@UBEPAVidTypeInfo@@XZ 100605c0 f   Misc.obj
 0001:0005f5d0       ?Event_PostSpawn@idPortalSky@@QAEXXZ 100605d0 f   Misc.obj
 0001:0005f5e0       ?Event_Activate@idPortalSky@@QAEXPAVidEntity@@@Z 100605e0 f   Misc.obj
 0001:0005f5f0       ?CreateInstance@idSpawnableEntity@@SAPAVidClass@@XZ 100605f0 f   Misc.obj
 0001:0005f6a0       ?CreateInstance@idPlayerStart@@SAPAVidClass@@XZ 100606a0 f   Misc.obj
 0001:0005f750       ?TeleportPlayer@idPlayerStart@@AAEXPAVidPlayer@@@Z 10060750 f   Misc.obj
 0001:0005fab0       ?CreateInstance@idActivator@@SAPAVidClass@@XZ 10060ab0 f   Misc.obj
 0001:0005fb60       ?Spawn@idActivator@@QAEXXZ 10060b60 f   Misc.obj
 0001:0005fc60       ?CreateInstance@idPathCorner@@SAPAVidClass@@XZ 10060c60 f   Misc.obj
 0001:0005fd10       ?DrawDebugInfo@idPathCorner@@SAXXZ 10060d10 f   Misc.obj
 0001:0005fdf0       ?RandomPath@idPathCorner@@SAPAV1@PBVidEntity@@0@Z 10060df0 f   Misc.obj
 0001:0005feb0       ?Event_RandomPath@idPathCorner@@AAEXXZ 10060eb0 f   Misc.obj
 0001:0005feb0       ?Event_RandomPath@idAI@@IAEXXZ 10060eb0 f   AI_events.obj
 0001:0005fed0       ?CreateInstance@idDamagable@@SAPAVidClass@@XZ 10060ed0 f   Misc.obj
 0001:0005ff80       ?Event_RestoreDamagable@idDamagable@@AAEXXZ 10060f80 f   Misc.obj
 0001:0005ffc0       ?CreateInstance@idExplodable@@SAPAVidClass@@XZ 10060fc0 f   Misc.obj
 0001:00060070       ?Event_Explode@idExplodable@@AAEXPAVidEntity@@@Z 10061070 f   Misc.obj
 0001:00060130       ??_GidSpring@@UAEPAXI@Z    10061130 f i Misc.obj
 0001:00060130       ??_EidSpring@@UAEPAXI@Z    10061130 f i Misc.obj
 0001:000601a0       ?Think@idSpring@@UAEXXZ    100611a0 f   Misc.obj
 0001:000604d0       ?CreateInstance@idForceField@@SAPAVidClass@@XZ 100614d0 f   Misc.obj
 0001:00060590       ??_GidForceField@@UAEPAXI@Z 10061590 f i Misc.obj
 0001:00060590       ??_EidForceField@@UAEPAXI@Z 10061590 f i Misc.obj
 0001:00060600       ?Spawn@idForceField@@QAEXXZ 10061600 f   Misc.obj
 0001:00060860       ?Event_FindTargets@idForceField@@AAEXXZ 10061860 f   Misc.obj
 0001:00060920       ?Save@idAnimated@@QBEXPAVidSaveGame@@@Z 10061920 f   Misc.obj
 0001:00060990       ?Restore@idAnimated@@QAEXPAVidRestoreGame@@@Z 10061990 f   Misc.obj
 0001:00060a00       ?GetPhysicsToSoundTransform@idAnimated@@UAE_NAAVidVec3@@AAVidMat3@@@Z 10061a00 f   Misc.obj
 0001:00060a80       ?StartRagdoll@idAnimated@@QAE_NXZ 10061a80 f   Misc.obj
 0001:00060af0       ?PlayNextAnim@idAnimated@@AAEXXZ 10061af0 f   Misc.obj
 0001:00060d60       ?Event_StartRagdoll@idAnimated@@AAEXXZ 10061d60 f   Misc.obj
 0001:00060d70       ?Event_AnimDone@idAnimated@@AAEXH@Z 10061d70 f   Misc.obj
 0001:00060e90       ?Event_Activate@idAnimated@@AAEXPAVidEntity@@@Z 10061e90 f   Misc.obj
 0001:00060f20       ?Event_Start@idAnimated@@AAEXXZ 10061f20 f   Misc.obj
 0001:00061080       ?Event_LaunchMissilesUpdate@idAnimated@@AAEXHHHH@Z 10062080 f   Misc.obj
 0001:000614b0       ?Event_LaunchMissiles@idAnimated@@AAEXPBD000HH@Z 100624b0 f   Misc.obj
 0001:00061640       ?Event_SetAnimation@idAnimated@@AAEXPBD@Z 10062640 f   Misc.obj
 0001:000616a0       ?CreateInstance@idStaticEntity@@SAPAVidClass@@XZ 100626a0 f   Misc.obj
 0001:00061740       ?Spawn@idStaticEntity@@QAEXXZ 10062740 f   Misc.obj
 0001:000619e0       ?Show@idStaticEntity@@UAEXXZ 100629e0 f   Misc.obj
 0001:00061a30       ?Event_Activate@idStaticEntity@@AAEXPAVidEntity@@@Z 10062a30 f   Misc.obj
 0001:00061b40       ?ReadFromSnapshot@idStaticEntity@@UAEXABVidBitMsgDelta@@@Z 10062b40 f   Misc.obj
 0001:00061bc0       ?CreateInstance@idFuncEmitter@@SAPAVidClass@@XZ 10062bc0 f   Misc.obj
 0001:00061c70       ?Spawn@idFuncEmitter@@QAEXXZ 10062c70 f   Misc.obj
 0001:00061cd0       ?Event_Activate@idFuncEmitter@@QAEXPAVidEntity@@@Z 10062cd0 f   Misc.obj
 0001:00061d60       ?WriteToSnapshot@idFuncEmitter@@UBEXAAVidBitMsgDelta@@@Z 10062d60 f   Misc.obj
 0001:00061dc0       ?ReadFromSnapshot@idFuncEmitter@@UAEXABVidBitMsgDelta@@@Z 10062dc0 f   Misc.obj
 0001:00061e20       ??0idFuncShootProjectile@@QAE@XZ 10062e20 f   Misc.obj
 0001:00061e90       ?Think@idFuncShootProjectile@@UAEXXZ 10062e90 f   Misc.obj
 0001:00062020       ?Save@idFuncShootProjectile@@QBEXPAVidSaveGame@@@Z 10063020 f   Misc.obj
 0001:00062080       ?CreateInstance@idFuncSplat@@SAPAVidClass@@XZ 10063080 f   Misc.obj
 0001:00062130       ?Event_Splat@idFuncSplat@@AAEXXZ 10063130 f   Misc.obj
 0001:000622a0       ?Event_Activate@idFuncSplat@@AAEXPAVidEntity@@@Z 100632a0 f   Misc.obj
 0001:00062300       ?CreateInstance@idFuncSmoke@@SAPAVidClass@@XZ 10063300 f   Misc.obj
 0001:000623c0       ?Spawn@idFuncSmoke@@QAEXXZ 100633c0 f   Misc.obj
 0001:00062480       ?Spawn@idTextEntity@@QAEXXZ 10063480 f   Misc.obj
 0001:00062530       ?Save@idTextEntity@@QBEXPAVidSaveGame@@@Z 10063530 f   Misc.obj
 0001:00062560       ?Think@idTextEntity@@UAEXXZ 10063560 f   Misc.obj
 0001:00062760       ?CreateInstance@idVacuumSeparatorEntity@@SAPAVidClass@@XZ 10063760 f   Misc.obj
 0001:00062810       ?Spawn@idVacuumSeparatorEntity@@QAEXXZ 10063810 f   Misc.obj
 0001:00062910       ?CreateInstance@idLocationSeparatorEntity@@SAPAVidClass@@XZ 10063910 f   Misc.obj
 0001:000629c0       ?Spawn@idLocationSeparatorEntity@@QAEXXZ 100639c0 f   Misc.obj
 0001:00062ab0       ?CreateInstance@idVacuumEntity@@SAPAVidClass@@XZ 10063ab0 f   Misc.obj
 0001:00062b60       ?Spawn@idVacuumEntity@@QAEXXZ 10063b60 f   Misc.obj
 0001:00062bb0       ?CreateInstance@idLocationEntity@@SAPAVidClass@@XZ 10063bb0 f   Misc.obj
 0001:00062c60       ?GetLocation@idLocationEntity@@QBEPBDXZ 10063c60 f   Misc.obj
 0001:00062c80       ?Save@idDamagable@@QBEXPAVidSaveGame@@@Z 10063c80 f   Misc.obj
 0001:00062c80       ?Save@idBeam@@QBEXPAVidSaveGame@@@Z 10063c80 f   Misc.obj
 0001:00062cb0       ?Think@idBeam@@UAEXXZ      10063cb0 f   Misc.obj
 0001:00062d40       ?Show@idBeam@@UAEXXZ       10063d40 f   Misc.obj
 0001:00062d90       ?Event_MatchTarget@idBeam@@AAEXXZ 10063d90 f   Misc.obj
 0001:00062e90       ?WriteToSnapshot@idBeam@@UBEXAAVidBitMsgDelta@@@Z 10063e90 f   Misc.obj
 0001:00062f10       ?ReadFromSnapshot@idBeam@@UAEXABVidBitMsgDelta@@@Z 10063f10 f   Misc.obj
 0001:00062fa0       ?CreateInstance@idLiquid@@SAPAVidClass@@XZ 10063fa0 f   Misc.obj
 0001:00063050       ?CreateInstance@idShaking@@SAPAVidClass@@XZ 10064050 f   Misc.obj
 0001:00063110       ?BeginShaking@idShaking@@AAEXXZ 10064110 f   Misc.obj
 0001:00063200       ?Event_Activate@idShaking@@AAEXPAVidEntity@@@Z 10064200 f   Misc.obj
 0001:00063270       ?CreateInstance@idEarthQuake@@SAPAVidClass@@XZ 10064270 f   Misc.obj
 0001:00063340       ?Spawn@idEarthQuake@@QAEXXZ 10064340 f   Misc.obj
 0001:000634b0       ?Event_Activate@idEarthQuake@@AAEXPAVidEntity@@@Z 100644b0 f   Misc.obj
 0001:00063740       ?CreateInstance@idFuncPortal@@SAPAVidClass@@XZ 10064740 f   Misc.obj
 0001:000637f0       ?Spawn@idFuncPortal@@QAEXXZ 100647f0 f   Misc.obj
 0001:000638e0       ?CreateInstance@idFuncAASPortal@@SAPAVidClass@@XZ 100648e0 f   Misc.obj
 0001:00063990       ?Spawn@idFuncAASPortal@@QAEXXZ 10064990 f   Misc.obj
 0001:000639f0       ?CreateInstance@idFuncAASObstacle@@SAPAVidClass@@XZ 100649f0 f   Misc.obj
 0001:00063aa0       ?Spawn@idFuncAASObstacle@@QAEXXZ 10064aa0 f   Misc.obj
 0001:00063b00       ?CreateInstance@idFuncRadioChatter@@SAPAVidClass@@XZ 10064b00 f   Misc.obj
 0001:00063bb0       ?Spawn@idFuncRadioChatter@@QAEXXZ 10064bb0 f   Misc.obj
 0001:00063c00       ?Event_Activate@idFuncRadioChatter@@AAEXPAVidEntity@@@Z 10064c00 f   Misc.obj
 0001:00063cd0       ?Save@idPhantomObjects@@QBEXPAVidSaveGame@@@Z 10064cd0 f   Misc.obj
 0001:00063dc0       ?Spawn@idPhantomObjects@@QAEXXZ 10064dc0 f   Misc.obj
 0001:00063f70       ?CreateInstance@idShockwave@@SAPAVidClass@@XZ 10064f70 f   Misc.obj
 0001:00064010       ??_GidShockwave@@UAEPAXI@Z 10065010 f i Misc.obj
 0001:00064010       ??_EidShockwave@@UAEPAXI@Z 10065010 f i Misc.obj
 0001:00064040       ?Spawn@idShockwave@@QAEXXZ 10065040 f   Misc.obj
 0001:00064130       ?Think@idShockwave@@UAEXXZ 10065130 f   Misc.obj
 0001:00064ad0       ?CreateInstance@idFuncMountedObject@@SAPAVidClass@@XZ 10065ad0 f   Misc.obj
 0001:00064b90       ??_EidFuncMountedObject@@UAEPAXI@Z 10065b90 f i Misc.obj
 0001:00064b90       ??_GidFuncMountedObject@@UAEPAXI@Z 10065b90 f i Misc.obj
 0001:00064b90       ??_GidFuncMountedWeapon@@UAEPAXI@Z 10065b90 f i Misc.obj
 0001:00064b90       ??_EidFuncMountedWeapon@@UAEPAXI@Z 10065b90 f i Misc.obj
 0001:00064bc0       ?Spawn@idFuncMountedObject@@QAEXXZ 10065bc0 f   Misc.obj
 0001:00064d20       ?GetAngleRestrictions@idFuncMountedObject@@QAEXAAH00@Z 10065d20 f   Misc.obj
 0001:00064f00       ?CreateInstance@idFuncMountedWeapon@@SAPAVidClass@@XZ 10065f00 f   Misc.obj
 0001:00064ff0       ?Think@idFuncMountedWeapon@@UAEXXZ 10065ff0 f   Misc.obj
 0001:00065280       ?Event_PostSpawn@idFuncMountedWeapon@@AAEXXZ 10066280 f   Misc.obj
 0001:00065340       ?CreateInstance@idPortalSky@@SAPAVidClass@@XZ 10066340 f   Misc.obj
 0001:000653f0       ??_GidPortalSky@@UAEPAXI@Z 100663f0 f i Misc.obj
 0001:000653f0       ??_EidPortalSky@@UAEPAXI@Z 100663f0 f i Misc.obj
 0001:00065420       ?Spawn@idPortalSky@@QAEXXZ 10066420 f   Misc.obj
 0001:00065460       ?Event_TeleportStage@idPlayerStart@@AAEXPAVidEntity@@@Z 10066460 f   Misc.obj
 0001:00065620       ?Event_TeleportPlayer@idPlayerStart@@AAEXPAVidEntity@@@Z 10066620 f   Misc.obj
 0001:00065710       ?Spawn@idDamagable@@QAEXXZ 10066710 f   Misc.obj
 0001:00065890       ?BecomeBroken@idDamagable@@AAEXPAVidEntity@@@Z 10066890 f   Misc.obj
 0001:00065b50       ?Killed@idDamagable@@UAEXPAVidEntity@@0HABVidVec3@@H@Z 10066b50 f   Misc.obj
 0001:00065b80       ?Event_BecomeBroken@idDamagable@@AAEXPAVidEntity@@@Z 10066b80 f   Misc.obj
 0001:00065b90       ?CreateInstance@idSpring@@SAPAVidClass@@XZ 10066b90 f   Misc.obj
 0001:00065c50       ?Event_LinkSpring@idSpring@@AAEXXZ 10066c50 f   Misc.obj
 0001:00065ea0       ?CreateInstance@idAnimated@@SAPAVidClass@@XZ 10066ea0 f   Misc.obj
 0001:00065f80       ??_GidAnimated@@UAEPAXI@Z  10066f80 f i Misc.obj
 0001:00065f80       ??_EidAnimated@@UAEPAXI@Z  10066f80 f i Misc.obj
 0001:00066010       ?Spawn@idAnimated@@QAEXXZ  10067010 f   Misc.obj
 0001:000663d0       ?LoadAF@idAnimated@@UAE_NXZ 100673d0 f   Misc.obj
 0001:000664e0       ?CreateInstance@idFuncShootProjectile@@SAPAVidClass@@XZ 100674e0 f   Misc.obj
 0001:00066580       ??_GidFuncShootProjectile@@UAEPAXI@Z 10067580 f i Misc.obj
 0001:00066580       ??_EidFuncShootProjectile@@UAEPAXI@Z 10067580 f i Misc.obj
 0001:000665f0       ?Event_Activate@idFuncShootProjectile@@QAEXPAVidEntity@@@Z 100675f0 f   Misc.obj
 0001:00066860       ?CreateInstance@idTextEntity@@SAPAVidClass@@XZ 10067860 f   Misc.obj
 0001:00066920       ??_EidTextEntity@@UAEPAXI@Z 10067920 f i Misc.obj
 0001:00066920       ??_GidTextEntity@@UAEPAXI@Z 10067920 f i Misc.obj
 0001:00066990       ?Spawn@idLocationEntity@@QAEXXZ 10067990 f   Misc.obj
 0001:00066a60       ?CreateInstance@idBeam@@SAPAVidClass@@XZ 10067a60 f   Misc.obj
 0001:00066b10       ?Spawn@idShaking@@QAEXXZ   10067b10 f   Misc.obj
 0001:00066c40       ??1idPhantomObjects@@UAE@XZ 10067c40 f i Misc.obj
 0001:00066ce0       ?Think@idPhantomObjects@@UAEXXZ 10067ce0 f   Misc.obj
 0001:00067150       ?Spawn@idFuncMountedWeapon@@QAEXXZ 10068150 f   Misc.obj
 0001:000672b0       ?ClientReceiveEvent@idPlayerStart@@UAE_NHHABVidBitMsg@@@Z 100682b0 f   Misc.obj
 0001:00067320       ?CreateInstance@idPhantomObjects@@SAPAVidClass@@XZ 10068320 f   Misc.obj
 0001:00067440       ??_GidPhantomObjects@@UAEPAXI@Z 10068440 f i Misc.obj
 0001:00067440       ??_EidPhantomObjects@@UAEPAXI@Z 10068440 f i Misc.obj
 0001:00067460       ?Restore@idPhantomObjects@@QAEXPAVidRestoreGame@@@Z 10068460 f   Misc.obj
 0001:00067840       ?Event_Activate@idPhantomObjects@@AAEXPAVidEntity@@@Z 10068840 f   Misc.obj
 0001:00067c40       ?GetType@idMoveable@@UBEPAVidTypeInfo@@XZ 10068c40 f   Moveable.obj
 0001:00067c50       ?Hide@idMoveable@@UAEXXZ   10068c50 f   Moveable.obj
 0001:00067c50       ?Hide@idMover@@UAEXXZ      10068c50 f   Mover.obj
 0001:00067c70       ?EnableDamage@idMoveable@@QAEX_NM@Z 10068c70 f   Moveable.obj
 0001:00067cd0       ?WriteToSnapshot@idMoveable@@UBEXAAVidBitMsgDelta@@@Z 10068cd0 f   Moveable.obj
 0001:00067cf0       ?Event_BecomeNonSolid@idMoveable@@IAEXXZ 10068cf0 f   Moveable.obj
 0001:00067d20       ?SetAttacker@idMoveable@@QAEXPAVidEntity@@@Z 10068d20 f   Moveable.obj
 0001:00067d30       ?Event_IsAtRest@idMoveable@@IAEXXZ 10068d30 f   Moveable.obj
 0001:00067d50       ?Event_EnableDamage@idMoveable@@IAEXM@Z 10068d50 f   Moveable.obj
 0001:00067d90       ?GetType@idBarrel@@UBEPAVidTypeInfo@@XZ 10068d90 f   Moveable.obj
 0001:00067da0       ?Save@idBarrel@@QBEXPAVidSaveGame@@@Z 10068da0 f   Moveable.obj
 0001:00067e10       ?Restore@idBarrel@@QAEXPAVidRestoreGame@@@Z 10068e10 f   Moveable.obj
 0001:00067e80       ?ClientPredictionThink@idBarrel@@UAEXXZ 10068e80 f   Moveable.obj
 0001:00067e80       ?ClientPredictionThink@idLight@@UAEXXZ 10068e80 f   Light.obj
 0001:00067e90       ?GetType@idExplodingBarrel@@UBEPAVidTypeInfo@@XZ 10068e90 f   Moveable.obj
 0001:00067ea0       ?Save@idExplodingBarrel@@QBEXPAVidSaveGame@@@Z 10068ea0 f   Moveable.obj
 0001:00067f50       ?Restore@idExplodingBarrel@@QAEXPAVidRestoreGame@@@Z 10068f50 f   Moveable.obj
 0001:00068040       ?SetStability@idExplodingBarrel@@QAEX_N@Z 10069040 f   Moveable.obj
 0001:00068050       ?StopBurning@idExplodingBarrel@@QAEXXZ 10069050 f   Moveable.obj
 0001:000680b0       ?Damage@idExplodingBarrel@@UAEXPAVidEntity@@0ABVidVec3@@PBDMH@Z 100690b0 f   Moveable.obj
 0001:00068160       ?Event_TriggerTargets@idExplodingBarrel@@AAEXXZ 10069160 f   Moveable.obj
 0001:00068170       ?Event_Explode@idExplodingBarrel@@AAEXXZ 10069170 f   Moveable.obj
 0001:000681b0       ?Event_Activate@idExplodingBarrel@@AAEXPAVidEntity@@@Z 100691b0 f   Moveable.obj
 0001:000681d0       ?WriteToSnapshot@idExplodingBarrel@@UBEXAAVidBitMsgDelta@@@Z 100691d0 f   Moveable.obj
 0001:00068210       ??0idMoveable@@QAE@XZ      10069210 f   Moveable.obj
 0001:00068330       ??1idMoveable@@UAE@XZ      10069330 f   Moveable.obj
 0001:000683f0       ?Show@idMoveable@@UAEXXZ   100693f0 f   Moveable.obj
 0001:00068440       ?Collide@idMoveable@@UAE_NABUtrace_s@@ABVidVec3@@@Z 10069440 f   Moveable.obj
 0001:000689c0       ?Killed@idMoveable@@UAEXPAVidEntity@@0HABVidVec3@@H@Z 100699c0 f   Moveable.obj
 0001:00068a60       ?ReadFromSnapshot@idMoveable@@UAEXABVidBitMsgDelta@@@Z 10069a60 f   Moveable.obj
 0001:00068a90       ??1idBarrel@@UAE@XZ        10069a90 f i Moveable.obj
 0001:00068aa0       ?BarrelThink@idBarrel@@QAEXXZ 10069aa0 f   Moveable.obj
 0001:00068fe0       ?GetPhysicsToVisualTransform@idBarrel@@UAE_NAAVidVec3@@AAVidMat3@@@Z 10069fe0 f   Moveable.obj
 0001:00069060       ?Spawn@idExplodingBarrel@@QAEXXZ 1006a060 f   Moveable.obj
 0001:000691c0       ?Think@idExplodingBarrel@@UAEXXZ 1006a1c0 f   Moveable.obj
 0001:00069450       ?AddParticles@idExplodingBarrel@@AAEXPBD_N@Z 1006a450 f   Moveable.obj
 0001:000697e0       ?AddLight@idExplodingBarrel@@AAEXPBD_N@Z 1006a7e0 f   Moveable.obj
 0001:00069960       ?ExplodingEffects@idExplodingBarrel@@AAEXXZ 1006a960 f   Moveable.obj
 0001:00069a70       ?Killed@idExplodingBarrel@@UAEXPAVidEntity@@0HABVidVec3@@H@Z 1006aa70 f   Moveable.obj
 0001:00069f80       ?Event_Respawn@idExplodingBarrel@@AAEXXZ 1006af80 f   Moveable.obj
 0001:0006a250       ?ReadFromSnapshot@idExplodingBarrel@@UAEXABVidBitMsgDelta@@@Z 1006b250 f   Moveable.obj
 0001:0006a2a0       ?ClientReceiveEvent@idExplodingBarrel@@UAE_NHHABVidBitMsg@@@Z 1006b2a0 f   Moveable.obj
 0001:0006a320       ?CreateInstance@idMoveable@@SAPAVidClass@@XZ 1006b320 f   Moveable.obj
 0001:0006a3c0       ??_EidMoveable@@UAEPAXI@Z  1006b3c0 f i Moveable.obj
 0001:0006a3c0       ??_GidMoveable@@UAEPAXI@Z  1006b3c0 f i Moveable.obj
 0001:0006a3c0       ??_GidBarrel@@UAEPAXI@Z    1006b3c0 f i Moveable.obj
 0001:0006a3c0       ??_EidBarrel@@UAEPAXI@Z    1006b3c0 f i Moveable.obj
 0001:0006a3e0       ?Spawn@idMoveable@@QAEXXZ  1006b3e0 f   Moveable.obj
 0001:0006abd0       ?Save@idMoveable@@QBEXPAVidSaveGame@@@Z 1006bbd0 f   Moveable.obj
 0001:0006ad00       ?InitInitialSpline@idMoveable@@IAEXH@Z 1006bd00 f   Moveable.obj
 0001:0006b080       ?FollowInitialSplinePath@idMoveable@@IAE_NXZ 1006c080 f   Moveable.obj
 0001:0006b4f0       ?Think@idMoveable@@UAEXXZ  1006c4f0 f   Moveable.obj
 0001:0006b520       ?Event_Activate@idMoveable@@IAEXPAVidEntity@@@Z 1006c520 f   Moveable.obj
 0001:0006b6c0       ?Event_SetOwnerFromSpawnArgs@idMoveable@@IAEXXZ 1006c6c0 f   Moveable.obj
 0001:0006b7b0       ??0idBarrel@@QAE@XZ        1006c7b0 f   Moveable.obj
 0001:0006b8d0       ?Think@idBarrel@@UAEXXZ    1006c8d0 f   Moveable.obj
 0001:0006b900       ?Spawn@idBarrel@@QAEXXZ    1006c900 f   Moveable.obj
 0001:0006ba40       ??0idExplodingBarrel@@QAE@XZ 1006ca40 f   Moveable.obj
 0001:0006bb00       ??_GidExplodingBarrel@@UAEPAXI@Z 1006cb00 f i Moveable.obj
 0001:0006bb00       ??_EidExplodingBarrel@@UAEPAXI@Z 1006cb00 f i Moveable.obj
 0001:0006bb90       ?StartBurning@idExplodingBarrel@@QAEXXZ 1006cb90 f   Moveable.obj
 0001:0006bbb0       ?Restore@idMoveable@@QAEXPAVidRestoreGame@@@Z 1006cbb0 f   Moveable.obj
 0001:0006bcd0       ?CreateInstance@idBarrel@@SAPAVidClass@@XZ 1006ccd0 f   Moveable.obj
 0001:0006bd70       ?CreateInstance@idExplodingBarrel@@SAPAVidClass@@XZ 1006cd70 f   Moveable.obj
 0001:0006be10       ?GetType@idMover@@UBEPAVidTypeInfo@@XZ 1006ce10 f   Mover.obj
 0001:0006be20       ?Killed@idMover@@UAEXPAVidEntity@@0HABVidVec3@@H@Z 1006ce20 f   Mover.obj
 0001:0006be30       ?Event_SetCallback@idMover@@AAEXXZ 1006ce30 f   Mover.obj
 0001:0006bea0       ?Event_FindGuiTargets@idMover@@AAEXXZ 1006cea0 f   Mover.obj
 0001:0006bec0       ?Event_StopMoving@idMover@@AAEXXZ 1006cec0 f   Mover.obj
 0001:0006bef0       ?DoneMoving@idMover@@MAEXXZ 1006cef0 f   Mover.obj
 0001:0006bf50       ?Event_StopRotating@idMover@@AAEXXZ 1006cf50 f   Mover.obj
 0001:0006bfa0       ?DoneRotating@idMover@@MAEXXZ 1006cfa0 f   Mover.obj
 0001:0006bfe0       ?UpdateRotationSound@idMover@@IAEXW4moveStage_t@1@@Z 1006cfe0 f   Mover.obj
 0001:0006bfe0       ?UpdateMoveSound@idMover@@IAEXW4moveStage_t@1@@Z 1006cfe0 f   Mover.obj
 0001:0006c080       ?Event_SetMoveSpeed@idMover@@AAEXM@Z 1006d080 f   Mover.obj
 0001:0006c0c0       ?Event_SetMoveTime@idMover@@AAEXM@Z 1006d0c0 f   Mover.obj
 0001:0006c110       ?Event_SetAccellerationTime@idMover@@AAEXM@Z 1006d110 f   Mover.obj
 0001:0006c160       ?Event_SetDecelerationTime@idMover@@AAEXM@Z 1006d160 f   Mover.obj
 0001:0006c1b0       ?Event_MoveTo@idMover@@AAEXPAVidEntity@@@Z 1006d1b0 f   Mover.obj
 0001:0006c230       ?Event_MoveToPos@idMover@@AAEXAAVidVec3@@@Z 1006d230 f   Mover.obj
 0001:0006c230       ?MoveToPos@idMover@@IAEXABVidVec3@@@Z 1006d230 f   Mover.obj
 0001:0006c280       ?Event_MoveDecelerateTo@idMover@@AAEXMM@Z 1006d280 f   Mover.obj
 0001:0006c4d0       ?Event_Bob@idMover@@AAEXMMAAVidVec3@@@Z 1006d4d0 f   Mover.obj
 0001:0006c550       ?Event_EnableSplineAngles@idMover@@AAEXXZ 1006d550 f   Mover.obj
 0001:0006c560       ?Event_DisableSplineAngles@idMover@@AAEXXZ 1006d560 f   Mover.obj
 0001:0006c570       ?Event_IsMoving@idMover@@AAEXXZ 1006d570 f   Mover.obj
 0001:0006c5a0       ?Event_IsRotating@idMover@@AAEXXZ 1006d5a0 f   Mover.obj
 0001:0006c5d0       ?WriteToSnapshot@idMover@@UBEXAAVidBitMsgDelta@@@Z 1006d5d0 f   Mover.obj
 0001:0006c630       ?GetType@idSplinePath@@UBEPAVidTypeInfo@@XZ 1006d630 f   Mover.obj
 0001:0006c640       ?GetType@idElevator@@UBEPAVidTypeInfo@@XZ 1006d640 f   Mover.obj
 0001:0006c650       ?GetDoor@idElevator@@AAEPAVidDoor@@PBD@Z 1006d650 f   Mover.obj
 0001:0006c6d0       ?GetType@idMover_Binary@@UBEPAVidTypeInfo@@XZ 1006d6d0 f   Mover.obj
 0001:0006c6e0       ?Event_SetCallback@idMover_Binary@@IAEXXZ 1006d6e0 f   Mover.obj
 0001:0006c720       ?SetMoverState@idMover_Binary@@IAEXW4moverState_t@@H@Z 1006d720 f   Mover.obj
 0001:0006c9d0       ?MatchActivateTeam@idMover_Binary@@IAEXW4moverState_t@@H@Z 1006d9d0 f   Mover.obj
 0001:0006cc70       ?Event_MatchActivateTeam@idMover_Binary@@IAEXW4moverState_t@@H@Z 1006dc70 f   Mover.obj
 0001:0006cc80       ?Event_Enable@idMover_Binary@@IAEXXZ 1006dc80 f   Mover.obj
 0001:0006cc80       ?Event_Disable@idMover_Binary@@IAEXXZ 1006dc80 f   Mover.obj
 0001:0006ccb0       ?Event_ReturnToPos1@idMover_Binary@@IAEXXZ 1006dcb0 f   Mover.obj
 0001:0006cf40       ?PostBind@idMover_Binary@@UAEXXZ 1006df40 f   Mover.obj
 0001:0006cfa0       ?Event_FindGuiTargets@idMover_Binary@@IAEXXZ 1006dfa0 f   Mover.obj
 0001:0006cfc0       ?InitSpeed@idMover_Binary@@QAEXAAVidVec3@@0MMM@Z 1006dfc0 f   Mover.obj
 0001:0006d1c0       ?InitTime@idMover_Binary@@QAEXAAVidVec3@@0MMM@Z 1006e1c0 f   Mover.obj
 0001:0006d2f0       ?WriteToSnapshot@idMover_Binary@@UBEXAAVidBitMsgDelta@@@Z 1006e2f0 f   Mover.obj
 0001:0006d330       ?GetType@idDoor@@UBEPAVidTypeInfo@@XZ 1006e330 f   Mover.obj
 0001:0006d340       ?Think@idDoor@@UAEXXZ      1006e340 f   Mover.obj
 0001:0006d7a0       ?PreBind@idPlat@@UAEXXZ    1006e7a0 f   Mover.obj
 0001:0006d7a0       ?PreBind@idMover_Binary@@UAEXXZ 1006e7a0 f   Mover.obj
 0001:0006d7a0       ?PreBind@idDoor@@UAEXXZ    1006e7a0 f   Mover.obj
 0001:0006d800       ?Hide@idDoor@@UAEXXZ       1006e800 f   Mover.obj
 0001:0006d8e0       ?GetLocalTriggerPosition@idDoor@@AAEXPBVidClipModel@@@Z 1006e8e0 f   Mover.obj
 0001:0006db10       ?IsOpen@idDoor@@QAE_NXZ    1006eb10 f   Mover.obj
 0001:0006db20       ?AllowPlayerOnly@idDoor@@QAE_NPAVidEntity@@@Z 1006eb20 f   Mover.obj
 0001:0006db50       ?Event_StartOpen@idDoor@@AAEXXZ 1006eb50 f   Mover.obj
 0001:0006dc10       ?Event_IsOpen@idDoor@@AAEXXZ 1006ec10 f   Mover.obj
 0001:0006dc40       ?Event_OpenPortal@idDoor@@AAEXXZ 1006ec40 f   Mover.obj
 0001:0006dcb0       ?GetType@idPlat@@UBEPAVidTypeInfo@@XZ 1006ecb0 f   Mover.obj
 0001:0006dcc0       ?Save@idPlat@@QBEXPAVidSaveGame@@@Z 1006ecc0 f   Mover.obj
 0001:0006dd00       ?Restore@idPlat@@QAEXPAVidRestoreGame@@@Z 1006ed00 f   Mover.obj
 0001:0006dd40       ?Think@idPlat@@UAEXXZ      1006ed40 f   Mover.obj
 0001:0006df90       ?GetLocalTriggerPosition@idPlat@@AAEXPBVidClipModel@@@Z 1006ef90 f   Mover.obj
 0001:0006e1c0       ?Event_PartBlocked@idDoor@@AAEXPAVidEntity@@@Z 1006f1c0 f   Mover.obj
 0001:0006e1c0       ?Event_PartBlocked@idPlat@@AAEXPAVidEntity@@@Z 1006f1c0 f   Mover.obj
 0001:0006e200       ?GetType@idMover_Periodic@@UBEPAVidTypeInfo@@XZ 1006f200 f   Mover.obj
 0001:0006e210       ?Save@idMover_Periodic@@QBEXPAVidSaveGame@@@Z 1006f210 f   Mover.obj
 0001:0006e240       ?Restore@idMover_Periodic@@QAEXPAVidRestoreGame@@@Z 1006f240 f   Mover.obj
 0001:0006e280       ?Think@idMover_Periodic@@UAEXXZ 1006f280 f   Mover.obj
 0001:0006e2a0       ?Event_PartBlocked@idMover_Periodic@@IAEXPAVidEntity@@@Z 1006f2a0 f   Mover.obj
 0001:0006e2e0       ?WriteToSnapshot@idMover_Periodic@@UBEXAAVidBitMsgDelta@@@Z 1006f2e0 f   Mover.obj
 0001:0006e310       ?GetType@idRotater@@UBEPAVidTypeInfo@@XZ 1006f310 f   Mover.obj
 0001:0006e320       ?GetType@idBobber@@UBEPAVidTypeInfo@@XZ 1006f320 f   Mover.obj
 0001:0006e330       ?GetType@idPendulum@@UBEPAVidTypeInfo@@XZ 1006f330 f   Mover.obj
 0001:0006e340       ?GetType@idRiser@@UBEPAVidTypeInfo@@XZ 1006f340 f   Mover.obj
 0001:0006e350       ?Spawn@idMover@@QAEXXZ     1006f350 f   Mover.obj
 0001:0006e730       ?Show@idMover@@UAEXXZ      1006f730 f   Mover.obj
 0001:0006e790       ?VectorForDir@idMover@@AAEXMAAVidVec3@@@Z 1006f790 f   Mover.obj
 0001:0006ea50       ?SetGuiState@idMover@@IBEXPBD0@Z 1006fa50 f   Mover.obj
 0001:0006eb50       ?SetGuiStates@idMover@@IAEXPBD@Z 1006fb50 f   Mover.obj
 0001:0006ebb0       ?Event_InitGuiTargets@idMover@@AAEXXZ 1006fbb0 f   Mover.obj
 0001:0006ebc0       ?Event_UpdateMove@idMover@@AAEXXZ 1006fbc0 f   Mover.obj
 0001:0006ed30       ?BeginMove@idMover@@MAEXPAVidThread@@@Z 1006fd30 f   Mover.obj
 0001:0006f070       ?Event_UpdateRotation@idMover@@AAEXXZ 10070070 f   Mover.obj
 0001:0006f290       ?BeginRotation@idMover@@MAEXPAVidThread@@_N@Z 10070290 f   Mover.obj
 0001:0006f510       ?Event_TeamBlocked@idMover@@AAEXPAVidEntity@@0@Z 10070510 f   Mover.obj
 0001:0006f550       ?Event_PartBlocked@idMover@@IAEXPAVidEntity@@@Z 10070550 f   Mover.obj
 0001:0006f5c0       ?Event_MoveDir@idMover@@AAEXMM@Z 100705c0 f   Mover.obj
 0001:0006f670       ?Event_MoveAccelerateTo@idMover@@AAEXMM@Z 10070670 f   Mover.obj
 0001:0006f8c0       ?Event_RotateDownTo@idMover@@AAEXHM@Z 100708c0 f   Mover.obj
 0001:0006f940       ?Event_RotateUpTo@idMover@@AAEXHM@Z 10070940 f   Mover.obj
 0001:0006f9c0       ?Event_RotateTo@idMover@@AAEXAAVidAngles@@@Z 100709c0 f   Mover.obj
 0001:0006fa00       ?Event_Rotate@idMover@@AAEXAAVidAngles@@@Z 10070a00 f   Mover.obj
 0001:0006fb00       ?Event_RotateOnce@idMover@@AAEXAAVidAngles@@@Z 10070b00 f   Mover.obj
 0001:0006fb90       ?Event_Sway@idMover@@AAEXMMAAVidAngles@@@Z 10070b90 f   Mover.obj
 0001:0006fce0       ?Event_OpenPortal@idMover@@IAEXXZ 10070ce0 f   Mover.obj
 0001:0006fd00       ?Event_ClosePortal@idMover@@IAEXXZ 10070d00 f   Mover.obj
 0001:0006fd20       ?Event_RemoveInitialSplineAngles@idMover@@AAEXXZ 10070d20 f   Mover.obj
 0001:0006fdb0       ?Event_StopSpline@idMover@@AAEXXZ 10070db0 f   Mover.obj
 0001:0006fde0       ?ReadFromSnapshot@idMover@@UAEXABVidBitMsgDelta@@@Z 10070de0 f   Mover.obj
 0001:0006fe70       ?CreateInstance@idSplinePath@@SAPAVidClass@@XZ 10070e70 f   Mover.obj
 0001:0006ff20       ?Save@idElevator@@QBEXPAVidSaveGame@@@Z 10070f20 f   Mover.obj
 0001:00070000       ??0floorInfo_s@@QAE@XZ     10071000 f i Mover.obj
 0001:00070020       ??1floorInfo_s@@QAE@XZ     10071020 f i Mover.obj
 0001:00070030       ?Event_Touch@idElevator@@IAEXPAVidEntity@@PAUtrace_s@@@Z 10071030 f   Mover.obj
 0001:00070110       ?GetFloorInfo@idElevator@@QAEPAUfloorInfo_s@@H@Z 10071110 f   Mover.obj
 0001:00070150       ?Event_SetGuiStates@idElevator@@AAEXXZ 10071150 f   Mover.obj
 0001:00070170       ?DisableAllDoors@idElevator@@AAEXXZ 10071170 f   Mover.obj
 0001:000701e0       ?EnableProperDoors@idElevator@@AAEXXZ 100711e0 f   Mover.obj
 0001:00070270       ?Save@idMover_Binary@@QBEXPAVidSaveGame@@@Z 10071270 f   Mover.obj
 0001:00070480       ?GetMovedir@idMover_Binary@@KAXMAAVidVec3@@@Z 10071480 f   Mover.obj
 0001:00070510       ?Event_OpenPortal@idMover_Binary@@IAEXXZ 10071510 f   Mover.obj
 0001:00070570       ?Event_ClosePortal@idMover_Binary@@IAEXXZ 10071570 f   Mover.obj
 0001:000705e0       ?UpdateBuddies@idMover_Binary@@QAEXH@Z 100715e0 f   Mover.obj
 0001:00070640       ?SetGuiState@idMover_Binary@@IBEXPBD0@Z 10071640 f   Mover.obj
 0001:00070730       ?Event_InitGuiTargets@idMover_Binary@@IAEXXZ 10071730 f   Mover.obj
 0001:00070750       ?ReadFromSnapshot@idMover_Binary@@UAEXABVidBitMsgDelta@@@Z 10071750 f   Mover.obj
 0001:000707f0       ?Save@idDoor@@QBEXPAVidSaveGame@@@Z 100717f0 f   Mover.obj
 0001:000708e0       ?Restore@idDoor@@QAEXPAVidRestoreGame@@@Z 100718e0 f   Mover.obj
 0001:000709f0       ?PostBind@idDoor@@UAEXXZ   100719f0 f   Mover.obj
 0001:00070a60       ?IsLocked@idDoor@@QAEHXZ   10071a60 f   Mover.obj
 0001:00070a90       ?CalcTriggerBounds@idDoor@@AAEXMAAVidBounds@@@Z 10071a90 f   Mover.obj
 0001:00070c60       ?Event_SpawnDoorTrigger@idDoor@@AAEXXZ 10071c60 f   Mover.obj
 0001:00070e90       ?Event_SpawnSoundTrigger@idDoor@@AAEXXZ 10071e90 f   Mover.obj
 0001:00070fa0       ?Event_SpectatorTouch@idDoor@@AAEXPAVidEntity@@PAUtrace_s@@@Z 10071fa0 f   Mover.obj
 0001:00071120       ?Event_Locked@idDoor@@AAEXXZ 10072120 f   Mover.obj
 0001:00071160       ?Event_ClosePortal@idDoor@@AAEXXZ 10072160 f   Mover.obj
 0001:00071230       ?PostBind@idPlat@@UAEXXZ   10072230 f   Mover.obj
 0001:00071290       ?SpawnPlatTrigger@idPlat@@AAEXAAVidVec3@@@Z 10072290 f   Mover.obj
 0001:00071480       ?CreateInstance@idMover_Periodic@@SAPAVidClass@@XZ 10072480 f   Mover.obj
 0001:00071540       ?Spawn@idMover_Periodic@@QAEXXZ 10072540 f   Mover.obj
 0001:000715a0       ?ReadFromSnapshot@idMover_Periodic@@UAEXABVidBitMsgDelta@@@Z 100725a0 f   Mover.obj
 0001:000715e0       ??0idRotater@@QAE@XZ       100725e0 f   Mover.obj
 0001:00071670       ?Spawn@idRotater@@QAEXXZ   10072670 f   Mover.obj
 0001:00071850       ?Save@idRotater@@QBEXPAVidSaveGame@@@Z 10072850 f   Mover.obj
 0001:00071870       ?Restore@idRotater@@QAEXPAVidRestoreGame@@@Z 10072870 f   Mover.obj
 0001:00071890       ?Event_Activate@idRotater@@AAEXPAVidEntity@@@Z 10072890 f   Mover.obj
 0001:000719d0       ?CreateInstance@idBobber@@SAPAVidClass@@XZ 100729d0 f   Mover.obj
 0001:00071aa0       ?Spawn@idBobber@@QAEXXZ    10072aa0 f   Mover.obj
 0001:00071cf0       ?CreateInstance@idPendulum@@SAPAVidClass@@XZ 10072cf0 f   Mover.obj
 0001:00071dc0       ?Spawn@idPendulum@@QAEXXZ  10072dc0 f   Mover.obj
 0001:000720e0       ?CreateInstance@idRiser@@SAPAVidClass@@XZ 100730e0 f   Mover.obj
 0001:000721b0       ??_GidMover_Periodic@@UAEPAXI@Z 100731b0 f i Mover.obj
 0001:000721b0       ??_EidBobber@@UAEPAXI@Z    100731b0 f i Mover.obj
 0001:000721b0       ??_GidShaking@@UAEPAXI@Z   100731b0 f i Misc.obj
 0001:000721b0       ??_EidMover_Periodic@@UAEPAXI@Z 100731b0 f i Mover.obj
 0001:000721b0       ??_GidRotater@@UAEPAXI@Z   100731b0 f i Mover.obj
 0001:000721b0       ??_EidRotater@@UAEPAXI@Z   100731b0 f i Mover.obj
 0001:000721b0       ??_GidBobber@@UAEPAXI@Z    100731b0 f i Mover.obj
 0001:000721b0       ??_GidPendulum@@UAEPAXI@Z  100731b0 f i Mover.obj
 0001:000721b0       ??_EidPendulum@@UAEPAXI@Z  100731b0 f i Mover.obj
 0001:000721b0       ??_GidRiser@@UAEPAXI@Z     100731b0 f i Mover.obj
 0001:000721b0       ??_EidRiser@@UAEPAXI@Z     100731b0 f i Mover.obj
 0001:000721b0       ??_EidShaking@@UAEPAXI@Z   100731b0 f i Misc.obj
 0001:00072220       ?Spawn@idRiser@@QAEXXZ     10073220 f   Mover.obj
 0001:000723b0       ?Event_Activate@idRiser@@AAEXPAVidEntity@@@Z 100733b0 f   Mover.obj
 0001:000724a0       ??0idMover@@QAE@XZ         100734a0 f   Mover.obj
 0001:00072600       ??1idMover@@UAE@XZ         10073600 f i Mover.obj
 0001:00072680       ?Save@idMover@@QBEXPAVidSaveGame@@@Z 10073680 f   Mover.obj
 0001:00072960       ?Event_PostRestore@idMover@@AAEXHHHHH@Z 10073960 f   Mover.obj
 0001:00072b50       ?Event_StartSpline@idMover@@AAEXPAVidEntity@@@Z 10073b50 f   Mover.obj
 0001:00072d80       ?Event_Activate@idMover@@AAEXPAVidEntity@@@Z 10073d80 f   Mover.obj
 0001:00072da0       ?SetGuiStates@idMover_Binary@@QAEXPBD@Z 10073da0 f   Mover.obj
 0001:00072ec0       ?SetBlocked@idMover_Binary@@QAEX_N@Z 10073ec0 f   Mover.obj
 0001:00072fa0       ?Spawn@idDoor@@QAEXXZ      10073fa0 f   Mover.obj
 0001:00073600       ?Show@idDoor@@UAEXXZ       10074600 f   Mover.obj
 0001:00073730       ?Spawn@idPlat@@QAEXXZ      10074730 f   Mover.obj
 0001:00073910       ?CreateInstance@idRotater@@SAPAVidClass@@XZ 10074910 f   Mover.obj
 0001:000739b0       ?CreateInstance@idMover@@SAPAVidClass@@XZ 100749b0 f   Mover.obj
 0001:00073a50       ??_GidMover@@UAEPAXI@Z     10074a50 f i Mover.obj
 0001:00073a50       ??_EidMover@@UAEPAXI@Z     10074a50 f i Mover.obj
 0001:00073ae0       ?Restore@idMover@@QAEXPAVidRestoreGame@@@Z 10074ae0 f   Mover.obj
 0001:00073ef0       ??0idMover_Binary@@QAE@XZ  10074ef0 f   Mover.obj
 0001:00074090       ??1idMover_Binary@@UAE@XZ  10075090 f   Mover.obj
 0001:000741c0       ?Restore@idMover_Binary@@QAEXPAVidRestoreGame@@@Z 100751c0 f   Mover.obj
 0001:00074800       ?Spawn@idMover_Binary@@QAEXXZ 10075800 f   Mover.obj
 0001:00074f90       ?Event_Reached_BinaryMover@idMover_Binary@@IAEXXZ 10075f90 f   Mover.obj
 0001:000751b0       ?GotoPosition1@idMover_Binary@@QAEXXZ 100761b0 f   Mover.obj
 0001:00075540       ?GotoPosition2@idMover_Binary@@QAEXXZ 10076540 f   Mover.obj
 0001:00075b00       ?Use_BinaryMover@idMover_Binary@@QAEXPAVidEntity@@@Z 10076b00 f   Mover.obj
 0001:00075ee0       ?Event_Use_BinaryMover@idMover_Binary@@IAEXPAVidEntity@@@Z 10076ee0 f   Mover.obj
 0001:00075ef0       ??0idDoor@@QAE@XZ          10076ef0 f   Mover.obj
 0001:000760e0       ??1idDoor@@UAE@XZ          100770e0 f   Mover.obj
 0001:00076190       ?Use@idDoor@@QAEXPAVidEntity@@0@Z 10077190 f   Mover.obj
 0001:00076210       ?Lock@idDoor@@QAEXH@Z      10077210 f   Mover.obj
 0001:00076350       ?Event_Reached_BinaryMover@idDoor@@AAEXXZ 10077350 f   Mover.obj
 0001:000764c0       ?Event_TeamBlocked@idDoor@@AAEXPAVidEntity@@0@Z 100774c0 f   Mover.obj
 0001:00076550       ?Event_Touch@idDoor@@AAEXPAVidEntity@@PAUtrace_s@@@Z 10077550 f   Mover.obj
 0001:00076630       ?Event_Activate@idDoor@@AAEXPAVidEntity@@@Z 10077630 f   Mover.obj
 0001:00076760       ?Event_Open@idDoor@@AAEXXZ 10077760 f   Mover.obj
 0001:00076770       ?Event_Close@idDoor@@AAEXXZ 10077770 f   Mover.obj
 0001:00076780       ?Event_Lock@idDoor@@AAEXH@Z 10077780 f   Mover.obj
 0001:00076790       ??0idPlat@@QAE@XZ          10077790 f   Mover.obj
 0001:00076830       ?Event_Touch@idPlat@@AAEXPAVidEntity@@PAUtrace_s@@@Z 10077830 f   Mover.obj
 0001:00076890       ?Event_TeamBlocked@idPlat@@AAEXPAVidEntity@@0@Z 10077890 f   Mover.obj
 0001:000768d0       ??1?$idList@UfloorInfo_s@@@@QAE@XZ 100778d0 f i Mover.obj
 0001:00076910       ??0idElevator@@QAE@XZ      10077910 f   Mover.obj
 0001:000769e0       ??1idElevator@@UAE@XZ      100779e0 f i Mover.obj
 0001:00076aa0       ?Restore@idElevator@@QAEXPAVidRestoreGame@@@Z 10077aa0 f   Mover.obj
 0001:00076f30       ?Spawn@idElevator@@QAEXXZ  10077f30 f   Mover.obj
 0001:00077530       ?OpenFloorDoor@idElevator@@AAEXH@Z 10078530 f   Mover.obj
 0001:00077590       ?OpenInnerDoor@idElevator@@AAEXXZ 10078590 f   Mover.obj
 0001:000775d0       ?Event_PostFloorArrival@idElevator@@AAEXXZ 100785d0 f   Mover.obj
 0001:00077680       ?DoneMoving@idElevator@@MAEXXZ 10078680 f   Mover.obj
 0001:00077800       ?CloseAllDoors@idElevator@@AAEXXZ 10078800 f   Mover.obj
 0001:00077870       ?CreateInstance@idMover_Binary@@SAPAVidClass@@XZ 10078870 f   Mover.obj
 0001:00077910       ??_GidMover_Binary@@UAEPAXI@Z 10078910 f i Mover.obj
 0001:00077910       ??_EidMover_Binary@@UAEPAXI@Z 10078910 f i Mover.obj
 0001:00077930       ?CreateInstance@idDoor@@SAPAVidClass@@XZ 10078930 f   Mover.obj
 0001:000779d0       ??_EidDoor@@UAEPAXI@Z      100789d0 f i Mover.obj
 0001:000779d0       ??_GidDoor@@UAEPAXI@Z      100789d0 f i Mover.obj
 0001:000779f0       ?CreateInstance@idPlat@@SAPAVidClass@@XZ 100789f0 f   Mover.obj
 0001:00077a90       ??_EidPlat@@UAEPAXI@Z      10078a90 f i Mover.obj
 0001:00077a90       ??_GidPlat@@UAEPAXI@Z      10078a90 f i Mover.obj
 0001:00077b10       ?CreateInstance@idElevator@@SAPAVidClass@@XZ 10078b10 f   Mover.obj
 0001:00077bb0       ??_GidElevator@@UAEPAXI@Z  10078bb0 f i Mover.obj
 0001:00077bb0       ??_EidElevator@@UAEPAXI@Z  10078bb0 f i Mover.obj
 0001:00077bd0       ?HandleSingleGuiCommand@idElevator@@UAE_NPAVidEntity@@PAVidLexer@@@Z 10078bd0 f   Mover.obj
 0001:00077d80       ?Event_GotoFloor@idElevator@@QAEXH@Z 10078d80 f   Mover.obj
 0001:00077e50       ?BeginMove@idElevator@@MAEXPAVidThread@@@Z 10078e50 f   Mover.obj
 0001:00077f60       ?Think@idElevator@@EAEXXZ  10078f60 f   Mover.obj
 0001:000780e0       ?Event_Activate@idElevator@@AAEXPAVidEntity@@@Z 100790e0 f   Mover.obj
 0001:00078150       ?Event_TeamBlocked@idElevator@@AAEXPAVidEntity@@0@Z 10079150 f   Mover.obj
 0001:000781f0       ?ServerClientConnect@idMultiplayerGame@@QAEXH@Z 100791f0 f   MultiplayerGame.obj
 0001:00078220       ?GetFlagPoints@idMultiplayerGame@@QAEHH@Z 10079220 f   MultiplayerGame.obj
 0001:00078230       ?WinningTeam@idMultiplayerGame@@AAEHXZ 10079230 f   MultiplayerGame.obj
 0001:00078250       ?PlayerScoreCTF@idMultiplayerGame@@QAEXHH@Z 10079250 f   MultiplayerGame.obj
 0001:00078270       ?GetFlagCarrier@idMultiplayerGame@@QAEHH@Z 10079270 f   MultiplayerGame.obj
 0001:00078300       ?TeamScore@idMultiplayerGame@@AAEXHHH@Z 10079300 f   MultiplayerGame.obj
 0001:00078380       ?PlayerStats@idMultiplayerGame@@QAEXHPADH@Z 10079380 f   MultiplayerGame.obj
 0001:00078400       ?FillTourneySlots@idMultiplayerGame@@AAEXXZ 10079400 f   MultiplayerGame.obj
 0001:00078500       ?DisableMenu@idMultiplayerGame@@AAEXXZ 10079500 f   MultiplayerGame.obj
 0001:00078580       ?DropWeapon@idMultiplayerGame@@QAEXH@Z 10079580 f   MultiplayerGame.obj
 0001:000785c0       ?ServerStartVote@idMultiplayerGame@@QAEXHW4vote_flags_t@1@PBD@Z 100795c0 f   MultiplayerGame.obj
 0001:00078660       ?WantKilled@idMultiplayerGame@@QAEXH@Z 10079660 f   MultiplayerGame.obj
 0001:000786a0       ?ToggleReady@idMultiplayerGame@@QAEXXZ 100796a0 f   MultiplayerGame.obj
 0001:000786f0       ?ToggleTeam@idMultiplayerGame@@QAEXXZ 100796f0 f   MultiplayerGame.obj
 0001:00078740       ?CanPlay@idMultiplayerGame@@QAE_NPAVidPlayer@@@Z 10079740 f   MultiplayerGame.obj
 0001:00078770       ?IsGametypeTeamBased@idMultiplayerGame@@QAE_NXZ 10079770 f   MultiplayerGame.obj
 0001:000787a0       ?IsGametypeFlagBased@idMultiplayerGame@@QAE_NXZ 100797a0 f   MultiplayerGame.obj
 0001:000787c0       ?FindTeamFlags@idMultiplayerGame@@AAEXXZ 100797c0 f   MultiplayerGame.obj
 0001:00078830       ?IsFlagMsgOn@idMultiplayerGame@@QAE_NXZ 10079830 f   MultiplayerGame.obj
 0001:00078860       ??0idStr@@QAE@XZ           10079860 f i AF.obj
 0001:00078860       ??0mpChatLine_s@@QAE@XZ    10079860 f i MultiplayerGame.obj
 0001:00078880       ?Clear@idMultiplayerGame@@AAEXXZ 10079880 f   MultiplayerGame.obj
 0001:00078a20       ?ClearHUDStatus@idMultiplayerGame@@QAEXXZ 10079a20 f   MultiplayerGame.obj
 0001:00078ab0       ?UpdatePlayerRanks@idMultiplayerGame@@AAEXXZ 10079ab0 f   MultiplayerGame.obj
 0001:00078c70       ?UpdateRankColor@idMultiplayerGame@@AAEXPAVidUserInterface@@PBDHABVidVec3@@@Z 10079c70 f   MultiplayerGame.obj
 0001:00078cc0       ?UpdateScoreboard@idMultiplayerGame@@AAEXPAVidUserInterface@@PAVidPlayer@@@Z 10079cc0 f   MultiplayerGame.obj
 0001:00079730       ?UpdateCTFScoreboard@idMultiplayerGame@@AAEXPAVidUserInterface@@PAVidPlayer@@@Z 1007a730 f   MultiplayerGame.obj
 0001:00079e60       ?GameTime@idMultiplayerGame@@AAEPBDXZ 1007ae60 f   MultiplayerGame.obj
 0001:00079f90       ?NumActualClients@idMultiplayerGame@@QAEH_NPAH@Z 1007af90 f   MultiplayerGame.obj
 0001:0007a040       ?EnoughClientsToPlay@idMultiplayerGame@@AAE_NXZ 1007b040 f   MultiplayerGame.obj
 0001:0007a0b0       ?AllPlayersReady@idMultiplayerGame@@AAE_NXZ 1007b0b0 f   MultiplayerGame.obj
 0001:0007a1e0       ?TimeLimitHit@idMultiplayerGame@@AAE_NXZ 1007b1e0 f   MultiplayerGame.obj
 0001:0007a230       ?PointLimitHit@idMultiplayerGame@@AAE_NXZ 1007b230 f   MultiplayerGame.obj
 0001:0007a290       ?FragLeader@idMultiplayerGame@@AAEPAVidPlayer@@XZ 1007b290 f   MultiplayerGame.obj
 0001:0007a480       ?UpdateTourneyLine@idMultiplayerGame@@AAEXXZ 1007b480 f   MultiplayerGame.obj
 0001:0007a580       ?CycleTourneyPlayers@idMultiplayerGame@@AAEXXZ 1007b580 f   MultiplayerGame.obj
 0001:0007a640       ?ExecuteVote@idMultiplayerGame@@QAEXXZ 1007b640 f   MultiplayerGame.obj
 0001:0007a810       ?SetMapShot@idMultiplayerGame@@AAEXXZ 1007b810 f   MultiplayerGame.obj
 0001:0007a8a0       ?UpdateHud@idMultiplayerGame@@AAEXPAVidPlayer@@PAVidUserInterface@@@Z 1007b8a0 f   MultiplayerGame.obj
 0001:0007abb0       ?DrawScoreBoard@idMultiplayerGame@@AAEXPAVidPlayer@@@Z 1007bbb0 f   MultiplayerGame.obj
 0001:0007ac70       ?DrawChat@idMultiplayerGame@@AAEXXZ 1007bc70 f   MultiplayerGame.obj
 0001:0007ae40       ?WriteToSnapshot@idMultiplayerGame@@QBEXAAVidBitMsgDelta@@@Z 1007be40 f   MultiplayerGame.obj
 0001:0007af80       ?ReadFromSnapshot@idMultiplayerGame@@QAEXABVidBitMsgDelta@@@Z 1007bf80 f   MultiplayerGame.obj
 0001:0007b0f0       ?PlayGlobalSound@idMultiplayerGame@@QAEXHW4snd_evt_t@@PBD@Z 1007c0f0 f   MultiplayerGame.obj
 0001:0007b200       ?PlayTeamSound@idMultiplayerGame@@QAEXHW4snd_evt_t@@PBD@Z 1007c200 f   MultiplayerGame.obj
 0001:0007b270       ?SuddenRespawn@idMultiplayerGame@@AAEXXZ 1007c270 f   MultiplayerGame.obj
 0001:0007b2f0       ?DropWeapon_f@idMultiplayerGame@@SAXABVidCmdArgs@@@Z 1007c2f0 f   MultiplayerGame.obj
 0001:0007b360       ?MessageMode@idMultiplayerGame@@AAEXABVidCmdArgs@@@Z 1007c360 f   MultiplayerGame.obj
 0001:0007b420       ?ClientCallVote@idMultiplayerGame@@QAEXW4vote_flags_t@1@PBD@Z 1007c420 f   MultiplayerGame.obj
 0001:0007b4a0       ?EnterGame@idMultiplayerGame@@QAEXH@Z 1007c4a0 f   MultiplayerGame.obj
 0001:0007b540       ?VoiceChat@idMultiplayerGame@@AAEXABVidCmdArgs@@_N@Z 1007c540 f   MultiplayerGame.obj
 0001:0007b6c0       ?ServerWriteInitialReliableMessages@idMultiplayerGame@@QAEXH@Z 1007c6c0 f   MultiplayerGame.obj
 0001:0007b870       ?ClientReadStartState@idMultiplayerGame@@QAEXABVidBitMsg@@@Z 1007c870 f   MultiplayerGame.obj
 0001:0007b930       ?ClientReadWarmupTime@idMultiplayerGame@@QAEXABVidBitMsg@@@Z 1007c930 f   MultiplayerGame.obj
 0001:0007b950       ?GetTeamFlag@idMultiplayerGame@@QAEPAVidItemTeam@@H@Z 1007c950 f   MultiplayerGame.obj
 0001:0007b990       ?GetFlagStatus@idMultiplayerGame@@QAE?AW4flagStatus_t@@H@Z 1007c990 f   MultiplayerGame.obj
 0001:0007ba10       ?GetBestGametype@idMultiplayerGame@@QAE?AVidStr@@PBD0@Z 1007ca10 f   MultiplayerGame.obj
 0001:0007bc70       ??0idMultiplayerGame@@QAE@XZ 1007cc70 f   MultiplayerGame.obj
 0001:0007bd80       ?Shutdown@idMultiplayerGame@@QAEXXZ 1007cd80 f   MultiplayerGame.obj
 0001:0007bd90       ?SetMenuSkin@idMultiplayerGame@@QAEXXZ 1007cd90 f   MultiplayerGame.obj
 0001:0007c0e0       ?ClearGuis@idMultiplayerGame@@QAEXXZ 1007d0e0 f   MultiplayerGame.obj
 0001:0007c310       ?FragLimitHit@idMultiplayerGame@@AAEPAVidPlayer@@XZ 1007d310 f   MultiplayerGame.obj
 0001:0007c440       ?UpdateWinsLosses@idMultiplayerGame@@AAEXPAVidPlayer@@@Z 1007d440 f   MultiplayerGame.obj
 0001:0007c8e0       ?UpdateMainGui@idMultiplayerGame@@QAEXXZ 1007d8e0 f   MultiplayerGame.obj
 0001:0007cc20       ?StartMenu@idMultiplayerGame@@QAEPAVidUserInterface@@XZ 1007dc20 f   MultiplayerGame.obj
 0001:0007d1e0       ?Draw@idMultiplayerGame@@QAE_NH@Z 1007e1e0 f   MultiplayerGame.obj
 0001:0007d760       ?AddChatLine@idMultiplayerGame@@QAAXPBDZZ 1007e760 f   MultiplayerGame.obj
 0001:0007d890       ?PrintMessageEvent@idMultiplayerGame@@QAEXHW4msg_evt_t@1@HH@Z 1007e890 f   MultiplayerGame.obj
 0001:0007e080       ?ForceReady@idMultiplayerGame@@AAEXXZ 1007f080 f   MultiplayerGame.obj
 0001:0007e0f0       ?ForceReady_f@idMultiplayerGame@@SAXABVidCmdArgs@@@Z 1007f0f0 f   MultiplayerGame.obj
 0001:0007e130       ?MessageMode_f@idMultiplayerGame@@SAXABVidCmdArgs@@@Z 1007f130 f   MultiplayerGame.obj
 0001:0007e140       ?ClientStartVote@idMultiplayerGame@@QAEXHPBD@Z 1007f140 f   MultiplayerGame.obj
 0001:0007e270       ?ClientUpdateVote@idMultiplayerGame@@QAEXW4vote_result_t@1@HH@Z 1007f270 f   MultiplayerGame.obj
 0001:0007e410       ?CastVote@idMultiplayerGame@@QAEXH_N@Z 1007f410 f   MultiplayerGame.obj
 0001:0007e5c0       ?ServerCallVote@idMultiplayerGame@@QAEXHABVidBitMsg@@@Z 1007f5c0 f   MultiplayerGame.obj
 0001:0007eec0       ?ProcessChatMessage@idMultiplayerGame@@QAEXH_NPBD11@Z 1007fec0 f   MultiplayerGame.obj
 0001:0007f1b0       ?Precache@idMultiplayerGame@@QAEXXZ 100801b0 f   MultiplayerGame.obj
 0001:0007f470       ?ToggleSpectate@idMultiplayerGame@@QAEXXZ 10080470 f   MultiplayerGame.obj
 0001:0007f520       ?ThrottleUserInfo@idMultiplayerGame@@QAEXXZ 10080520 f   MultiplayerGame.obj
 0001:0007f690       ?VoiceChat_f@idMultiplayerGame@@SAXABVidCmdArgs@@@Z 10080690 f   MultiplayerGame.obj
 0001:0007f6b0       ?VoiceChatTeam_f@idMultiplayerGame@@SAXABVidCmdArgs@@@Z 100806b0 f   MultiplayerGame.obj
 0001:0007f6d0       ?ProcessVoiceChat@idMultiplayerGame@@QAEXH_NH@Z 100806d0 f   MultiplayerGame.obj
 0001:0007fa10       ?ReloadScoreboard@idMultiplayerGame@@QAEXXZ 10080a10 f   MultiplayerGame.obj
 0001:0007fa60       ?Reset@idMultiplayerGame@@QAEXXZ 10080a60 f   MultiplayerGame.obj
 0001:0007fbe0       ?TeamScoreCTF@idMultiplayerGame@@QAEXHH@Z 10080be0 f   MultiplayerGame.obj
 0001:0007fc20       ?PlayerDeath@idMultiplayerGame@@QAEXPAVidPlayer@@0_N@Z 10080c20 f   MultiplayerGame.obj
 0001:0007fd90       ?NewState@idMultiplayerGame@@AAEXW4gameState_t@1@PAVidPlayer@@@Z 10080d90 f   MultiplayerGame.obj
 0001:000802b0       ?CheckVote@idMultiplayerGame@@AAEXXZ 100812b0 f   MultiplayerGame.obj
 0001:00080440       ?HandleGuiCommands@idMultiplayerGame@@QAEPBDPBD@Z 10081440 f   MultiplayerGame.obj
 0001:00081240       ?CheckAbortGame@idMultiplayerGame@@AAEXXZ 10082240 f   MultiplayerGame.obj
 0001:00081350       ?MapRestart@idMultiplayerGame@@QAEXXZ 10082350 f   MultiplayerGame.obj
 0001:00081460       ?SwitchToTeam@idMultiplayerGame@@QAEXHHH@Z 10082460 f   MultiplayerGame.obj
 0001:000815d0       ?SpawnPlayer@idMultiplayerGame@@QAEXH@Z 100825d0 f   MultiplayerGame.obj
 0001:00081680       ?CheckRespawns@idMultiplayerGame@@AAEXPAVidPlayer@@@Z 10082680 f   MultiplayerGame.obj
 0001:00081900       ?DisconnectClient@idMultiplayerGame@@QAEXH@Z 10082900 f   MultiplayerGame.obj
 0001:00081930       ?Run@idMultiplayerGame@@QAEXXZ 10082930 f   MultiplayerGame.obj
 0001:00081fc0       ?GetType@idPlayer@@UBEPAVidTypeInfo@@XZ 10082fc0 f   Player.obj
 0001:00081fd0       ?HasAmmo@idInventory@@QAEHHH@Z 10082fd0 f   Player.obj
 0001:00082000       ?UseAmmo@idInventory@@QAE_NHH@Z 10083000 f   Player.obj
 0001:00082050       ?UpdateArmor@idInventory@@QAEXXZ 10083050 f   Player.obj
 0001:000820c0       ??1idPhysics_Player@@UAE@XZ 100830c0 f i Player.obj
 0001:000820c0       ??1idPhysics_Monster@@UAE@XZ 100830c0 f i AI.obj
 0001:000820d0       ?GetUserInfo@idPlayer@@QAEPAVidDict@@XZ 100830d0 f   Player.obj
 0001:000820e0       ?BalanceTDM@idPlayer@@QAE_NXZ 100830e0 f   Player.obj
 0001:000821e0       ?PowerUpActive@idPlayer@@QBE_NH@Z 100831e0 f   Player.obj
 0001:00082200       ?WeaponLoweringCallback@idPlayer@@QAEXXZ 10083200 f   Player.obj
 0001:00082220       ?WeaponRisingCallback@idPlayer@@QAEXXZ 10083220 f   Player.obj
 0001:00082240       ?SpectateCycle@idPlayer@@AAEXXZ 10083240 f   Player.obj
 0001:000822d0       ?Collide@idPlayer@@UAE_NABUtrace_s@@ABVidVec3@@@Z 100832d0 f   Player.obj
 0001:00082380       ?ClearFocus@idPlayer@@AAEXXZ 10083380 f   Player.obj
 0001:000823b0       ?UpdatePowerupHud@idPlayer@@QAEXXZ 100833b0 f   Player.obj
 0001:00082480       ?StartFxOnBone@idPlayer@@QAEXPBD0@Z 10083480 f   Player.obj
 0001:00082730       ?Event_ToggleBloom@idPlayer@@AAEXH@Z 10083730 f   Player.obj
 0001:00082750       ?Event_SetBloomParms@idPlayer@@AAEXMM@Z 10083750 f   Player.obj
 0001:00082770       ?RouteGuiMouse@idPlayer@@QAEXPAVidUserInterface@@@Z 10083770 f   Player.obj
 0001:00082820       ?GetAIAimTargets@idPlayer@@UAEXABVidVec3@@AAV2@1@Z 10083820 f   Player.obj
 0001:00082920       ?GetEyePosition@idPlayer@@QBE?AVidVec3@@XZ 10083920 f   Player.obj
 0001:000829f0       ?GetRenderView@idPlayer@@UAEPAUrenderView_s@@XZ 100839f0 f   Player.obj
 0001:00082a00       ?AddProjectilesFired@idPlayer@@QAEXH@Z 10083a00 f   Player.obj
 0001:00082a10       ?AddProjectileHits@idPlayer@@QAEXH@Z 10083a10 f   Player.obj
 0001:00082a20       ?SetInfluenceFov@idPlayer@@QAEXM@Z 10083a20 f   Player.obj
 0001:00082a30       ?OnLadder@idPlayer@@UBE_NXZ 10083a30 f   Player.obj
 0001:00082a40       ?Event_GetButtons@idPlayer@@AAEXXZ 10083a40 f   Player.obj
 0001:00082a50       ?Event_GetMove@idPlayer@@AAEXXZ 10083a50 f   Player.obj
 0001:00082aa0       ?Event_GetViewAngles@idPlayer@@AAEXXZ 10083aa0 f   Player.obj
 0001:00082ad0       ?Event_StopFxFov@idPlayer@@AAEXXZ 10083ad0 f   Player.obj
 0001:00082ae0       ?Event_IsPowerupActive@idPlayer@@AAEXH@Z 10083ae0 f   Player.obj
 0001:00082b10       ?Event_StartWarp@idPlayer@@AAEXXZ 10083b10 f   Player.obj
 0001:00082b80       ?Event_InPDA@idPlayer@@AAEXXZ 10083b80 f   Player.obj
 0001:00082b90       ?TeleportDeath@idPlayer@@QAEXH@Z 10083b90 f   Player.obj
 0001:00082ba0       ?GetPhysicsToSoundTransform@idPlayer@@UAE_NAAVidVec3@@AAVidMat3@@@Z 10083ba0 f   Player.obj
 0001:00082c80       ?StartAudioLog@idPlayer@@QAEXXZ 10083c80 f   Player.obj
 0001:00082ca0       ?ShowTip@idPlayer@@QAEXPBD0_N@Z 10083ca0 f   Player.obj
 0001:00082d20       ?HideTip@idPlayer@@QAEXXZ  10083d20 f   Player.obj
 0001:00082d20       ?Event_HideTip@idPlayer@@AAEXXZ 10083d20 f   Player.obj
 0001:00082d40       ?HideObjective@idPlayer@@QAEXXZ 10083d40 f   Player.obj
 0001:00082d60       ?StopAudioLog@idPlayer@@QAEXXZ 10083d60 f   Player.obj
 0001:00082d60       ?Event_StopAudioLog@idPlayer@@QAEXXZ 10083d60 f   Player.obj
 0001:00082d80       ?SetSpectateOrigin@idPlayer@@AAEXXZ 10083d80 f   Player.obj
 0001:00082de0       ?CanShowWeaponViewmodel@idPlayer@@QBE_NXZ 10083de0 f   Player.obj
 0001:00082df0       ?UpdatePlayerIcons@idPlayer@@UAEXXZ 10083df0 f   Player.obj
 0001:00082e30       ?HidePlayerIcons@idPlayer@@UAEXXZ 10083e30 f   Player.obj
 0001:00082e40       ?DropFlag@idPlayer@@QAEXXZ 10083e40 f   Player.obj
 0001:00082eb0       ?ReturnFlag@idPlayer@@QAEXXZ 10083eb0 f   Player.obj
 0001:00082f20       ?FreeModelDef@idPlayer@@UAEXXZ 10083f20 f   Player.obj
 0001:00082f50       ?GivePowerUp@idInventory@@QAEXPAVidPlayer@@HH@Z 10083f50 f   Player.obj
 0001:00083010       ?GetPersistantData@idInventory@@QAEXAAVidDict@@@Z 10084010 f   Player.obj
 0001:000834b0       ??0idLevelTriggerInfo@@QAE@XZ 100844b0 f i Player.obj
 0001:000834b0       ??0idItemInfo@@QAE@XZ      100844b0 f i Player.obj
 0001:000834e0       ?Save@idInventory@@QBEXPAVidSaveGame@@@Z 100844e0 f   Player.obj
 0001:00083920       ??1idItemInfo@@QAE@XZ      10084920 f i Player.obj
 0001:00083920       ??1idLevelTriggerInfo@@QAE@XZ 10084920 f i Player.obj
 0001:00083970       ??0idObjectiveInfo@@QAE@XZ 10084970 f i Player.obj
 0001:000839b0       ?MaxAmmoForAmmoClass@idInventory@@QBEHPAVidPlayer@@PBD@Z 100849b0 f   Player.obj
 0001:00083a00       ?AmmoIndexForWeaponClass@idInventory@@QAEHPBDPAH@Z 10084a00 f   Player.obj
 0001:00083aa0       ?Drop@idInventory@@QAEXABVidDict@@PBDH@Z 10084aa0 f   Player.obj
 0001:00083bc0       ?RechargeAmmo@idInventory@@QAEXPAVidPlayer@@@Z 10084bc0 f   Player.obj
 0001:00083c70       ?CanGive@idInventory@@QAE_NPAVidPlayer@@ABVidDict@@PBD2PAH@Z 10084c70 f   Player.obj
 0001:00083d30       ?LinkScriptVariables@idPlayer@@QAEXXZ 10084d30 f   Player.obj
 0001:00084190       ?SetupWeaponEntity@idPlayer@@QAEXXZ 10085190 f   Player.obj
 0001:00084290       ?Save@idPlayer@@QBEXPAVidSaveGame@@@Z 10085290 f   Player.obj
 0001:00084d50       ?SavePersistantInfo@idPlayer@@QAEXXZ 10085d50 f   Player.obj
 0001:00084dc0       ?UpdateHudAmmo@idPlayer@@QAEXPAVidUserInterface@@@Z 10085dc0 f   Player.obj
 0001:000851a0       ?UpdateHudWeapon@idPlayer@@QAEX_N@Z 100861a0 f   Player.obj
 0001:000852c0       ?ExitCinematic@idPlayer@@QAEXXZ 100862c0 f   Player.obj
 0001:00085330       ?UpdateConditions@idPlayer@@QAEXXZ 10086330 f   Player.obj
 0001:00085660       ?WeaponFireFeedback@idPlayer@@QAEXPBVidDict@@@Z 10086660 f   Player.obj
 0001:00085690       ?StopFiring@idPlayer@@AAEXXZ 10086690 f   Player.obj
 0001:00085710       ?CacheWeapons@idPlayer@@QAEXXZ 10086710 f   Player.obj
 0001:00085820       ?GiveHealthPool@idPlayer@@QAEXM@Z 10086820 f   Player.obj
 0001:000858a0       ?PowerUpModifier@idPlayer@@QAEMH@Z 100868a0 f   Player.obj
 0001:00085940       ?ClearPowerup@idPlayer@@AAEXH@Z 10086940 f   Player.obj
 0001:00085b00       ?UpdatePowerUps@idPlayer@@AAEXXZ 10086b00 f   Player.obj
 0001:00085fe0       ?ClearPowerUps@idPlayer@@QAEXXZ 10086fe0 f   Player.obj
 0001:00086080       ?UpdateObjectiveInfo@idPlayer@@AAEXXZ 10087080 f   Player.obj
 0001:000861d0       ?FindInventoryItem@idPlayer@@QAEPAVidDict@@PBD@Z 100871d0 f   Player.obj
 0001:00086250       ?SlotForWeapon@idPlayer@@QAEHPBD@Z 10087250 f   Player.obj
 0001:000862b0       ?Reload@idPlayer@@QAEXXZ   100872b0 f   Player.obj
 0001:00086340       ?UpdateLocation@idPlayer@@AAEXXZ 10087340 f   Player.obj
 0001:000863c0       ?UpdateFocus@idPlayer@@AAEXXZ 100873c0 f   Player.obj
 0001:00086fe0       ?CrashLand@idPlayer@@AAEXABVidVec3@@0@Z 10087fe0 f   Player.obj
 0001:00087580       ?BobCycle@idPlayer@@AAEXABVidVec3@@@Z 10088580 f   Player.obj
 0001:00087ca0       ?UpdateDeltaViewAngles@idPlayer@@QAEXABVidAngles@@@Z 10088ca0 f   Player.obj
 0001:00087d10       ?SetViewAngles@idPlayer@@QAEXABVidAngles@@@Z 10088d10 f   Player.obj
 0001:00087d40       ?UpdateViewAngles@idPlayer@@AAEXXZ 10088d40 f   Player.obj
 0001:00088390       ?AdjustHeartRate@idPlayer@@QAEXHMM_N@Z 10089390 f   Player.obj
 0001:00088440       ?GetBaseHeartRate@idPlayer@@QAEHXZ 10089440 f   Player.obj
 0001:000884f0       ?SetCurrentHeartRate@idPlayer@@QAEXXZ 100894f0 f   Player.obj
 0001:00088820       ?UpdateAir@idPlayer@@QAEXXZ 10089820 f   Player.obj
 0001:00088a50       ?GetPDA@idPlayer@@QBEPBVidDeclPDA@@XZ 10089a50 f   Player.obj
 0001:00088a80       ?SetClipModel@idPlayer@@QAEXXZ 10089a80 f   Player.obj
 0001:00088d30       ?UseVehicle@idPlayer@@AAEXXZ 10089d30 f   Player.obj
 0001:00088ea0       ?AdjustSpeed@idPlayer@@AAEXXZ 10089ea0 f   Player.obj
 0001:00089150       ?AdjustBodyAngles@idPlayer@@AAEXXZ 1008a150 f   Player.obj
 0001:00089850       ?SetAASLocation@idPlayer@@AAEXXZ 1008a850 f   Player.obj
 0001:00089960       ?GetAASLocation@idPlayer@@UBEXPAVidAAS@@AAVidVec3@@AAH@Z 1008a960 f   Player.obj
 0001:000899f0       ?Move@idPlayer@@AAEXXZ     1008a9f0 f   Player.obj
 0001:0008a060       ?UpdateDeathSkin@idPlayer@@AAEX_N@Z 1008b060 f   Player.obj
 0001:0008a140       ?GetCurrentWeapon@idPlayer@@QAE?AVidStr@@XZ 1008b140 f   Player.obj
 0001:0008a230       ?CanGive@idPlayer@@QAE_NPBD0@Z 1008b230 f   Player.obj
 0001:0008a310       ?StopHelltime@idPlayer@@QAEX_N@Z 1008b310 f   Player.obj
 0001:0008a470       ?PlayHelltimeStopSound@idPlayer@@QAEXXZ 1008b470 f   Player.obj
 0001:0008a4c0       ?LookAtKiller@idPlayer@@AAEXPAVidEntity@@0@Z 1008b4c0 f   Player.obj
 0001:0008a5b0       ?CalcDamagePoints@idPlayer@@QAEXPAVidEntity@@0PBVidDict@@MHPAH2@Z 1008b5b0 f   Player.obj
 0001:0008a8e0       ?Damage@idPlayer@@UAEXPAVidEntity@@0ABVidVec3@@PBDMH@Z 1008b8e0 f   Player.obj
 0001:0008b2b0       ?Teleport@idPlayer@@UAEXABVidVec3@@ABVidAngles@@PAVidEntity@@@Z 1008c2b0 f   Player.obj
 0001:0008b480       ?SetPrivateCameraView@idPlayer@@QAEXPAVidCamera@@@Z 1008c480 f   Player.obj
 0001:0008b4c0       ?DefaultFov@idPlayer@@QBEMXZ 1008c4c0 f   Player.obj
 0001:0008b510       ?CalcFov@idPlayer@@QAEM_N@Z 1008c510 f   Player.obj
 0001:0008b730       ?GunTurningOffset@idPlayer@@AAE?AVidAngles@@XZ 1008c730 f   Player.obj
 0001:0008b9b0       ?GunAcceleratingOffset@idPlayer@@AAE?AVidVec3@@XZ 1008c9b0 f   Player.obj
 0001:0008bb20       ?CalculateViewWeaponPos@idPlayer@@QAEXAAVidVec3@@AAVidMat3@@@Z 1008cb20 f   Player.obj
 0001:0008bfd0       ?OffsetThirdPersonView@idPlayer@@QAEXMMM_N@Z 1008cfd0 f   Player.obj
 0001:0008c730       ?GetViewPos@idPlayer@@UBEXAAVidVec3@@AAVidMat3@@@Z 1008d730 f   Player.obj
 0001:0008caf0       ?CalculateFirstPersonView@idPlayer@@QAEXXZ 1008daf0 f   Player.obj
 0001:0008d0c0       ?CalculateRenderView@idPlayer@@QAEXXZ 1008e0c0 f   Player.obj
 0001:0008d4c0       ?SetSoulCubeProjectile@idPlayer@@QAEXPAVidProjectile@@@Z 1008e4c0 f   Player.obj
 0001:0008d4f0       ?SetLastHitTime@idPlayer@@QAEXH@Z 1008e4f0 f   Player.obj
 0001:0008d710       ?SetInfluenceLevel@idPlayer@@QAEXH@Z 1008e710 f   Player.obj
 0001:0008d870       ?SetInfluenceView@idPlayer@@QAEXPBD0MPAVidEntity@@@Z 1008e870 f   Player.obj
 0001:0008d960       ?Event_EnableWeapon@idPlayer@@AAEXXZ 1008e960 f   Player.obj
 0001:0008d9f0       ?Event_DisableWeapon@idPlayer@@AAEXXZ 1008e9f0 f   Player.obj
 0001:0008da80       ?Event_GetIdealWeapon@idPlayer@@AAEXXZ 1008ea80 f   Player.obj
 0001:0008dae0       ?Event_StopHelltime@idPlayer@@AAEXH@Z 1008eae0 f   Player.obj
 0001:0008db10       ?WeaponAvailable@idPlayer@@AAE_NPBD@Z 1008eb10 f   Player.obj
 0001:0008db80       ?Event_GetCurrentWeapon@idPlayer@@AAEXXZ 1008eb80 f   Player.obj
 0001:0008dbe0       ?Event_GetPreviousWeapon@idPlayer@@AAEXXZ 1008ebe0 f   Player.obj
 0001:0008dc90       ?Event_SelectWeapon@idPlayer@@AAEXPBD@Z 1008ec90 f   Player.obj
 0001:0008ddd0       ?Event_GetWeaponEntity@idPlayer@@AAEXXZ 1008edd0 f   Player.obj
 0001:0008de10       ?Event_ExitTeleporter@idPlayer@@AAEXXZ 1008ee10 f   Player.obj
 0001:0008e090       ?GetPhysicsToVisualTransform@idPlayer@@UAE_NAAVidVec3@@AAVidMat3@@@Z 1008f090 f   Player.obj
 0001:0008e570       ?WriteToSnapshot@idPlayer@@UBEXAAVidBitMsgDelta@@@Z 1008f570 f   Player.obj
 0001:0008e740       ?WritePlayerStateToSnapshot@idPlayer@@QBEXAAVidBitMsgDelta@@@Z 1008f740 f   Player.obj
 0001:0008e7f0       ?ReadPlayerStateFromSnapshot@idPlayer@@QAEXABVidBitMsgDelta@@@Z 1008f7f0 f   Player.obj
 0001:0008e8b0       ?Hide@idPlayer@@UAEXXZ     1008f8b0 f   Player.obj
 0001:0008e8f0       ?Show@idPlayer@@UAEXXZ     1008f8f0 f   Player.obj
 0001:0008e930       ?RemoveWeapon@idPlayer@@QAEXPBD@Z 1008f930 f   Player.obj
 0001:0008e990       ?Event_LevelTrigger@idPlayer@@AAEXXZ 1008f990 f   Player.obj
 0001:0008eac0       ?NeedsIcon@idPlayer@@QAE_NXZ 1008fac0 f   Player.obj
 0001:0008eb20       ??4idLevelTriggerInfo@@QAEAAU0@ABU0@@Z 1008fb20 f i Player.obj
 0001:0008eb20       ??4idItemInfo@@QAEAAU0@ABU0@@Z 1008fb20 f i Player.obj
 0001:0008eba0       ??4idObjectiveInfo@@QAEAAU0@ABU0@@Z 1008fba0 f i Player.obj
 0001:0008ec50       ??4WeaponToggle_t@@QAEAAU0@ABU0@@Z 1008fc50 f i Player.obj
 0001:0008ece0       ?HasAmmo@idInventory@@QAEHPBD_NPAVidPlayer@@@Z 1008fce0 f   Player.obj
 0001:0008ed40       ?HasEmptyClipCannotRefill@idInventory@@QAE_NPBDPAVidPlayer@@@Z 1008fd40 f   Player.obj
 0001:0008ee40       ?InitRechargeAmmo@idInventory@@QAEXPAVidPlayer@@@Z 1008fe40 f   Player.obj
 0001:0008efa0       ??1WeaponToggle_t@@QAE@XZ  1008ffa0 f i Player.obj
 0001:0008efd0       ?SelectInitialSpawnPoint@idPlayer@@QAEXAAVidVec3@@AAVidAngles@@@Z 1008ffd0 f   Player.obj
 0001:0008f140       ?UpdateSkinSetup@idPlayer@@QAEX_N@Z 10090140 f   Player.obj
 0001:0008f480       ?UserInfoChanged@idPlayer@@QAE_N_N@Z 10090480 f   Player.obj
 0001:0008f780       ?UpdateHudStats@idPlayer@@QAEXPAVidUserInterface@@@Z 10090780 f   Player.obj
 0001:0008f9e0       ?DrawHUD@idPlayer@@QAEXPAVidUserInterface@@@Z 100909e0 f   Player.obj
 0001:0008fc10       ?EnterCinematic@idPlayer@@QAEXXZ 10090c10 f   Player.obj
 0001:0008fe30       ?GiveSecurity@idPlayer@@QAEXPBD@Z 10090e30 f   Player.obj
 0001:0008feb0       ?NextBestWeapon@idPlayer@@QAEXXZ 10090eb0 f   Player.obj
 0001:00090000       ?NextWeapon@idPlayer@@QAEXXZ 10091000 f   Player.obj
 0001:00090170       ?PrevWeapon@idPlayer@@QAEXXZ 10091170 f   Player.obj
 0001:000902e0       ?SelectWeapon@idPlayer@@QAEXH_N@Z 100912e0 f   Player.obj
 0001:00090730       ?DropWeapon@idPlayer@@QAEX_N@Z 10091730 f   Player.obj
 0001:00090c90       ?SpectateFreeFly@idPlayer@@AAEX_N@Z 10091c90 f   Player.obj
 0001:00090f80       ?UpdateSpectating@idPlayer@@AAEXXZ 10091f80 f   Player.obj
 0001:00090fe0       ?AddGuiPDAData@idPlayer@@AAEHW4declType_t@@PBDPBVidDeclPDA@@PAVidUserInterface@@@Z 10091fe0 f   Player.obj
 0001:000913c0       ?UpdatePDAInfo@idPlayer@@AAEX_N@Z 100923c0 f   Player.obj
 0001:00091cc0       ?TogglePDA@idPlayer@@QAEXXZ 10092cc0 f   Player.obj
 0001:00092190       ?PerformImpulse@idPlayer@@QAEXH@Z 10093190 f   Player.obj
 0001:00092810       ?HandleESC@idPlayer@@QAE_NXZ 10093810 f   Player.obj
 0001:00092850       ?EvaluateControls@idPlayer@@AAEXXZ 10093850 f   Player.obj
 0001:00092910       ?Killed@idPlayer@@UAEXPAVidEntity@@0HABVidVec3@@H@Z 10093910 f   Player.obj
 0001:00092c20       ?DamageFeedback@idPlayer@@UAEXPAVidEntity@@0AAH@Z 10093c20 f   Player.obj
 0001:00092d40       ?Event_WeaponAvailable@idPlayer@@AAEXPBD@Z 10093d40 f   Player.obj
 0001:00092d60       ?Event_OpenPDA@idPlayer@@AAEXXZ 10093d60 f   Player.obj
 0001:00092d70       ?ServerReceiveEvent@idPlayer@@UAE_NHHABVidBitMsg@@@Z 10093d70 f   Player.obj
 0001:00092dc0       ?DrawPlayerIcons@idPlayer@@UAEXXZ 10093dc0 f   Player.obj
 0001:00092e00       ??0WeaponToggle_t@@QAE@ABU0@@Z 10093e00 f i Player.obj
 0001:00092e80       ??0hashnode_s@?$idHashTable@UWeaponToggle_t@@@@QAE@PBDUWeaponToggle_t@@PAU01@@Z 10093e80 f i Player.obj
 0001:00092f60       ?FireWeapon@idPlayer@@AAEXXZ 10093f60 f   Player.obj
 0001:00093190       ?GiveInventoryItem@idPlayer@@QAE_NPBD@Z 10094190 f   Player.obj
 0001:00093340       ?CompleteObjective@idPlayer@@QAEXPBD@Z 10094340 f   Player.obj
 0001:00093410       ?GiveEmail@idPlayer@@QAEXPBD@Z 10094410 f   Player.obj
 0001:00093830       ?GivePDA@idPlayer@@QAEXPBDPAVidDict@@@Z 10094830 f   Player.obj
 0001:000945d0       ?GiveItem@idPlayer@@QAEXPBD@Z 100955d0 f   Player.obj
 0001:00094790       ?Weapon_Combat@idPlayer@@AAEXXZ 10095790 f   Player.obj
 0001:00094ce0       ?Weapon_NPC@idPlayer@@AAEXXZ 10095ce0 f   Player.obj
 0001:00094d50       ?Weapon_GUI@idPlayer@@AAEXXZ 10095d50 f   Player.obj
 0001:00094ea0       ?UpdateWeapon@idPlayer@@AAEXXZ 10095ea0 f   Player.obj
 0001:000950f0       ?HandleSingleGuiCommand@idPlayer@@UAE_NPAVidEntity@@PAVidLexer@@@Z 100960f0 f   Player.obj
 0001:00095590       ?InitAASLocation@idPlayer@@AAEXXZ 10096590 f   Player.obj
 0001:00095870       ?UpdateHud@idPlayer@@QAEXXZ 10096870 f   Player.obj
 0001:00095c30       ?Event_GiveInventoryItem@idPlayer@@AAEXPBD@Z 10096c30 f   Player.obj
 0001:00095c40       ?ClientPredictionThink@idPlayer@@UAEXXZ 10096c40 f   Player.obj
 0001:00096340       ??1?$idList@UidLevelTriggerInfo@@@@QAE@XZ 10097340 f i Player.obj
 0001:00096340       ??1?$idList@UidItemInfo@@@@QAE@XZ 10097340 f i Player.obj
 0001:00096380       ??1?$idList@UidObjectiveInfo@@@@QAE@XZ 10097380 f i Player.obj
 0001:000963c0       ?Clear@idInventory@@QAEXXZ 100973c0 f   Player.obj
 0001:000966c0       ?Restore@idInventory@@QAEXPAVidRestoreGame@@@Z 100976c0 f   Player.obj
 0001:000984b0       ?AddPickupName@idInventory@@QAEXPBD0PAVidPlayer@@@Z 100994b0 f   Player.obj
 0001:000987e0       ?Restore@idPlayer@@QAEXPAVidRestoreGame@@@Z 100997e0 f   Player.obj
 0001:000997a0       ?GivePowerUp@idPlayer@@QAE_NHH@Z 1009a7a0 f   Player.obj
 0001:00099e50       ?GiveInventoryItem@idPlayer@@QAE_NPAVidDict@@@Z 1009ae50 f   Player.obj
 0001:0009a450       ?GiveObjective@idPlayer@@QAEXPBD00@Z 1009b450 f   Player.obj
 0001:0009a7a0       ?GiveVideo@idPlayer@@QAEXPBDPAVidDict@@@Z 1009b7a0 f   Player.obj
 0001:0009aec0       ?RemoveInventoryItem@idPlayer@@QAEXPAVidDict@@@Z 1009bec0 f   Player.obj
 0001:0009b040       ?Event_SetPowerupTime@idPlayer@@AAEXHH@Z 1009c040 f   Player.obj
 0001:0009b060       ?SetLevelTrigger@idPlayer@@QAEXPBD0@Z 1009c060 f   Player.obj
 0001:0009b340       ??0idInventory@@QAE@XZ     1009c340 f i Player.obj
 0001:0009b450       ??1idInventory@@QAE@XZ     1009c450 f i Player.obj
 0001:0009b670       ?Give@idInventory@@QAE_NPAVidPlayer@@ABVidDict@@PBD2PAH_N@Z 1009c670 f   Player.obj
 0001:0009c190       ?Give@idPlayer@@QAE_NPBD0@Z 1009d190 f   Player.obj
 0001:0009c570       ?GiveItem@idPlayer@@QAE_NPAVidItem@@@Z 1009d570 f   Player.obj
 0001:0009c830       ?StealWeapon@idPlayer@@QAEXPAV1@@Z 1009d830 f   Player.obj
 0001:0009ca10       ?Think@idPlayer@@UAEXXZ    1009da10 f   Player.obj
 0001:0009d580       ?Event_RemoveInventoryItem@idPlayer@@AAEXPBD@Z 1009e580 f   Player.obj
 0001:0009d580       ?RemoveInventoryItem@idPlayer@@QAEXPBD@Z 1009e580 f   Player.obj
 0001:0009d5d0       ??1?$idHashTable@UWeaponToggle_t@@@@QAE@XZ 1009e5d0 f i Player.obj
 0001:0009d690       ?RestoreInventory@idInventory@@QAEXPAVidPlayer@@ABVidDict@@@Z 1009e690 f   Player.obj
 0001:0009e830       ??0idPlayer@@QAE@XZ        1009f830 f   Player.obj
 0001:0009f0e0       ??1idPlayer@@UAE@XZ        100a00e0 f   Player.obj
 0001:0009f310       ?RestorePersistantInfo@idPlayer@@QAEXXZ 100a0310 f   Player.obj
 0001:0009f3d0       ?CreateInstance@idPlayer@@SAPAVidClass@@XZ 100a03d0 f   Player.obj
 0001:0009f470       ??_GidPlayer@@UAEPAXI@Z    100a0470 f i Player.obj
 0001:0009f470       ??_EidPlayer@@UAEPAXI@Z    100a0470 f i Player.obj
 0001:0009f490       ?Init@idPlayer@@QAEXXZ     100a0490 f   Player.obj
 0001:0009fc90       ?SpawnToPoint@idPlayer@@QAEXABVidVec3@@ABVidAngles@@@Z 100a0c90 f   Player.obj
 0001:0009ff10       ?Spectate@idPlayer@@QAEX_N@Z 100a0f10 f   Player.obj
 0001:000a0030       ?ReadFromSnapshot@idPlayer@@UAEXABVidBitMsgDelta@@@Z 100a1030 f   Player.obj
 0001:000a06d0       ?ClientReceiveEvent@idPlayer@@UAE_NHHABVidBitMsg@@@Z 100a16d0 f   Player.obj
 0001:000a0830       ?PrepareForRestart@idPlayer@@QAEXXZ 100a1830 f   Player.obj
 0001:000a0890       ?Spawn@idPlayer@@QAEXXZ    100a1890 f   Player.obj
 0001:000a14b0       ?Restart@idPlayer@@UAEXXZ  100a24b0 f   Player.obj
 0001:000a1510       ?ServerSpectate@idPlayer@@QAEX_N@Z 100a2510 f   Player.obj
 0001:000a15b0       ?Kill@idPlayer@@QAEX_N0@Z  100a25b0 f   Player.obj
 0001:000a16c0       ?FreeIcon@idPlayerIcon@@QAEXXZ 100a26c0 f   PlayerIcon.obj
 0001:000a16c0       ??1idPlayerIcon@@QAE@XZ    100a26c0 f   PlayerIcon.obj
 0001:000a16f0       ?CreateIcon@idPlayerIcon@@QAE_NPAVidPlayer@@W4playerIconType_t@@PBDABVidVec3@@ABVidMat3@@@Z 100a26f0 f   PlayerIcon.obj
 0001:000a1860       ?UpdateIcon@idPlayerIcon@@QAEXPAVidPlayer@@ABVidVec3@@ABVidMat3@@@Z 100a2860 f   PlayerIcon.obj
 0001:000a18d0       ??0idPlayerIcon@@QAE@XZ    100a28d0 f   PlayerIcon.obj
 0001:000a18f0       ?CreateIcon@idPlayerIcon@@QAE_NPAVidPlayer@@W4playerIconType_t@@ABVidVec3@@ABVidMat3@@@Z 100a28f0 f   PlayerIcon.obj
 0001:000a1940       ?Draw@idPlayerIcon@@QAEXPAVidPlayer@@ABVidVec3@@@Z 100a2940 f   PlayerIcon.obj
 0001:000a1b20       ?Draw@idPlayerIcon@@QAEXPAVidPlayer@@W4jointHandle_t@@@Z 100a2b20 f   PlayerIcon.obj
 0001:000a1bc0       ?SetPlayerEntity@idPlayerView@@QAEXPAVidPlayer@@@Z 100a2bc0 f   PlayerView.obj
 0001:000a1bd0       ?ClearEffects@idPlayerView@@QAEXXZ 100a2bd0 f   PlayerView.obj
 0001:000a1c80       ?GetScreenBlob@idPlayerView@@AAEPAUscreenBlob_t@@XZ 100a2c80 f   PlayerView.obj
 0001:000a1d00       ?SetTriggerState@FxFader@@QAE_N_N@Z 100a2d00 f   PlayerView.obj
 0001:000a1dd0       ?Save@FxFader@@UAEXPAVidSaveGame@@@Z 100a2dd0 f   PlayerView.obj
 0001:000a1e10       ?Restore@FxFader@@UAEXPAVidRestoreGame@@@Z 100a2e10 f   PlayerView.obj
 0001:000a1e50       ?Save@FullscreenFX@@UAEXPAVidSaveGame@@@Z 100a2e50 f   PlayerView.obj
 0001:000a1e60       ?Restore@FullscreenFX@@UAEXPAVidRestoreGame@@@Z 100a2e60 f   PlayerView.obj
 0001:000a1e70       ?Initialize@FullscreenFX_Helltime@@UAEXXZ 100a2e70 f   PlayerView.obj
 0001:000a1fe0       ?Restore@FullscreenFX_Helltime@@UAEXPAVidRestoreGame@@@Z 100a2fe0 f   PlayerView.obj
 0001:000a2000       ?Initialize@FullscreenFX_Multiplayer@@UAEXXZ 100a3000 f   PlayerView.obj
 0001:000a2080       ?Restore@FullscreenFX_Multiplayer@@UAEXPAVidRestoreGame@@@Z 100a3080 f   PlayerView.obj
 0001:000a20a0       ?Initialize@FullscreenFX_Warp@@UAEXXZ 100a30a0 f   PlayerView.obj
 0001:000a20d0       ?Active@FullscreenFX_Warp@@UAE_NXZ 100a30d0 f   PlayerView.obj
 0001:000a20e0       ?Save@FullscreenFX_Warp@@UAEXPAVidSaveGame@@@Z 100a30e0 f   PlayerView.obj
 0001:000a2110       ?Restore@FullscreenFX_Warp@@UAEXPAVidRestoreGame@@@Z 100a3110 f   PlayerView.obj
 0001:000a2140       ?Initialize@FullscreenFX_EnviroSuit@@UAEXXZ 100a3140 f   PlayerView.obj
 0001:000a2160       ?Active@FullscreenFX_EnviroSuit@@UAE_NXZ 100a3160 f   PlayerView.obj
 0001:000a2180       ?HighQuality@FullscreenFX_EnviroSuit@@UAEXXZ 100a3180 f   PlayerView.obj
 0001:000a21f0       ?Initialize@FullscreenFX_DoubleVision@@UAEXXZ 100a31f0 f   PlayerView.obj
 0001:000a2210       ?Active@FullscreenFX_DoubleVision@@UAE_NXZ 100a3210 f   PlayerView.obj
 0001:000a2230       ?Active@FullscreenFX_InfluenceVision@@UAE_NXZ 100a3230 f   PlayerView.obj
 0001:000a2260       ?HighQuality@FullscreenFX_InfluenceVision@@UAEXXZ 100a3260 f   PlayerView.obj
 0001:000a2480       ?Initialize@FullscreenFX_Bloom@@UAEXXZ 100a3480 f   PlayerView.obj
 0001:000a24e0       ?Active@FullscreenFX_Bloom@@UAE_NXZ 100a34e0 f   PlayerView.obj
 0001:000a2500       ?Save@FullscreenFX_Bloom@@UAEXPAVidSaveGame@@@Z 100a3500 f   PlayerView.obj
 0001:000a2540       ?Restore@FullscreenFX_Bloom@@UAEXPAVidRestoreGame@@@Z 100a3540 f   PlayerView.obj
 0001:000a2570       ?Blendback@FullscreenFXManager@@QAEXM@Z 100a3570 f   PlayerView.obj
 0001:000a2600       ?DamageImpulse@idPlayerView@@QAEXVidVec3@@PBVidDict@@@Z 100a3600 f   PlayerView.obj
 0001:000a29e0       ?WeaponFireFeedback@idPlayerView@@QAEXPBVidDict@@@Z 100a39e0 f   PlayerView.obj
 0001:000a2a80       ?CalculateShake@idPlayerView@@QAEXXZ 100a3a80 f   PlayerView.obj
 0001:000a2b80       ?AngleOffset@idPlayerView@@QBE?AVidAngles@@XZ 100a3b80 f   PlayerView.obj
 0001:000a2cd0       ?Fade@idPlayerView@@QAEXVidVec4@@H@Z 100a3cd0 f   PlayerView.obj
 0001:000a2ee0       ?ScreenFade@idPlayerView@@AAEXXZ 100a3ee0 f   PlayerView.obj
 0001:000a3240       ?DetermineLevel@FullscreenFX_Helltime@@AAEHXZ 100a4240 f   PlayerView.obj
 0001:000a32a0       ?Active@FullscreenFX_Helltime@@UAE_NXZ 100a42a0 f   PlayerView.obj
 0001:000a32e0       ?AccumPass@FullscreenFX_Helltime@@UAEXPBUrenderView_s@@@Z 100a42e0 f   PlayerView.obj
 0001:000a3400       ?HighQuality@FullscreenFX_Helltime@@UAEXXZ 100a4400 f   PlayerView.obj
 0001:000a34e0       ?Active@FullscreenFX_Multiplayer@@UAE_NXZ 100a44e0 f   PlayerView.obj
 0001:000a3550       ?AccumPass@FullscreenFX_Multiplayer@@UAEXPBUrenderView_s@@@Z 100a4550 f   PlayerView.obj
 0001:000a3690       ?HighQuality@FullscreenFX_Multiplayer@@UAEXXZ 100a4690 f   PlayerView.obj
 0001:000a3790       ?HighQuality@FullscreenFX_DoubleVision@@UAEXXZ 100a4790 f   PlayerView.obj
 0001:000a39d0       ?HighQuality@FullscreenFX_Bloom@@UAEXXZ 100a49d0 f   PlayerView.obj
 0001:000a3be0       ??0FullscreenFX_EnviroSuit@@QAE@XZ 100a4be0 f i PlayerView.obj
 0001:000a3c20       ??0FullscreenFX_DoubleVision@@QAE@XZ 100a4c20 f i PlayerView.obj
 0001:000a3c60       ??0FullscreenFX_Multiplayer@@QAE@XZ 100a4c60 f i PlayerView.obj
 0001:000a3ca0       ??0FullscreenFX_InfluenceVision@@QAE@XZ 100a4ca0 f i PlayerView.obj
 0001:000a3ce0       ??0FullscreenFX_Bloom@@QAE@XZ 100a4ce0 f i PlayerView.obj
 0001:000a3d20       ?Process@FullscreenFXManager@@QAEXPBUrenderView_s@@@Z 100a4d20 f   PlayerView.obj
 0001:000a3f70       ?SetName@FullscreenFX@@QAEXVidStr@@@Z 100a4f70 f i PlayerView.obj
 0001:000a3ff0       ?GetName@FullscreenFX@@QAE?AVidStr@@XZ 100a4ff0 f i PlayerView.obj
 0001:000a4050       ?Save@idPlayerView@@QBEXPAVidSaveGame@@@Z 100a5050 f   PlayerView.obj
 0001:000a4270       ?Restore@idPlayerView@@QAEXPAVidRestoreGame@@@Z 100a5270 f   PlayerView.obj
 0001:000a4470       ?SingleView@idPlayerView@@AAEXPAVidUserInterface@@PBUrenderView_s@@@Z 100a5470 f   PlayerView.obj
 0001:000a4d60       ?Flash@idPlayerView@@QAEXVidVec4@@H@Z 100a5d60 f   PlayerView.obj
 0001:000a4de0       ?RenderPlayerView@idPlayerView@@QAEXPAVidUserInterface@@@Z 100a5de0 f   PlayerView.obj
 0001:000a4ea0       ?DrawWarp@FullscreenFX_Warp@@AAEXVWarpPolygon_t@@M@Z 100a5ea0 f   PlayerView.obj
 0001:000a52f0       ?HighQuality@FullscreenFX_Warp@@UAEXXZ 100a62f0 f   PlayerView.obj
 0001:000a54c0       ?FindFX@FullscreenFXManager@@QAEPAVFullscreenFX@@VidStr@@@Z 100a64c0 f   PlayerView.obj
 0001:000a5590       ?CreateFX@FullscreenFXManager@@AAEXVidStr@@0H@Z 100a6590 f   PlayerView.obj
 0001:000a5920       ??_GFullscreenFX_Multiplayer@@UAEPAXI@Z 100a6920 f i PlayerView.obj
 0001:000a5920       ??_EFullscreenFX_DoubleVision@@UAEPAXI@Z 100a6920 f i PlayerView.obj
 0001:000a5920       ??_GFullscreenFX_Helltime@@UAEPAXI@Z 100a6920 f i PlayerView.obj
 0001:000a5920       ??_GFullscreenFX@@UAEPAXI@Z 100a6920 f i PlayerView.obj
 0001:000a5920       ??_EFullscreenFX_Multiplayer@@UAEPAXI@Z 100a6920 f i PlayerView.obj
 0001:000a5920       ??_EFullscreenFX_Bloom@@UAEPAXI@Z 100a6920 f i PlayerView.obj
 0001:000a5920       ??_GFullscreenFX_Bloom@@UAEPAXI@Z 100a6920 f i PlayerView.obj
 0001:000a5920       ??_EFullscreenFX_Warp@@UAEPAXI@Z 100a6920 f i PlayerView.obj
 0001:000a5920       ??_EFullscreenFX_InfluenceVision@@UAEPAXI@Z 100a6920 f i PlayerView.obj
 0001:000a5920       ??_GFullscreenFX_InfluenceVision@@UAEPAXI@Z 100a6920 f i PlayerView.obj
 0001:000a5920       ??_GFullscreenFX_EnviroSuit@@UAEPAXI@Z 100a6920 f i PlayerView.obj
 0001:000a5920       ??_GFullscreenFX_DoubleVision@@UAEPAXI@Z 100a6920 f i PlayerView.obj
 0001:000a5920       ??_GFullscreenFX_Warp@@UAEPAXI@Z 100a6920 f i PlayerView.obj
 0001:000a5920       ??_EFullscreenFX_EnviroSuit@@UAEPAXI@Z 100a6920 f i PlayerView.obj
 0001:000a5920       ??_EFullscreenFX@@UAEPAXI@Z 100a6920 f i PlayerView.obj
 0001:000a5920       ??_EFullscreenFX_Helltime@@UAEPAXI@Z 100a6920 f i PlayerView.obj
 0001:000a5950       ?Initialize@FullscreenFXManager@@QAEXPAVidPlayerView@@@Z 100a6950 f   PlayerView.obj
 0001:000a5ee0       ??0idPlayerView@@QAE@XZ    100a6ee0 f   PlayerView.obj
 0001:000a6100       ?AddWarp@idPlayerView@@QAEHVidVec3@@MMMM@Z 100a7100 f   PlayerView.obj
 0001:000a6180       ?FreeWarp@idPlayerView@@QAEXH@Z 100a7180 f   PlayerView.obj
 0001:000a6200       ??_EFullscreenFXManager@@UAEPAXI@Z 100a7200 f i PlayerView.obj
 0001:000a6200       ??_GFullscreenFXManager@@UAEPAXI@Z 100a7200 f i PlayerView.obj
 0001:000a6250       ?GetType@idProjectile@@UBEPAVidTypeInfo@@XZ 100a7250 f   Projectile.obj
 0001:000a6260       ?FreeLightDef@idProjectile@@UAEXXZ 100a7260 f   Projectile.obj
 0001:000a6290       ?Event_GetProjectileState@idProjectile@@AAEXXZ 100a7290 f   Projectile.obj
 0001:000a62a0       ?GetVelocity@idProjectile@@SA?AVidVec3@@PBVidDict@@@Z 100a72a0 f   Projectile.obj
 0001:000a62c0       ?GetProjectileState@idProjectile@@QAEHXZ 100a72c0 f   Projectile.obj
 0001:000a62d0       ?Event_LaunchProjectile@idProjectile@@QAEXABVidVec3@@00@Z 100a72d0 f   Projectile.obj
 0001:000a6300       ?Event_SetGravity@idProjectile@@QAEXM@Z 100a7300 f   Projectile.obj
 0001:000a63f0       ?ClientPredictionThink@idProjectile@@UAEXXZ 100a73f0 f   Projectile.obj
 0001:000a6410       ?GetType@idGuidedProjectile@@UBEPAVidTypeInfo@@XZ 100a7410 f   Projectile.obj
 0001:000a6420       ?GetType@idSoulCubeMissile@@UBEPAVidTypeInfo@@XZ 100a7420 f   Projectile.obj
 0001:000a6430       ?Spawn@idSoulCubeMissile@@QAEXXZ 100a7430 f   Projectile.obj
 0001:000a6480       ?Save@idSoulCubeMissile@@QBEXPAVidSaveGame@@@Z 100a7480 f   Projectile.obj
 0001:000a6530       ?Restore@idSoulCubeMissile@@QAEXPAVidRestoreGame@@@Z 100a7530 f   Projectile.obj
 0001:000a65e0       ?GetType@idBFGProjectile@@UBEPAVidTypeInfo@@XZ 100a75e0 f   Projectile.obj
 0001:000a65f0       ?GetType@idDebris@@UBEPAVidTypeInfo@@XZ 100a75f0 f   Projectile.obj
 0001:000a6600       ?Think@idDebris@@UAEXXZ    100a7600 f   Projectile.obj
 0001:000a66e0       ?Collide@idDebris@@UAE_NABUtrace_s@@ABVidVec3@@@Z 100a76e0 f   Projectile.obj
 0001:000a6710       ?GetType@idHomingProjectile@@UBEPAVidTypeInfo@@XZ 100a7710 f   Projectile.obj
 0001:000a6720       ?SetSeekPos@idHomingProjectile@@QAEXVidVec3@@@Z 100a7720 f   Projectile.obj
 0001:000a6750       ?Spawn@idProjectile@@QAEXXZ 100a7750 f   Projectile.obj
 0001:000a68a0       ?Save@idProjectile@@QBEXPAVidSaveGame@@@Z 100a78a0 f   Projectile.obj
 0001:000a69c0       ?Restore@idProjectile@@QAEXPAVidRestoreGame@@@Z 100a79c0 f   Projectile.obj
 0001:000a6ba0       ??1idProjectile@@UAE@XZ    100a7ba0 f   Projectile.obj
 0001:000a6c40       ?Launch@idProjectile@@UAEXABVidVec3@@00MMM@Z 100a7c40 f   Projectile.obj
 0001:000a7710       ?Think@idProjectile@@UAEXXZ 100a8710 f   Projectile.obj
 0001:000a7d00       ?DefaultDamageEffect@idProjectile@@SAXPAVidEntity@@ABVidDict@@ABUtrace_s@@ABVidVec3@@@Z 100a8d00 f   Projectile.obj
 0001:000a7e60       ?AddDefaultDamageEffect@idProjectile@@AAEXABUtrace_s@@ABVidVec3@@@Z 100a8e60 f   Projectile.obj
 0001:000a8030       ?Fizzle@idProjectile@@QAEXXZ 100a9030 f   Projectile.obj
 0001:000a8150       ?Event_RadiusDamage@idProjectile@@AAEXPAVidEntity@@@Z 100a9150 f   Projectile.obj
 0001:000a81d0       ?GetGravity@idProjectile@@SA?AVidVec3@@PBVidDict@@@Z 100a91d0 f   Projectile.obj
 0001:000a8220       ?Event_Explode@idProjectile@@AAEXXZ 100a9220 f   Projectile.obj
 0001:000a8320       ?Event_Fizzle@idProjectile@@AAEXXZ 100a9320 f   Projectile.obj
 0001:000a8330       ?Event_Touch@idProjectile@@AAEXPAVidEntity@@PAUtrace_s@@@Z 100a9330 f   Projectile.obj
 0001:000a8490       ?ClientPredictionCollide@idProjectile@@SA_NPAVidEntity@@ABVidDict@@ABUtrace_s@@ABVidVec3@@_N@Z 100a9490 f   Projectile.obj
 0001:000a8600       ?WriteToSnapshot@idProjectile@@UBEXAAVidBitMsgDelta@@@Z 100a9600 f   Projectile.obj
 0001:000a87d0       ?ClientReceiveEvent@idProjectile@@UAE_NHHABVidBitMsg@@@Z 100a97d0 f   Projectile.obj
 0001:000a8920       ?Save@idGuidedProjectile@@QBEXPAVidSaveGame@@@Z 100a9920 f   Projectile.obj
 0001:000a89f0       ?Restore@idGuidedProjectile@@QAEXPAVidRestoreGame@@@Z 100a99f0 f   Projectile.obj
 0001:000a8ab0       ?GetSeekPos@idGuidedProjectile@@MAEXAAVidVec3@@@Z 100a9ab0 f   Projectile.obj
 0001:000a8bf0       ?Think@idGuidedProjectile@@UAEXXZ 100a9bf0 f   Projectile.obj
 0001:000a9220       ?Launch@idGuidedProjectile@@UAEXABVidVec3@@00MMM@Z 100aa220 f   Projectile.obj
 0001:000a9720       ?KillTarget@idSoulCubeMissile@@IAEXABVidVec3@@@Z 100aa720 f   Projectile.obj
 0001:000a99a0       ?Think@idSoulCubeMissile@@UAEXXZ 100aa9a0 f   Projectile.obj
 0001:000a9d90       ?GetSeekPos@idSoulCubeMissile@@MAEXAAVidVec3@@@Z 100aad90 f   Projectile.obj
 0001:000a9ed0       ?Launch@idSoulCubeMissile@@UAEXABVidVec3@@00MMM@Z 100aaed0 f   Projectile.obj
 0001:000aa2b0       ?Spawn@idBFGProjectile@@QAEXXZ 100ab2b0 f   Projectile.obj
 0001:000aa3c0       ?Save@idBFGProjectile@@QBEXPAVidSaveGame@@@Z 100ab3c0 f   Projectile.obj
 0001:000aa470       ?FreeBeams@idBFGProjectile@@AAEXXZ 100ab470 f   Projectile.obj
 0001:000aa4e0       ?Think@idBFGProjectile@@UAEXXZ 100ab4e0 f   Projectile.obj
 0001:000aacd0       ?Event_RemoveBeams@idBFGProjectile@@AAEXXZ 100abcd0 f   Projectile.obj
 0001:000aace0       ?Spawn@idDebris@@QAEXXZ    100abce0 f   Projectile.obj
 0001:000aad00       ?Create@idDebris@@QAEXPAVidEntity@@ABVidVec3@@ABVidMat3@@@Z 100abd00 f   Projectile.obj
 0001:000aada0       ??_EidDebris@@UAEPAXI@Z    100abda0 f i Projectile.obj
 0001:000aada0       ??_GidDebris@@UAEPAXI@Z    100abda0 f i Projectile.obj
 0001:000aae10       ?Save@idDebris@@QBEXPAVidSaveGame@@@Z 100abe10 f   Projectile.obj
 0001:000aae70       ?Restore@idDebris@@QAEXPAVidRestoreGame@@@Z 100abe70 f   Projectile.obj
 0001:000aaed0       ?Fizzle@idDebris@@QAEXXZ   100abed0 f   Projectile.obj
 0001:000ab040       ?Explode@idDebris@@QAEXXZ  100ac040 f   Projectile.obj
 0001:000ab1c0       ?Event_Explode@idDebris@@AAEXXZ 100ac1c0 f   Projectile.obj
 0001:000ab1d0       ?Event_Fizzle@idDebris@@AAEXXZ 100ac1d0 f   Projectile.obj
 0001:000ab1e0       ?Save@idHomingProjectile@@QBEXPAVidSaveGame@@@Z 100ac1e0 f   Projectile.obj
 0001:000ab2b0       ?Restore@idHomingProjectile@@QAEXPAVidRestoreGame@@@Z 100ac2b0 f   Projectile.obj
 0001:000ab370       ?Think@idHomingProjectile@@UAEXXZ 100ac370 f   Projectile.obj
 0001:000ab890       ?Launch@idHomingProjectile@@UAEXABVidVec3@@00MMM@Z 100ac890 f   Projectile.obj
 0001:000abd90       ?SetEnemy@idHomingProjectile@@QAEXPAVidEntity@@@Z 100acd90 f   Projectile.obj
 0001:000abd90       ?Event_SetEnemy@idGuidedProjectile@@QAEXPAVidEntity@@@Z 100acd90 f   Projectile.obj
 0001:000abd90       ?Event_SetEnemy@idHomingProjectile@@QAEXPAVidEntity@@@Z 100acd90 f   Projectile.obj
 0001:000abdc0       ??0idProjectile@@QAE@XZ    100acdc0 f   Projectile.obj
 0001:000abef0       ??_EidProjectile@@UAEPAXI@Z 100acef0 f i Projectile.obj
 0001:000abef0       ??_GidProjectile@@UAEPAXI@Z 100acef0 f i Projectile.obj
 0001:000abf10       ?Collide@idProjectile@@UAE_NABUtrace_s@@ABVidVec3@@@Z 100acf10 f   Projectile.obj
 0001:000ac6d0       ?Killed@idProjectile@@UAEXPAVidEntity@@0HABVidVec3@@H@Z 100ad6d0 f   Projectile.obj
 0001:000ac820       ?CatchProjectile@idProjectile@@QAEXPAVidEntity@@PBD@Z 100ad820 f   Projectile.obj
 0001:000aca00       ??0idGuidedProjectile@@QAE@XZ 100ada00 f   Projectile.obj
 0001:000acac0       ??_GidGuidedProjectile@@UAEPAXI@Z 100adac0 f i Projectile.obj
 0001:000acac0       ??_EidSoulCubeMissile@@UAEPAXI@Z 100adac0 f i Projectile.obj
 0001:000acac0       ??_EidGuidedProjectile@@UAEPAXI@Z 100adac0 f i Projectile.obj
 0001:000acac0       ??_GidSoulCubeMissile@@UAEPAXI@Z 100adac0 f i Projectile.obj
 0001:000acaf0       ??0idBFGProjectile@@QAE@XZ 100adaf0 f   Projectile.obj
 0001:000acb90       ??1idBFGProjectile@@UAE@XZ 100adb90 f   Projectile.obj
 0001:000acc40       ?CreateInstance@idDebris@@SAPAVidClass@@XZ 100adc40 f   Projectile.obj
 0001:000acd10       ?Launch@idDebris@@QAEXXZ   100add10 f   Projectile.obj
 0001:000ad650       ?Killed@idDebris@@UAEXPAVidEntity@@0HABVidVec3@@H@Z 100ae650 f   Projectile.obj
 0001:000ad6a0       ??0idHomingProjectile@@QAE@XZ 100ae6a0 f   Projectile.obj
 0001:000ad780       ??_GidHomingProjectile@@UAEPAXI@Z 100ae780 f i Projectile.obj
 0001:000ad780       ??_EidHomingProjectile@@UAEPAXI@Z 100ae780 f i Projectile.obj
 0001:000ad7b0       ?CreateInstance@idProjectile@@SAPAVidClass@@XZ 100ae7b0 f   Projectile.obj
 0001:000ad850       ?Create@idProjectile@@QAEXPAVidEntity@@ABVidVec3@@1@Z 100ae850 f   Projectile.obj
 0001:000adce0       ?Explode@idProjectile@@UAEXABUtrace_s@@PAVidEntity@@@Z 100aece0 f   Projectile.obj
 0001:000aeb20       ?Event_CreateProjectile@idProjectile@@QAEXPAVidEntity@@ABVidVec3@@1@Z 100afb20 f   Projectile.obj
 0001:000aeb30       ?ReadFromSnapshot@idProjectile@@UAEXABVidBitMsgDelta@@@Z 100afb30 f   Projectile.obj
 0001:000af050       ?CreateInstance@idGuidedProjectile@@SAPAVidClass@@XZ 100b0050 f   Projectile.obj
 0001:000af0f0       ?CreateInstance@idSoulCubeMissile@@SAPAVidClass@@XZ 100b00f0 f   Projectile.obj
 0001:000af1a0       ?CreateInstance@idBFGProjectile@@SAPAVidClass@@XZ 100b01a0 f   Projectile.obj
 0001:000af240       ??_EidBFGProjectile@@UAEPAXI@Z 100b0240 f i Projectile.obj
 0001:000af240       ??_GidBFGProjectile@@UAEPAXI@Z 100b0240 f i Projectile.obj
 0001:000af260       ?Explode@idBFGProjectile@@UAEXABUtrace_s@@PAVidEntity@@@Z 100b0260 f   Projectile.obj
 0001:000af6b0       ?CreateInstance@idHomingProjectile@@SAPAVidClass@@XZ 100b06b0 f   Projectile.obj
 0001:000af750       ?Restore@idBFGProjectile@@QAEXPAVidRestoreGame@@@Z 100b0750 f   Projectile.obj
 0001:000af9b0       ?Launch@idBFGProjectile@@UAEXABVidVec3@@00MMM@Z 100b09b0 f   Projectile.obj
 0001:000b0950       ??0idPVS@@QAE@XZ           100b1950 f   Pvs.obj
 0001:000b09c0       ?DestroyPVSData@idPVS@@AAEXXZ 100b19c0 f   Pvs.obj
 0001:000b0a60       ?FloodFrontPortalPVS_r@idPVS@@ABEXPAUpvsPortal_s@@H@Z 100b1a60 f   Pvs.obj
 0001:000b0b10       ?FloodPassagePVS_r@idPVS@@ABEPAUpvsStack_s@@PAUpvsPortal_s@@PBU3@PAU2@@Z 100b1b10 f   Pvs.obj
 0001:000b0cb0       ?DestroyPassages@idPVS@@ABEXXZ 100b1cb0 f   Pvs.obj
 0001:000b0d30       ?AreaPVSFromPortalPVS@idPVS@@ABEHXZ 100b1d30 f   Pvs.obj
 0001:000b0ed0       ?Shutdown@idPVS@@QAEXXZ    100b1ed0 f   Pvs.obj
 0001:000b0f50       ?GetConnectedAreas@idPVS@@ABEXHPA_N@Z 100b1f50 f   Pvs.obj
 0001:000b1010       ?GetPVSArea@idPVS@@QBEHABVidVec3@@@Z 100b2010 f   Pvs.obj
 0001:000b1020       ?GetPVSAreas@idPVS@@QBEHABVidBounds@@PAHH@Z 100b2020 f   Pvs.obj
 0001:000b1030       ?AllocCurrentPVS@idPVS@@ABE?AUpvsHandle_s@@I@Z 100b2030 f   Pvs.obj
 0001:000b1090       ?FreeCurrentPVS@idPVS@@QBEXUpvsHandle_s@@@Z 100b2090 f   Pvs.obj
 0001:000b10d0       ?InCurrentPVS@idPVS@@QBE_NUpvsHandle_s@@PBHH@Z 100b20d0 f   Pvs.obj
 0001:000b1160       ?CheckAreasForPortalSky@idPVS@@QAE_NUpvsHandle_s@@ABVidVec3@@@Z 100b2160 f   Pvs.obj
 0001:000b1200       ??1idPVS@@QAE@XZ           100b2200 f   Pvs.obj
 0001:000b1210       ?FrontPortalPVS@idPVS@@ABEXXZ 100b2210 f   Pvs.obj
 0001:000b1680       ?SetupCurrentPVS@idPVS@@QBE?AUpvsHandle_s@@HW4pvsType_t@@@Z 100b2680 f   Pvs.obj
 0001:000b1790       ?SetupCurrentPVS@idPVS@@QBE?AUpvsHandle_s@@PBHHW4pvsType_t@@@Z 100b2790 f   Pvs.obj
 0001:000b1970       ?MergeCurrentPVS@idPVS@@QBE?AUpvsHandle_s@@U2@0@Z 100b2970 f   Pvs.obj
 0001:000b1a30       ?CreatePVSData@idPVS@@AAEXXZ 100b2a30 f   Pvs.obj
 0001:000b1d00       ?AddPassageBoundaries@idPVS@@ABEXABVidWinding@@0_NPAVidPlane@@AAHH@Z 100b2d00 f   Pvs.obj
 0001:000b23b0       ?CreatePassages@idPVS@@ABEXXZ 100b33b0 f   Pvs.obj
 0001:000b27c0       ?DrawPVS@idPVS@@QBEXABVidVec3@@W4pvsType_t@@@Z 100b37c0 f   Pvs.obj
 0001:000b2a40       ?PassagePVS@idPVS@@ABEXXZ  100b3a40 f   Pvs.obj
 0001:000b2ae0       ?Init@idPVS@@QAEXXZ        100b3ae0 f   Pvs.obj
 0001:000b2d70       ?GetType@idSecurityCamera@@UBEPAVidTypeInfo@@XZ 100b3d70 f   SecurityCamera.obj
 0001:000b2d80       ?Save@idSecurityCamera@@QBEXPAVidSaveGame@@@Z 100b3d80 f   SecurityCamera.obj
 0001:000b2ea0       ?Restore@idSecurityCamera@@QAEXPAVidRestoreGame@@@Z 100b3ea0 f   SecurityCamera.obj
 0001:000b2fa0       ?Present@idSecurityCamera@@UAEXXZ 100b3fa0 f   SecurityCamera.obj
 0001:000b3020       ?GetAxis@idSecurityCamera@@ABE?BVidVec3@@XZ 100b4020 f   SecurityCamera.obj
 0001:000b30b0       ?StartSweep@idSecurityCamera@@AAEXXZ 100b40b0 f   SecurityCamera.obj
 0001:000b3150       ?Event_ContinueSweep@idSecurityCamera@@AAEXXZ 100b4150 f   SecurityCamera.obj
 0001:000b3230       ?Event_Alert@idSecurityCamera@@AAEXXZ 100b4230 f   SecurityCamera.obj
 0001:000b32c0       ?Event_ReverseSweep@idSecurityCamera@@AAEXXZ 100b42c0 f   SecurityCamera.obj
 0001:000b3310       ?Event_Pause@idSecurityCamera@@AAEXXZ 100b4310 f   SecurityCamera.obj
 0001:000b3380       ?Killed@idSecurityCamera@@UAEXPAVidEntity@@0HABVidVec3@@H@Z 100b4380 f   SecurityCamera.obj
 0001:000b3500       ?Pain@idSecurityCamera@@UAE_NPAVidEntity@@0HABVidVec3@@H@Z 100b4500 f   SecurityCamera.obj
 0001:000b3540       ??_GidSecurityCamera@@UAEPAXI@Z 100b4540 f i SecurityCamera.obj
 0001:000b3540       ??_EidSecurityCamera@@UAEPAXI@Z 100b4540 f i SecurityCamera.obj
 0001:000b35b0       ?Spawn@idSecurityCamera@@QAEXXZ 100b45b0 f   SecurityCamera.obj
 0001:000b39c0       ?DrawFov@idSecurityCamera@@AAEXXZ 100b49c0 f   SecurityCamera.obj
 0001:000b4500       ?GetRenderView@idSecurityCamera@@UAEPAUrenderView_s@@XZ 100b5500 f   SecurityCamera.obj
 0001:000b45e0       ?CreateInstance@idSecurityCamera@@SAPAVidClass@@XZ 100b55e0 f   SecurityCamera.obj
 0001:000b4730       ?Event_AddLight@idSecurityCamera@@AAEXXZ 100b5730 f   SecurityCamera.obj
 0001:000b4ea0       ?CanSeePlayer@idSecurityCamera@@AAE_NXZ 100b5ea0 f   SecurityCamera.obj
 0001:000b51b0       ?Think@idSecurityCamera@@UAEXXZ 100b61b0 f   SecurityCamera.obj
 0001:000b53c0       ?Shutdown@idSmokeParticles@@QAEXXZ 100b63c0 f   SmokeParticles.obj
 0001:000b5410       ?FreeSmokes@idSmokeParticles@@QAEXXZ 100b6410 f   SmokeParticles.obj
 0001:000b5520       ??0idSmokeParticles@@QAE@XZ 100b6520 f   SmokeParticles.obj
 0001:000b55b0       ?EmitSmoke@idSmokeParticles@@QAE_NPBVidDeclParticle@@HMABVidVec3@@ABVidMat3@@H@Z 100b65b0 f   SmokeParticles.obj
 0001:000b5eb0       ?UpdateRenderEntity@idSmokeParticles@@AAE_NPAUrenderEntity_s@@PBUrenderView_s@@@Z 100b6eb0 f   SmokeParticles.obj
 0001:000b6200       ?ModelCallback@idSmokeParticles@@CA_NPAUrenderEntity_s@@PBUrenderView_s@@@Z 100b7200 f   SmokeParticles.obj
 0001:000b6220       ?Init@idSmokeParticles@@QAEXXZ 100b7220 f   SmokeParticles.obj
 0001:000b64a0       ?GetType@idSound@@UBEPAVidTypeInfo@@XZ 100b74a0 f   Sound.obj
 0001:000b64b0       ?Save@idSound@@QBEXPAVidSaveGame@@@Z 100b74b0 f   Sound.obj
 0001:000b6540       ?Restore@idSound@@QAEXPAVidRestoreGame@@@Z 100b7540 f   Sound.obj
 0001:000b65c0       ?Event_Off@idSound@@AAEXXZ 100b75c0 f   Sound.obj
 0001:000b6600       ?ShowEditingDialog@idSound@@UAEXXZ 100b7600 f   Sound.obj
 0001:000b6620       ??0idSound@@QAE@XZ         100b7620 f   Sound.obj
 0001:000b6680       ?Spawn@idSound@@QAEXXZ     100b7680 f   Sound.obj
 0001:000b6870       ?Event_Trigger@idSound@@AAEXPAVidEntity@@@Z 100b7870 f   Sound.obj
 0001:000b69c0       ?Event_Timer@idSound@@AAEXXZ 100b79c0 f   Sound.obj
 0001:000b6a60       ?Think@idSound@@UAEXXZ     100b7a60 f   Sound.obj
 0001:000b6a80       ?UpdateChangeableSpawnArgs@idSound@@UAEXPBVidDict@@@Z 100b7a80 f   Sound.obj
 0001:000b6d50       ?SetSound@idSound@@QAEXPBDH@Z 100b7d50 f   Sound.obj
 0001:000b6df0       ?Event_On@idSound@@AAEXXZ  100b7df0 f   Sound.obj
 0001:000b6ea0       ?CreateInstance@idSound@@SAPAVidClass@@XZ 100b7ea0 f   Sound.obj
 0001:000b6f40       ??0SavedGui_s@@QAE@XZ      100b7f40 f i Target.obj
 0001:000b6f50       ?GetType@idTarget@@UBEPAVidTypeInfo@@XZ 100b7f50 f   Target.obj
 0001:000b6f60       ?GetType@idTarget_Remove@@UBEPAVidTypeInfo@@XZ 100b7f60 f   Target.obj
 0001:000b6f70       ?GetType@idTarget_Show@@UBEPAVidTypeInfo@@XZ 100b7f70 f   Target.obj
 0001:000b6f80       ?GetType@idTarget_Damage@@UBEPAVidTypeInfo@@XZ 100b7f80 f   Target.obj
 0001:000b6f90       ?GetType@idTarget_SessionCommand@@UBEPAVidTypeInfo@@XZ 100b7f90 f   Target.obj
 0001:000b6fa0       ?GetType@idTarget_EndLevel@@UBEPAVidTypeInfo@@XZ 100b7fa0 f   Target.obj
 0001:000b6fb0       ?GetType@idTarget_WaitForButton@@UBEPAVidTypeInfo@@XZ 100b7fb0 f   Target.obj
 0001:000b6fc0       ?Event_Activate@idTarget_WaitForButton@@AAEXPAVidEntity@@@Z 100b7fc0 f   Target.obj
 0001:000b7000       ?Think@idTarget_WaitForButton@@UAEXXZ 100b8000 f   Target.obj
 0001:000b7060       ?GetType@idTarget_SetGlobalShaderTime@@UBEPAVidTypeInfo@@XZ 100b8060 f   Target.obj
 0001:000b7070       ?GetType@idTarget_SetShaderParm@@UBEPAVidTypeInfo@@XZ 100b8070 f   Target.obj
 0001:000b7080       ?GetType@idTarget_SetShaderTime@@UBEPAVidTypeInfo@@XZ 100b8080 f   Target.obj
 0001:000b7090       ?GetType@idTarget_FadeEntity@@UBEPAVidTypeInfo@@XZ 100b8090 f   Target.obj
 0001:000b70a0       ?Save@idTarget_FadeEntity@@QBEXPAVidSaveGame@@@Z 100b80a0 f   Target.obj
 0001:000b70e0       ?Restore@idTarget_FadeEntity@@QAEXPAVidRestoreGame@@@Z 100b80e0 f   Target.obj
 0001:000b7120       ?GetType@idTarget_LightFadeIn@@UBEPAVidTypeInfo@@XZ 100b8120 f   Target.obj
 0001:000b7130       ?GetType@idTarget_LightFadeOut@@UBEPAVidTypeInfo@@XZ 100b8130 f   Target.obj
 0001:000b7140       ?GetType@idTarget_Give@@UBEPAVidTypeInfo@@XZ 100b8140 f   Target.obj
 0001:000b7150       ?GetType@idTarget_GiveEmail@@UBEPAVidTypeInfo@@XZ 100b8150 f   Target.obj
 0001:000b7160       ?GetType@idTarget_SetModel@@UBEPAVidTypeInfo@@XZ 100b8160 f   Target.obj
 0001:000b7170       ?GetType@idTarget_SetInfluence@@UBEPAVidTypeInfo@@XZ 100b8170 f   Target.obj
 0001:000b7180       ?Event_ClearFlash@idTarget_SetInfluence@@AAEXM@Z 100b8180 f   Target.obj
 0001:000b71d0       ?GetType@idTarget_SetKeyVal@@UBEPAVidTypeInfo@@XZ 100b81d0 f   Target.obj
 0001:000b71e0       ?GetType@idTarget_SetFov@@UBEPAVidTypeInfo@@XZ 100b81e0 f   Target.obj
 0001:000b71f0       ?GetType@idTarget_SetPrimaryObjective@@UBEPAVidTypeInfo@@XZ 100b81f0 f   Target.obj
 0001:000b7200       ?GetType@idTarget_LockDoor@@UBEPAVidTypeInfo@@XZ 100b8200 f   Target.obj
 0001:000b7210       ?GetType@idTarget_CallObjectFunction@@UBEPAVidTypeInfo@@XZ 100b8210 f   Target.obj
 0001:000b7220       ?GetType@idTarget_EnableLevelWeapons@@UBEPAVidTypeInfo@@XZ 100b8220 f   Target.obj
 0001:000b7230       ?GetType@idTarget_Tip@@UBEPAVidTypeInfo@@XZ 100b8230 f   Target.obj
 0001:000b7240       ?Event_GetPlayerPos@idTarget_Tip@@AAEXXZ 100b8240 f   Target.obj
 0001:000b7290       ?Event_TipOff@idTarget_Tip@@AAEXXZ 100b8290 f   Target.obj
 0001:000b73b0       ?GetType@idTarget_GiveSecurity@@UBEPAVidTypeInfo@@XZ 100b83b0 f   Target.obj
 0001:000b73c0       ?GetType@idTarget_RemoveWeapons@@UBEPAVidTypeInfo@@XZ 100b83c0 f   Target.obj
 0001:000b73d0       ?GetType@idTarget_LevelTrigger@@UBEPAVidTypeInfo@@XZ 100b83d0 f   Target.obj
 0001:000b73e0       ?GetType@idTarget_EnableStamina@@UBEPAVidTypeInfo@@XZ 100b83e0 f   Target.obj
 0001:000b73f0       ?GetType@idTarget_FadeSoundClass@@UBEPAVidTypeInfo@@XZ 100b83f0 f   Target.obj
 0001:000b7400       ?CreateInstance@idTarget@@SAPAVidClass@@XZ 100b8400 f   Target.obj
 0001:000b74b0       ?CreateInstance@idTarget_Remove@@SAPAVidClass@@XZ 100b84b0 f   Target.obj
 0001:000b7560       ?Event_Activate@idTarget_Remove@@AAEXPAVidEntity@@@Z 100b8560 f   Target.obj
 0001:000b75d0       ?CreateInstance@idTarget_Show@@SAPAVidClass@@XZ 100b85d0 f   Target.obj
 0001:000b7680       ?Event_Activate@idTarget_Show@@AAEXPAVidEntity@@@Z 100b8680 f   Target.obj
 0001:000b76e0       ?CreateInstance@idTarget_Damage@@SAPAVidClass@@XZ 100b86e0 f   Target.obj
 0001:000b7790       ?Event_Activate@idTarget_Damage@@AAEXPAVidEntity@@@Z 100b8790 f   Target.obj
 0001:000b7820       ?CreateInstance@idTarget_SessionCommand@@SAPAVidClass@@XZ 100b8820 f   Target.obj
 0001:000b78d0       ?Event_Activate@idTarget_SessionCommand@@AAEXPAVidEntity@@@Z 100b88d0 f   Target.obj
 0001:000b7910       ?CreateInstance@idTarget_EndLevel@@SAPAVidClass@@XZ 100b8910 f   Target.obj
 0001:000b79c0       ?CreateInstance@idTarget_WaitForButton@@SAPAVidClass@@XZ 100b89c0 f   Target.obj
 0001:000b7a70       ?CreateInstance@idTarget_SetGlobalShaderTime@@SAPAVidClass@@XZ 100b8a70 f   Target.obj
 0001:000b7b20       ?Event_Activate@idTarget_SetGlobalShaderTime@@AAEXPAVidEntity@@@Z 100b8b20 f   Target.obj
 0001:000b7b70       ?CreateInstance@idTarget_SetShaderParm@@SAPAVidClass@@XZ 100b8b70 f   Target.obj
 0001:000b7c20       ?Event_Activate@idTarget_SetShaderParm@@AAEXPAVidEntity@@@Z 100b8c20 f   Target.obj
 0001:000b7dd0       ?CreateInstance@idTarget_SetShaderTime@@SAPAVidClass@@XZ 100b8dd0 f   Target.obj
 0001:000b7e80       ?Event_Activate@idTarget_SetShaderTime@@AAEXPAVidEntity@@@Z 100b8e80 f   Target.obj
 0001:000b7f20       ?Event_Activate@idTarget_FadeEntity@@AAEXPAVidEntity@@@Z 100b8f20 f   Target.obj
 0001:000b8000       ?Think@idTarget_FadeEntity@@UAEXXZ 100b9000 f   Target.obj
 0001:000b8100       ?CreateInstance@idTarget_LightFadeIn@@SAPAVidClass@@XZ 100b9100 f   Target.obj
 0001:000b81b0       ?Event_Activate@idTarget_LightFadeIn@@AAEXPAVidEntity@@@Z 100b91b0 f   Target.obj
 0001:000b8290       ?CreateInstance@idTarget_LightFadeOut@@SAPAVidClass@@XZ 100b9290 f   Target.obj
 0001:000b8340       ?Event_Activate@idTarget_LightFadeOut@@AAEXPAVidEntity@@@Z 100b9340 f   Target.obj
 0001:000b8420       ?CreateInstance@idTarget_Give@@SAPAVidClass@@XZ 100b9420 f   Target.obj
 0001:000b84d0       ?Spawn@idTarget_Give@@QAEXXZ 100b94d0 f   Target.obj
 0001:000b8510       ?CreateInstance@idTarget_GiveEmail@@SAPAVidClass@@XZ 100b9510 f   Target.obj
 0001:000b85c0       ?Event_Activate@idTarget_GiveEmail@@AAEXPAVidEntity@@@Z 100b95c0 f   Target.obj
 0001:000b8670       ?CreateInstance@idTarget_SetModel@@SAPAVidClass@@XZ 100b9670 f   Target.obj
 0001:000b8720       ?Spawn@idTarget_SetModel@@QAEXXZ 100b9720 f   Target.obj
 0001:000b8780       ?Event_Activate@idTarget_SetModel@@AAEXPAVidEntity@@@Z 100b9780 f   Target.obj
 0001:000b8800       ?Save@idTarget_SetInfluence@@QBEXPAVidSaveGame@@@Z 100b9800 f   Target.obj
 0001:000b8a20       ?Spawn@idTarget_SetInfluence@@QAEXXZ 100b9a20 f   Target.obj
 0001:000b8b20       ?Event_Flash@idTarget_SetInfluence@@AAEXMH@Z 100b9b20 f   Target.obj
 0001:000b8c10       ?Event_Activate@idTarget_SetInfluence@@AAEXPAVidEntity@@@Z 100b9c10 f   Target.obj
 0001:000b9540       ?Think@idTarget_SetInfluence@@EAEXXZ 100ba540 f   Target.obj
 0001:000b9680       ?Event_RestoreInfluence@idTarget_SetInfluence@@AAEXXZ 100ba680 f   Target.obj
 0001:000b9a90       ?CreateInstance@idTarget_SetKeyVal@@SAPAVidClass@@XZ 100baa90 f   Target.obj
 0001:000b9b40       ?Save@idTarget_SetFov@@QBEXPAVidSaveGame@@@Z 100bab40 f   Target.obj
 0001:000b9ba0       ?Restore@idTarget_SetFov@@QAEXPAVidRestoreGame@@@Z 100baba0 f   Target.obj
 0001:000b9cc0       ?Event_Activate@idTarget_SetFov@@AAEXPAVidEntity@@@Z 100bacc0 f   Target.obj
 0001:000b9dd0       ?Think@idTarget_SetFov@@UAEXXZ 100badd0 f   Target.obj
 0001:000b9f00       ?CreateInstance@idTarget_SetPrimaryObjective@@SAPAVidClass@@XZ 100baf00 f   Target.obj
 0001:000b9fb0       ?Event_Activate@idTarget_SetPrimaryObjective@@AAEXPAVidEntity@@@Z 100bafb0 f   Target.obj
 0001:000ba020       ?CreateInstance@idTarget_LockDoor@@SAPAVidClass@@XZ 100bb020 f   Target.obj
 0001:000ba0d0       ?Event_Activate@idTarget_LockDoor@@AAEXPAVidEntity@@@Z 100bb0d0 f   Target.obj
 0001:000ba180       ?CreateInstance@idTarget_CallObjectFunction@@SAPAVidClass@@XZ 100bb180 f   Target.obj
 0001:000ba230       ?Event_Activate@idTarget_CallObjectFunction@@AAEXPAVidEntity@@@Z 100bb230 f   Target.obj
 0001:000ba3d0       ?CreateInstance@idTarget_EnableLevelWeapons@@SAPAVidClass@@XZ 100bb3d0 f   Target.obj
 0001:000ba480       ?Event_Activate@idTarget_EnableLevelWeapons@@AAEXPAVidEntity@@@Z 100bb480 f   Target.obj
 0001:000ba5c0       ?CreateInstance@idTarget_Tip@@SAPAVidClass@@XZ 100bb5c0 f   Target.obj
 0001:000ba680       ?Event_Activate@idTarget_Tip@@AAEXPAVidEntity@@@Z 100bb680 f   Target.obj
 0001:000ba740       ?CreateInstance@idTarget_GiveSecurity@@SAPAVidClass@@XZ 100bb740 f   Target.obj
 0001:000ba7f0       ?Event_Activate@idTarget_GiveSecurity@@AAEXPAVidEntity@@@Z 100bb7f0 f   Target.obj
 0001:000ba840       ?CreateInstance@idTarget_RemoveWeapons@@SAPAVidClass@@XZ 100bb840 f   Target.obj
 0001:000ba8f0       ?Event_Activate@idTarget_RemoveWeapons@@AAEXPAVidEntity@@@Z 100bb8f0 f   Target.obj
 0001:000ba970       ?CreateInstance@idTarget_LevelTrigger@@SAPAVidClass@@XZ 100bb970 f   Target.obj
 0001:000baa20       ?Event_Activate@idTarget_LevelTrigger@@AAEXPAVidEntity@@@Z 100bba20 f   Target.obj
 0001:000baaa0       ?CreateInstance@idTarget_EnableStamina@@SAPAVidClass@@XZ 100bbaa0 f   Target.obj
 0001:000bab50       ?Event_Activate@idTarget_EnableStamina@@AAEXPAVidEntity@@@Z 100bbb50 f   Target.obj
 0001:000bac00       ?CreateInstance@idTarget_FadeSoundClass@@SAPAVidClass@@XZ 100bbc00 f   Target.obj
 0001:000bacb0       ?Event_Activate@idTarget_FadeSoundClass@@AAEXPAVidEntity@@@Z 100bbcb0 f   Target.obj
 0001:000bae10       ?Event_RestoreVolume@idTarget_FadeSoundClass@@AAEXXZ 100bbe10 f   Target.obj
 0001:000baec0       ?Event_Activate@idTarget_EndLevel@@AAEXPAVidEntity@@@Z 100bbec0 f   Target.obj
 0001:000bb0b0       ?CreateInstance@idTarget_FadeEntity@@SAPAVidClass@@XZ 100bc0b0 f   Target.obj
 0001:000bb180       ??0idTarget_SetInfluence@@QAE@XZ 100bc180 f   Target.obj
 0001:000bb2d0       ??1idTarget_SetInfluence@@UAE@XZ 100bc2d0 f i Target.obj
 0001:000bb410       ?Restore@idTarget_SetInfluence@@QAEXPAVidRestoreGame@@@Z 100bc410 f   Target.obj
 0001:000bbe20       ?Event_GatherEntities@idTarget_SetInfluence@@AAEXXZ 100bce20 f   Target.obj
 0001:000bcae0       ?Event_Activate@idTarget_SetKeyVal@@AAEXPAVidEntity@@@Z 100bdae0 f   Target.obj
 0001:000bcda0       ?CreateInstance@idTarget_SetFov@@SAPAVidClass@@XZ 100bdda0 f   Target.obj
 0001:000bce70       ?Event_Activate@idTarget_Give@@AAEXPAVidEntity@@@Z 100bde70 f   Target.obj
 0001:000bd120       ?CreateInstance@idTarget_SetInfluence@@SAPAVidClass@@XZ 100be120 f   Target.obj
 0001:000bd1c0       ??_GidTarget_SetInfluence@@UAEPAXI@Z 100be1c0 f i Target.obj
 0001:000bd1c0       ??_EidTarget_SetInfluence@@UAEPAXI@Z 100be1c0 f i Target.obj
 0001:000bd1e0       ?GetType@idTrigger@@UBEPAVidTypeInfo@@XZ 100be1e0 f   Trigger.obj
 0001:000bd1f0       ?Enable@idTrigger@@UAEXXZ  100be1f0 f   Trigger.obj
 0001:000bd220       ?Disable@idTrigger@@UAEXXZ 100be220 f   Trigger.obj
 0001:000bd250       ?CallScript@idTrigger@@IBEXXZ 100be250 f   Trigger.obj
 0001:000bd2d0       ?Save@idTrigger@@QBEXPAVidSaveGame@@@Z 100be2d0 f   Trigger.obj
 0001:000bd300       ?Event_Enable@idTrigger@@IAEXXZ 100be300 f   Trigger.obj
 0001:000bd310       ?GetType@idTrigger_Multi@@UBEPAVidTypeInfo@@XZ 100be310 f   Trigger.obj
 0001:000bd320       ?Restore@idTrigger_Multi@@QAEXPAVidRestoreGame@@@Z 100be320 f   Trigger.obj
 0001:000bd3d0       ?TriggerAction@idTrigger_Multi@@IAEXPAVidEntity@@@Z 100be3d0 f   Trigger.obj
 0001:000bd510       ?Event_TriggerAction@idTrigger_Multi@@IAEXPAVidEntity@@@Z 100be510 f   Trigger.obj
 0001:000bd520       ?GetType@idTrigger_EntityName@@UBEPAVidTypeInfo@@XZ 100be520 f   Trigger.obj
 0001:000bd530       ?Restore@idTrigger_EntityName@@QAEXPAVidRestoreGame@@@Z 100be530 f   Trigger.obj
 0001:000bd5b0       ?TriggerAction@idTrigger_EntityName@@AAEXPAVidEntity@@@Z 100be5b0 f   Trigger.obj
 0001:000bd6e0       ?Event_TriggerAction@idTrigger_EntityName@@AAEXPAVidEntity@@@Z 100be6e0 f   Trigger.obj
 0001:000bd6f0       ?GetType@idTrigger_Timer@@UBEPAVidTypeInfo@@XZ 100be6f0 f   Trigger.obj
 0001:000bd700       ?Restore@idTrigger_Timer@@QAEXPAVidRestoreGame@@@Z 100be700 f   Trigger.obj
 0001:000bd770       ?Enable@idTrigger_Timer@@UAEXXZ 100be770 f   Trigger.obj
 0001:000bd7a0       ?Disable@idTrigger_Timer@@UAEXXZ 100be7a0 f   Trigger.obj
 0001:000bd7c0       ?Event_Timer@idTrigger_Timer@@AAEXXZ 100be7c0 f   Trigger.obj
 0001:000bd840       ?GetType@idTrigger_Count@@UBEPAVidTypeInfo@@XZ 100be840 f   Trigger.obj
 0001:000bd850       ?Save@idTrigger_Count@@QBEXPAVidSaveGame@@@Z 100be850 f   Trigger.obj
 0001:000bd890       ?Restore@idTrigger_Count@@QAEXPAVidRestoreGame@@@Z 100be890 f   Trigger.obj
 0001:000bd8d0       ?Spawn@idTrigger_Count@@QAEXXZ 100be8d0 f   Trigger.obj
 0001:000bd920       ?Event_TriggerAction@idTrigger_Count@@AAEXPAVidEntity@@@Z 100be920 f   Trigger.obj
 0001:000bd9c0       ?GetType@idTrigger_Hurt@@UBEPAVidTypeInfo@@XZ 100be9c0 f   Trigger.obj
 0001:000bd9d0       ?Save@idTrigger_Hurt@@QBEXPAVidSaveGame@@@Z 100be9d0 f   Trigger.obj
 0001:000bda10       ?Restore@idTrigger_Hurt@@QAEXPAVidRestoreGame@@@Z 100bea10 f   Trigger.obj
 0001:000bda50       ?Spawn@idTrigger_Hurt@@QAEXXZ 100bea50 f   Trigger.obj
 0001:000bdaa0       ?Event_Toggle@idTrigger_Hurt@@AAEXPAVidEntity@@@Z 100beaa0 f   Trigger.obj
 0001:000bdac0       ?GetType@idTrigger_Fade@@UBEPAVidTypeInfo@@XZ 100beac0 f   Trigger.obj
 0001:000bdad0       ?GetType@idTrigger_Touch@@UBEPAVidTypeInfo@@XZ 100bead0 f   Trigger.obj
 0001:000bdae0       ?Save@idTrigger_Touch@@QAEXPAVidSaveGame@@@Z 100beae0 f   Trigger.obj
 0001:000bdb00       ?Restore@idTrigger_Touch@@QAEXPAVidRestoreGame@@@Z 100beb00 f   Trigger.obj
 0001:000bdb20       ?Enable@idTrigger_Touch@@UAEXXZ 100beb20 f   Trigger.obj
 0001:000bdb30       ?Disable@idTrigger_Touch@@UAEXXZ 100beb30 f   Trigger.obj
 0001:000bdb40       ?GetType@idTrigger_Flag@@UBEPAVidTypeInfo@@XZ 100beb40 f   Trigger.obj
 0001:000bdb50       ?CreateInstance@idTrigger@@SAPAVidClass@@XZ 100beb50 f   Trigger.obj
 0001:000bdc00       ?DrawDebugInfo@idTrigger@@SAXXZ 100bec00 f   Trigger.obj
 0001:000be4b0       ?Restore@idTrigger@@QAEXPAVidRestoreGame@@@Z 100bf4b0 f   Trigger.obj
 0001:000be580       ?Spawn@idTrigger@@QAEXXZ   100bf580 f   Trigger.obj
 0001:000be6c0       ??0idTrigger_Multi@@QAE@XZ 100bf6c0 f   Trigger.obj
 0001:000be730       ?Save@idTrigger_Multi@@QBEXPAVidSaveGame@@@Z 100bf730 f   Trigger.obj
 0001:000be7f0       ?CheckFacing@idTrigger_Multi@@IAE_NPAVidEntity@@@Z 100bf7f0 f   Trigger.obj
 0001:000be940       ?Event_Trigger@idTrigger_Multi@@IAEXPAVidEntity@@@Z 100bf940 f   Trigger.obj
 0001:000bea60       ?Event_Touch@idTrigger_Multi@@IAEXPAVidEntity@@PAUtrace_s@@@Z 100bfa60 f   Trigger.obj
 0001:000bebf0       ??0idTrigger_EntityName@@QAE@XZ 100bfbf0 f   Trigger.obj
 0001:000bec60       ?Save@idTrigger_EntityName@@QBEXPAVidSaveGame@@@Z 100bfc60 f   Trigger.obj
 0001:000becf0       ?Spawn@idTrigger_EntityName@@QAEXXZ 100bfcf0 f   Trigger.obj
 0001:000bef60       ?Event_Trigger@idTrigger_EntityName@@AAEXPAVidEntity@@@Z 100bff60 f   Trigger.obj
 0001:000bf090       ?Event_Touch@idTrigger_EntityName@@AAEXPAVidEntity@@PAUtrace_s@@@Z 100c0090 f   Trigger.obj
 0001:000bf1d0       ??0idTrigger_Timer@@QAE@XZ 100c01d0 f   Trigger.obj
 0001:000bf240       ?Save@idTrigger_Timer@@QBEXPAVidSaveGame@@@Z 100c0240 f   Trigger.obj
 0001:000bf2b0       ?Spawn@idTrigger_Timer@@QAEXXZ 100c02b0 f   Trigger.obj
 0001:000bf3f0       ?Event_Use@idTrigger_Timer@@AAEXPAVidEntity@@@Z 100c03f0 f   Trigger.obj
 0001:000bf480       ?CreateInstance@idTrigger_Count@@SAPAVidClass@@XZ 100c0480 f   Trigger.obj
 0001:000bf540       ?Event_Trigger@idTrigger_Count@@AAEXPAVidEntity@@@Z 100c0540 f   Trigger.obj
 0001:000bf5d0       ?CreateInstance@idTrigger_Hurt@@SAPAVidClass@@XZ 100c05d0 f   Trigger.obj
 0001:000bf690       ?Event_Touch@idTrigger_Hurt@@AAEXPAVidEntity@@PAUtrace_s@@@Z 100c0690 f   Trigger.obj
 0001:000bf8e0       ?CreateInstance@idTrigger_Fade@@SAPAVidClass@@XZ 100c08e0 f   Trigger.obj
 0001:000bf990       ?Event_Trigger@idTrigger_Fade@@AAEXPAVidEntity@@@Z 100c0990 f   Trigger.obj
 0001:000bfa60       ?CreateInstance@idTrigger_Touch@@SAPAVidClass@@XZ 100c0a60 f   Trigger.obj
 0001:000bfb10       ?Spawn@idTrigger_Touch@@QAEXXZ 100c0b10 f   Trigger.obj
 0001:000bfbe0       ?TouchEntities@idTrigger_Touch@@QAEXXZ 100c0be0 f   Trigger.obj
 0001:000bfd30       ?Think@idTrigger_Touch@@UAEXXZ 100c0d30 f   Trigger.obj
 0001:000bfd50       ?Event_Touch@idTrigger_Flag@@AAEXPAVidEntity@@PAUtrace_s@@@Z 100c0d50 f   Trigger.obj
 0001:000bff20       ?CreateInstance@idTrigger_Multi@@SAPAVidClass@@XZ 100c0f20 f   Trigger.obj
 0001:000bffc0       ??_GidTrigger_Multi@@UAEPAXI@Z 100c0fc0 f i Trigger.obj
 0001:000bffc0       ??_EidTrigger_Multi@@UAEPAXI@Z 100c0fc0 f i Trigger.obj
 0001:000bffc0       ??_EidTrigger_Flag@@UAEPAXI@Z 100c0fc0 f i Trigger.obj
 0001:000bffc0       ??_GidTrigger_Flag@@UAEPAXI@Z 100c0fc0 f i Trigger.obj
 0001:000c0030       ?Spawn@idTrigger_Multi@@QAEXXZ 100c1030 f   Trigger.obj
 0001:000c0360       ?CreateInstance@idTrigger_EntityName@@SAPAVidClass@@XZ 100c1360 f   Trigger.obj
 0001:000c0400       ??_EidTrigger_EntityName@@UAEPAXI@Z 100c1400 f i Trigger.obj
 0001:000c0400       ??_GidTrigger_EntityName@@UAEPAXI@Z 100c1400 f i Trigger.obj
 0001:000c0470       ?CreateInstance@idTrigger_Timer@@SAPAVidClass@@XZ 100c1470 f   Trigger.obj
 0001:000c0510       ??_GidTrigger_Timer@@UAEPAXI@Z 100c1510 f i Trigger.obj
 0001:000c0510       ??_EidTrigger_Timer@@UAEPAXI@Z 100c1510 f i Trigger.obj
 0001:000c0590       ?CreateInstance@idTrigger_Flag@@SAPAVidClass@@XZ 100c1590 f   Trigger.obj
 0001:000c0650       ?Spawn@idTrigger_Flag@@QAEXXZ 100c1650 f   Trigger.obj
 0001:000c07e0       ?GetType@idWeapon@@UBEPAVidTypeInfo@@XZ 100c17e0 f   Weapon.obj
 0001:000c07f0       ?IsPushable@idPhysics_Static@@UBE_NXZ 100c17f0 f   Physics_Static.obj
 0001:000c07f0       ?ShouldConstructScriptObjectAtSpawn@idWeapon@@UBE_NXZ 100c17f0 f   Weapon.obj
 0001:000c07f0       ?HasGroundContacts@idPhysics_StaticMulti@@UBE_NXZ 100c17f0 f   Physics_StaticMulti.obj
 0001:000c07f0       ?ShouldConstructScriptObjectAtSpawn@idActor@@UBE_NXZ 100c17f0 f   Actor.obj
 0001:000c07f0       ?IsPushable@idPhysics_Parametric@@UBE_NXZ 100c17f0 f   Physics_Parametric.obj
 0001:000c07f0       ?UpdateAnimationControllers@idEntity@@UAE_NXZ 100c17f0 f   Entity.obj
 0001:000c07f0       ?EvaluateContacts@idPhysics_Base@@UAE_NXZ 100c17f0 f   Physics_Base.obj
 0001:000c07f0       ?ShouldConstructScriptObjectAtSpawn@idTestModel@@UBE_NXZ 100c17f0 f   Anim_Testmodel.obj
 0001:000c07f0       ?HasAccum@FullscreenFX@@UAE_NXZ 100c17f0 f   PlayerView.obj
 0001:000c07f0       ?IsAtRest@idPhysics_Player@@UBE_NXZ 100c17f0 f   Physics_Player.obj
 0001:000c07f0       ?IsPushable@idPhysics_StaticMulti@@UBE_NXZ 100c17f0 f   Physics_StaticMulti.obj
 0001:000c07f0       ?OnLadder@idActor@@UBE_NXZ 100c17f0 f   Actor.obj
 0001:000c07f0       ?EvaluateContacts@idPhysics_StaticMulti@@UAE_NXZ 100c17f0 f   Physics_StaticMulti.obj
 0001:000c07f0       ?EvaluateContacts@idPhysics_Static@@UAE_NXZ 100c17f0 f   Physics_Static.obj
 0001:000c07f0       ?HasGroundContacts@idPhysics_Static@@UBE_NXZ 100c17f0 f   Physics_Static.obj
 0001:000c0800       ?UpdateSkin@idWeapon@@QAE_NXZ 100c1800 f   Weapon.obj
 0001:000c0870       ?SetModel@idWeapon@@UAEXPBD@Z 100c1870 f   Weapon.obj
 0001:000c0910       ?SetPushVelocity@idWeapon@@QAEXABVidVec3@@@Z 100c1910 f   Weapon.obj
 0001:000c0940       ?LowerWeapon@idWeapon@@QAEXXZ 100c1940 f   Weapon.obj
 0001:000c0990       ?RaiseWeapon@idWeapon@@QAEXXZ 100c1990 f   Weapon.obj
 0001:000c09f0       ?IsReady@idWeapon@@QBE_NXZ 100c19f0 f   Weapon.obj
 0001:000c0a30       ?IsReloading@idWeapon@@QBE_NXZ 100c1a30 f   Weapon.obj
 0001:000c0a40       ?IsHolstered@idWeapon@@QBE_NXZ 100c1a40 f   Weapon.obj
 0001:000c0a50       ?ConstructScriptObject@idWeapon@@UAEPAVidThread@@XZ 100c1a50 f   Weapon.obj
 0001:000c0ac0       ?DeconstructScriptObject@idWeapon@@UAEXXZ 100c1ac0 f   Weapon.obj
 0001:000c0b30       ?GetZoomFov@idWeapon@@QAEHXZ 100c1b30 f   Weapon.obj
 0001:000c0b40       ?GetWeaponAngleOffsets@idWeapon@@QAEXPAHPAM1@Z 100c1b40 f   Weapon.obj
 0001:000c0b70       ?GetWeaponTimeOffsets@idWeapon@@QAEXPAM0@Z 100c1b70 f   Weapon.obj
 0001:000c0b90       ?AmmoAvailable@idWeapon@@QBEHXZ 100c1b90 f   Weapon.obj
 0001:000c0bc0       ?AmmoInClip@idWeapon@@QBEHXZ 100c1bc0 f   Weapon.obj
 0001:000c0bd0       ?ResetAmmoClip@idWeapon@@QAEXXZ 100c1bd0 f   Weapon.obj
 0001:000c0be0       ?GetAmmoType@idWeapon@@QBEHXZ 100c1be0 f   Weapon.obj
 0001:000c0bf0       ?ClipSize@idWeapon@@QBEHXZ 100c1bf0 f   Weapon.obj
 0001:000c0c00       ?LowAmmo@idWeapon@@QBEHXZ  100c1c00 f   Weapon.obj
 0001:000c0c10       ?GetGrabberState@idWeapon@@QBEHXZ 100c1c10 f   Weapon.obj
 0001:000c0c20       ?AmmoCount@idWeapon@@QBEHXZ 100c1c20 f   Weapon.obj
 0001:000c0c50       ?Event_GetOwner@idWeapon@@AAEXXZ 100c1c50 f   Weapon.obj
 0001:000c0c60       ?Event_WeaponReloading@idWeapon@@AAEXXZ 100c1c60 f   Weapon.obj
 0001:000c0c70       ?Event_UseAmmo@idWeapon@@AAEXH@Z 100c1c70 f   Weapon.obj
 0001:000c0cf0       ?Event_AddToClip@idWeapon@@AAEXH@Z 100c1cf0 f   Weapon.obj
 0001:000c0d80       ?Event_AmmoInClip@idWeapon@@AAEXXZ 100c1d80 f   Weapon.obj
 0001:000c0da0       ?Event_AmmoAvailable@idWeapon@@AAEXXZ 100c1da0 f   Weapon.obj
 0001:000c0df0       ?Event_TotalAmmoCount@idWeapon@@AAEXXZ 100c1df0 f   Weapon.obj
 0001:000c0e20       ?Event_ClipSize@idWeapon@@AAEXXZ 100c1e20 f   Weapon.obj
 0001:000c0e40       ?Event_NetReload@idWeapon@@AAEXXZ 100c1e40 f   Weapon.obj
 0001:000c0e60       ?Event_NetEndReload@idWeapon@@AAEXXZ 100c1e60 f   Weapon.obj
 0001:000c0e80       ?Event_AnimDone@idWeapon@@AAEXHH@Z 100c1e80 f   Weapon.obj
 0001:000c0ed0       ?Event_SetBlendFrames@idWeapon@@AAEXHH@Z 100c1ed0 f   Weapon.obj
 0001:000c0ee0       ?Event_GetBlendFrames@idWeapon@@AAEXH@Z 100c1ee0 f   Weapon.obj
 0001:000c0ef0       ?Event_Next@idWeapon@@AAEXXZ 100c1ef0 f   Weapon.obj
 0001:000c0f00       ?Event_GetLightParm@idWeapon@@AAEXH@Z 100c1f00 f   Weapon.obj
 0001:000c0f40       ?Event_SetLightParm@idWeapon@@AAEXHM@Z 100c1f40 f   Weapon.obj
 0001:000c0f90       ?Event_SetLightParms@idWeapon@@AAEXMMMM@Z 100c1f90 f   Weapon.obj
 0001:000c0fe0       ?Event_Grabber@idWeapon@@AAEXH@Z 100c1fe0 f   Weapon.obj
 0001:000c1000       ?Event_GrabberHasTarget@idWeapon@@AAEXXZ 100c2000 f   Weapon.obj
 0001:000c1010       ?Event_GrabberSetGrabDistance@idWeapon@@AAEXM@Z 100c2010 f   Weapon.obj
 0001:000c1030       ?Event_CreateProjectile@idWeapon@@AAEXXZ 100c2030 f   Weapon.obj
 0001:000c10c0       ?Event_StartWeaponSmoke@idWeapon@@AAEXXZ 100c20c0 f   Weapon.obj
 0001:000c10d0       ?Event_StopWeaponSmoke@idWeapon@@AAEXXZ 100c20d0 f   Weapon.obj
 0001:000c10e0       ?Event_AllowDrop@idWeapon@@AAEXH@Z 100c20e0 f   Weapon.obj
 0001:000c1100       ?Event_IsInvisible@idWeapon@@AAEXXZ 100c2100 f   Weapon.obj
 0001:000c1140       ?ClientPredictionThink@idWeapon@@UAEXXZ 100c2140 f   Weapon.obj
 0001:000c1150       ?Spawn@idWeapon@@QAEXXZ    100c2150 f   Weapon.obj
 0001:000c1250       ?SetOwner@idWeapon@@QAEXPAVidPlayer@@@Z 100c2250 f   Weapon.obj
 0001:000c12e0       ?Save@idWeapon@@QBEXPAVidSaveGame@@@Z 100c22e0 f   Weapon.obj
 0001:000c19c0       ?InitWorldModel@idWeapon@@AAEXPBVidDeclEntityDef@@@Z 100c29c0 f   Weapon.obj
 0001:000c1bb0       ?Icon@idWeapon@@QBEPBDXZ   100c2bb0 f   Weapon.obj
 0001:000c1bc0       ?UpdateGUI@idWeapon@@QAEXXZ 100c2bc0 f   Weapon.obj
 0001:000c1e00       ?GetGlobalJointTransform@idWeapon@@QAE_N_NW4jointHandle_t@@AAVidVec3@@AAVidMat3@@@Z 100c2e00 f   Weapon.obj
 0001:000c2350       ?Raise@idWeapon@@QAEXXZ    100c3350 f   Weapon.obj
 0001:000c2370       ?PutAway@idWeapon@@QAEXXZ  100c3370 f   Weapon.obj
 0001:000c23a0       ?Reload@idWeapon@@QAEXXZ   100c33a0 f   Weapon.obj
 0001:000c23c0       ?HideWeapon@idWeapon@@QAEXXZ 100c33c0 f   Weapon.obj
 0001:000c2420       ?HideWorldModel@idWeapon@@QAEXXZ 100c3420 f   Weapon.obj
 0001:000c2460       ?ShowWorldModel@idWeapon@@QAEXXZ 100c3460 f   Weapon.obj
 0001:000c24a0       ?BeginAttack@idWeapon@@QAEXXZ 100c34a0 f   Weapon.obj
 0001:000c2500       ?EndAttack@idWeapon@@QAEXXZ 100c3500 f   Weapon.obj
 0001:000c2540       ?ShowCrosshair@idWeapon@@QBE_NXZ 100c3540 f   Weapon.obj
 0001:000c2790       ?CanDrop@idWeapon@@QBE_NXZ 100c3790 f   Weapon.obj
 0001:000c27e0       ?DropItem@idWeapon@@QAEPAVidEntity@@ABVidVec3@@HH_N@Z 100c37e0 f   Weapon.obj
 0001:000c28f0       ?SetState@idWeapon@@QAEXPBDH@Z 100c38f0 f   Weapon.obj
 0001:000c29a0       ?UpdateNozzleFx@idWeapon@@AAEXXZ 100c39a0 f   Weapon.obj
 0001:000c2b40       ?BloodSplat@idWeapon@@QAE_NM@Z 100c3b40 f   Weapon.obj
 0001:000c31c0       ?MuzzleRise@idWeapon@@AAEXAAVidVec3@@AAVidMat3@@@Z 100c41c0 f   Weapon.obj
 0001:000c3440       ?UpdateScript@idWeapon@@QAEXXZ 100c4440 f   Weapon.obj
 0001:000c34e0       ?AlertMonsters@idWeapon@@AAEXXZ 100c44e0 f   Weapon.obj
 0001:000c3bb0       ?EnterCinematic@idWeapon@@QAEXXZ 100c4bb0 f   Weapon.obj
 0001:000c3cc0       ?ExitCinematic@idWeapon@@QAEXXZ 100c4cc0 f   Weapon.obj
 0001:000c3d00       ?NetCatchup@idWeapon@@QAEXXZ 100c4d00 f   Weapon.obj
 0001:000c3d30       ?GetAmmoNumForName@idWeapon@@SAHPBD@Z 100c4d30 f   Weapon.obj
 0001:000c3eb0       ?WriteToSnapshot@idWeapon@@UBEXAAVidBitMsgDelta@@@Z 100c4eb0 f   Weapon.obj
 0001:000c3f10       ?ReadFromSnapshot@idWeapon@@UAEXABVidBitMsgDelta@@@Z 100c4f10 f   Weapon.obj
 0001:000c4020       ?ClientReceiveEvent@idWeapon@@UAE_NHHABVidBitMsg@@@Z 100c5020 f   Weapon.obj
 0001:000c4160       ?Event_WeaponState@idWeapon@@AAEXPBDH@Z 100c5160 f   Weapon.obj
 0001:000c41e0       ?Event_WeaponReady@idWeapon@@AAEXXZ 100c51e0 f   Weapon.obj
 0001:000c4220       ?Event_WeaponOutOfAmmo@idWeapon@@AAEXXZ 100c5220 f   Weapon.obj
 0001:000c4250       ?Event_WeaponHolstered@idWeapon@@AAEXXZ 100c5250 f   Weapon.obj
 0001:000c4280       ?Event_WeaponRising@idWeapon@@AAEXXZ 100c5280 f   Weapon.obj
 0001:000c42b0       ?Event_WeaponLowering@idWeapon@@AAEXXZ 100c52b0 f   Weapon.obj
 0001:000c42e0       ?Event_AutoReload@idWeapon@@AAEXXZ 100c52e0 f   Weapon.obj
 0001:000c4350       ?Event_PlayAnim@idWeapon@@AAEXHPBD@Z 100c5350 f   Weapon.obj
 0001:000c4510       ?Event_PlayCycle@idWeapon@@AAEXHPBD@Z 100c5510 f   Weapon.obj
 0001:000c46d0       ?Event_SetSkin@idWeapon@@AAEXPBD@Z 100c56d0 f   Weapon.obj
 0001:000c47c0       ?Event_Melee@idWeapon@@AAEXXZ 100c57c0 f   Weapon.obj
 0001:000c5000       ?Event_GetWorldModel@idWeapon@@AAEXXZ 100c6000 f   Weapon.obj
 0001:000c5040       ??4WeaponLight_t@@QAEAAU0@ABU0@@Z 100c6040 f i Weapon.obj
 0001:000c5200       ??0hashnode_s@?$idHashTable@UWeaponParticle_t@@@@QAE@PBDUWeaponParticle_t@@PAU01@@Z 100c6200 f i Weapon.obj
 0001:000c5280       ??0hashnode_s@?$idHashTable@UWeaponLight_t@@@@QAE@PBDUWeaponLight_t@@PAU01@@Z 100c6280 f i Weapon.obj
 0001:000c5300       ?CacheWeapon@idWeapon@@SAXPBD@Z 100c6300 f   Weapon.obj
 0001:000c5420       ?UpdateFlashPosition@idWeapon@@AAEXXZ 100c6420 f   Weapon.obj
 0001:000c55a0       ?MuzzleFlashLight@idWeapon@@AAEXXZ 100c65a0 f   Weapon.obj
 0001:000c56b0       ?OwnerDied@idWeapon@@QAEXXZ 100c66b0 f   Weapon.obj
 0001:000c5750       ?WeaponStolen@idWeapon@@QAEXXZ 100c6750 f   Weapon.obj
 0001:000c57f0       ?PresentWeapon@idWeapon@@QAEX_N@Z 100c67f0 f   Weapon.obj
 0001:000c60e0       ?GetAmmoNameForNum@idWeapon@@SAPBDH@Z 100c70e0 f   Weapon.obj
 0001:000c62a0       ?GetAmmoPickupNameForNum@idWeapon@@SAPBDH@Z 100c72a0 f   Weapon.obj
 0001:000c6350       ?Event_Flashlight@idWeapon@@AAEXH@Z 100c7350 f   Weapon.obj
 0001:000c6380       ?Event_LaunchProjectiles@idWeapon@@AAEXHMMMM@Z 100c7380 f   Weapon.obj
 0001:000c7240       ?Event_LaunchProjectilesEllipse@idWeapon@@AAEXHMMMM@Z 100c8240 f   Weapon.obj
 0001:000c7ca0       ?Event_LaunchPowerup@idWeapon@@AAEXPBDMH@Z 100c8ca0 f   Weapon.obj
 0001:000c7e10       ?Event_EjectBrass@idWeapon@@AAEXXZ 100c8e10 f   Weapon.obj
 0001:000c80b0       ?Restore@idWeapon@@QAEXPAVidRestoreGame@@@Z 100c90b0 f   Weapon.obj
 0001:000c8d50       ?Event_StartWeaponParticle@idWeapon@@AAEXPBD@Z 100c9d50 f   Weapon.obj
 0001:000c8e10       ?Event_StopWeaponParticle@idWeapon@@AAEXPBD@Z 100c9e10 f   Weapon.obj
 0001:000c8ed0       ?Event_StartWeaponLight@idWeapon@@AAEXPBD@Z 100c9ed0 f   Weapon.obj
 0001:000c8f60       ?Event_StopWeaponLight@idWeapon@@AAEXPBD@Z 100c9f60 f   Weapon.obj
 0001:000c9010       ?Clear@idWeapon@@QAEXXZ    100ca010 f   Weapon.obj
 0001:000c9810       ?GetWeaponDef@idWeapon@@QAEXPBDH@Z 100ca810 f   Weapon.obj
 0001:000cb420       ?Event_Clear@idWeapon@@AAEXXZ 100cc420 f   Weapon.obj
 0001:000cb430       ??1?$idHashTable@UWeaponParticle_t@@@@QAE@XZ 100cc430 f i Weapon.obj
 0001:000cb4a0       ??1?$idHashTable@UWeaponLight_t@@@@QAE@XZ 100cc4a0 f i Weapon.obj
 0001:000cb510       ??0idWeapon@@QAE@XZ        100cc510 f   Weapon.obj
 0001:000cb980       ??1idWeapon@@UAE@XZ        100cc980 f   Weapon.obj
 0001:000cbba0       ?CreateInstance@idWeapon@@SAPAVidClass@@XZ 100ccba0 f   Weapon.obj
 0001:000cbc40       ??_GidWeapon@@UAEPAXI@Z    100ccc40 f i Weapon.obj
 0001:000cbc40       ??_EidWeapon@@UAEPAXI@Z    100ccc40 f i Weapon.obj
 0001:000cbc60       ?GetType@idWorldspawn@@UBEPAVidTypeInfo@@XZ 100ccc60 f   WorldSpawn.obj
 0001:000cbc70       ?Event_Remove@idWorldspawn@@AAEXXZ 100ccc70 f   WorldSpawn.obj
 0001:000cbc90       ?CreateInstance@idWorldspawn@@SAPAVidClass@@XZ 100ccc90 f   WorldSpawn.obj
 0001:000cbd40       ??_EidWorldspawn@@UAEPAXI@Z 100ccd40 f i WorldSpawn.obj
 0001:000cbd40       ??_GidWorldspawn@@UAEPAXI@Z 100ccd40 f i WorldSpawn.obj
 0001:000cbd80       ?Spawn@idWorldspawn@@QAEXXZ 100ccd80 f   WorldSpawn.obj
 0001:000cbfa0       ?Restore@idWorldspawn@@QAEXPAVidRestoreGame@@@Z 100ccfa0 f   WorldSpawn.obj
 0001:000cc040       ??1idAAS@@UAE@XZ           100cd040 f   AAS.obj
 0001:000cc050       ?Shutdown@idAASLocal@@UAEXXZ 100cd050 f   AAS.obj
 0001:000cc090       ?PointAreaNum@idAASLocal@@UBEHABVidVec3@@@Z 100cd090 f   AAS.obj
 0001:000cc0b0       ?PointReachableAreaNum@idAASLocal@@UBEHABVidVec3@@ABVidBounds@@H@Z 100cd0b0 f   AAS.obj
 0001:000cc0e0       ?BoundsReachableAreaNum@idAASLocal@@UBEHABVidBounds@@H@Z 100cd0e0 f   AAS.obj
 0001:000cc110       ?PushPointIntoAreaNum@idAASLocal@@UBEXHAAVidVec3@@@Z 100cd110 f   AAS.obj
 0001:000cc130       ?Trace@idAASLocal@@UBE_NAAUaasTrace_s@@ABVidVec3@@1@Z 100cd130 f   AAS.obj
 0001:000cc160       ?Init@idAASLocal@@UAE_NABVidStr@@I@Z 100cd160 f   AAS.obj
 0001:000cc210       ?Stats@idAASLocal@@UBEXXZ  100cd210 f   AAS.obj
 0001:000cc250       ?GetSettings@idAASLocal@@UBEPBVidAASSettings@@XZ 100cd250 f   AAS.obj
 0001:000cc260       ??1idAASLocal@@UAE@XZ      100cd260 f   AAS.obj
 0001:000cc300       ?AreaCenter@idAASLocal@@UBE?AVidVec3@@H@Z 100cd300 f   AAS.obj
 0001:000cc350       ?AreaFlags@idAASLocal@@UBEHH@Z 100cd350 f   AAS.obj
 0001:000cc370       ?AreaTravelFlags@idAASLocal@@UBEHH@Z 100cd370 f   AAS.obj
 0001:000cc390       ?GetPlane@idAASLocal@@UBEABVidPlane@@H@Z 100cd390 f   AAS.obj
 0001:000cc3c0       ?GetEdgeVertexNumbers@idAASLocal@@UBEXHQAH@Z 100cd3c0 f   AAS.obj
 0001:000cc410       ?GetEdge@idAASLocal@@UBEXHAAVidVec3@@0@Z 100cd410 f   AAS.obj
 0001:000cc4a0       ?Alloc@idAAS@@SAPAV1@XZ    100cd4a0 f   AAS.obj
 0001:000cc520       ??_GidAASLocal@@UAEPAXI@Z  100cd520 f i AAS.obj
 0001:000cc520       ??_EidAASLocal@@UAEPAXI@Z  100cd520 f i AAS.obj
 0001:000cc540       ?DrawCone@idAASLocal@@ABEXABVidVec3@@0MABVidVec4@@@Z 100cd540 f   AAS_debug.obj
 0001:000cc910       ?DrawReachability@idAASLocal@@ABEXPBVidReachability@@@Z 100cd910 f   AAS_debug.obj
 0001:000cc9f0       ?ShowFlyPath@idAASLocal@@UBEXABVidVec3@@H0@Z 100cd9f0 f   AAS_debug.obj
 0001:000ccb40       ?ShowWallEdges@idAASLocal@@ABEXABVidVec3@@@Z 100cdb40 f   AAS_debug.obj
 0001:000ccd40       ?PullPlayer@idAASLocal@@ABE_NABVidVec3@@H@Z 100cdd40 f   AAS_debug.obj
 0001:000cd1c0       ?ShowPushIntoArea@idAASLocal@@ABEXABVidVec3@@@Z 100ce1c0 f   AAS_debug.obj
 0001:000cd230       ?DrawEdge@idAASLocal@@ABEXH_N@Z 100ce230 f   AAS_debug.obj
 0001:000cd3a0       ?DrawFace@idAASLocal@@ABEXH_N@Z 100ce3a0 f   AAS_debug.obj
 0001:000cd610       ?DrawArea@idAASLocal@@ABEXH@Z 100ce610 f   AAS_debug.obj
 0001:000cd690       ?ShowArea@idAASLocal@@ABEXABVidVec3@@@Z 100ce690 f   AAS_debug.obj
 0001:000cd8d0       ?ShowWalkPath@idAASLocal@@UBEXABVidVec3@@H0@Z 100ce8d0 f   AAS_debug.obj
 0001:000cda20       ?ShowHideArea@idAASLocal@@ABEXABVidVec3@@H@Z 100cea20 f   AAS_debug.obj
 0001:000cdc00       ?RandomPullPlayer@idAASLocal@@ABEXABVidVec3@@@Z 100cec00 f   AAS_debug.obj
 0001:000cdce0       ?Test@idAASLocal@@UAEXABVidVec3@@@Z 100cece0 f   AAS_debug.obj
 0001:000cde20       ?SortWallEdges@idAASLocal@@UBEXPAHH@Z 100cee20 f   AAS_pathing.obj
 0001:000cdfd0       ?FlyPathValid@idAASLocal@@UBE_NHABVidVec3@@H0HAAV2@AAH@Z 100cefd0 f   AAS_pathing.obj
 0001:000ce070       ?FlyPathToGoal@idAASLocal@@UBE_NAAUaasPath_s@@HABVidVec3@@H1H@Z 100cf070 f   AAS_pathing.obj
 0001:000ce310       ?EdgeSplitPoint@idAASLocal@@ABE_NAAVidVec3@@HABVidPlane@@@Z 100cf310 f   AAS_pathing.obj
 0001:000ce470       ?FloorEdgeSplitPoint@idAASLocal@@ABE_NAAVidVec3@@HABVidPlane@@1_N@Z 100cf470 f   AAS_pathing.obj
 0001:000ce610       ?WalkPathValid@idAASLocal@@UBE_NHABVidVec3@@H0HAAV2@AAH@Z 100cf610 f   AAS_pathing.obj
 0001:000cf100       ?SubSampleWalkPath@idAASLocal@@ABE?AVidVec3@@HABV2@00HAAH@Z 100d0100 f   AAS_pathing.obj
 0001:000cf330       ?WalkPathToGoal@idAASLocal@@UBE_NAAUaasPath_s@@HABVidVec3@@H1H@Z 100d0330 f   AAS_pathing.obj
 0001:000cf660       ?GetWallEdges@idAASLocal@@UBEHHABVidBounds@@HPAHH@Z 100d0660 f   AAS_pathing.obj
 0001:000cf950       ??0idRoutingCache@@QAE@H@Z 100d0950 f   AAS_routing.obj
 0001:000cf9c0       ?RoutingStats@idAASLocal@@ABEXXZ 100d09c0 f   AAS_routing.obj
 0001:000cfaa0       ?TravelTimeToGoalArea@idAASLocal@@UBEHHABVidVec3@@HH@Z 100d0aa0 f   AAS_routing.obj
 0001:000cfb00       ?LinkCache@idAASLocal@@ABEXPAVidRoutingCache@@@Z 100d0b00 f   AAS_routing.obj
 0001:000cfb90       ?AreaTravelTime@idAASLocal@@ABEGHABVidVec3@@0@Z 100d0b90 f   AAS_routing.obj
 0001:000cfcb0       ?CalculateAreaTravelTimes@idAASLocal@@AAEXXZ 100d0cb0 f   AAS_routing.obj
 0001:000cfe70       ?SetupRoutingCache@idAASLocal@@AAEXXZ 100d0e70 f   AAS_routing.obj
 0001:000cff80       ?DeleteClusterCache@idAASLocal@@AAEXH@Z 100d0f80 f   AAS_routing.obj
 0001:000d0060       ?DeletePortalCache@idAASLocal@@AAEXXZ 100d1060 f   AAS_routing.obj
 0001:000d0110       ?ShutdownRoutingCache@idAASLocal@@AAEXXZ 100d1110 f   AAS_routing.obj
 0001:000d01a0       ?SetupRouting@idAASLocal@@AAE_NXZ 100d11a0 f   AAS_routing.obj
 0001:000d01c0       ?ShutdownRouting@idAASLocal@@AAEXXZ 100d11c0 f   AAS_routing.obj
 0001:000d01e0       ?RemoveRoutingCacheUsingArea@idAASLocal@@AAEXH@Z 100d11e0 f   AAS_routing.obj
 0001:000d0250       ?SetAreaState_r@idAASLocal@@AAE_NHABVidBounds@@H_N@Z 100d1250 f   AAS_routing.obj
 0001:000d0350       ?SetAreaState@idAASLocal@@UAE_NABVidBounds@@H_N@Z 100d1350 f   AAS_routing.obj
 0001:000d0400       ?GetBoundsAreas_r@idAASLocal@@ABEXHABVidBounds@@AAV?$idList@H@@@Z 100d1400 f   AAS_routing.obj
 0001:000d05a0       ?SetObstacleState@idAASLocal@@AAEXPBVidRoutingObstacle@@_N@Z 100d15a0 f   AAS_routing.obj
 0001:000d0720       ?AddObstacle@idAASLocal@@UAEHABVidBounds@@@Z 100d1720 f   AAS_routing.obj
 0001:000d0950       ?GetAreaReachability@idAASLocal@@ABEPAVidReachability@@HH@Z 100d1950 f   AAS_routing.obj
 0001:000d0980       ?UpdateAreaRoutingCache@idAASLocal@@ABEXPAVidRoutingCache@@@Z 100d1980 f   AAS_routing.obj
 0001:000d0c10       ?GetAreaRoutingCache@idAASLocal@@ABEPAVidRoutingCache@@HHH@Z 100d1c10 f   AAS_routing.obj
 0001:000d0d60       ?UpdatePortalRoutingCache@idAASLocal@@ABEXPAVidRoutingCache@@@Z 100d1d60 f   AAS_routing.obj
 0001:000d0f70       ?GetPortalRoutingCache@idAASLocal@@ABEPAVidRoutingCache@@HHH@Z 100d1f70 f   AAS_routing.obj
 0001:000d1060       ?FindNearestGoal@idAASLocal@@UBE_NAAUaasGoal_s@@HVidVec3@@ABV3@HPAUaasObstacle_s@@HAAVidAASCallback@@@Z 100d2060 f   AAS_routing.obj
 0001:000d1b80       ?RemoveAllObstacles@idAASLocal@@UAEXXZ 100d2b80 f   AAS_routing.obj
 0001:000d1c00       ?DeleteOldestCache@idAASLocal@@ABEXXZ 100d2c00 f   AAS_routing.obj
 0001:000d1d00       ?RouteToGoalArea@idAASLocal@@UBE_NHVidVec3@@HHAAHPAPAVidReachability@@@Z 100d2d00 f   AAS_routing.obj
 0001:000d2130       ?RemoveObstacle@idAASLocal@@UAEXH@Z 100d3130 f   AAS_routing.obj
 0001:000d21c0       ??1idAASFindAreaOutOfRange@@UAE@XZ 100d31c0 f i AI.obj
 0001:000d21c0       ??1idAASCallback@@UAE@XZ   100d31c0 f i AI.obj
 0001:000d21d0       ??_GidAASCallback@@UAEPAXI@Z 100d31d0 f i AI.obj
 0001:000d21d0       ??_GidAASFindAreaOutOfRange@@UAEPAXI@Z 100d31d0 f i AI.obj
 0001:000d21d0       ??_EidAASFindAreaOutOfRange@@UAEPAXI@Z 100d31d0 f i AI.obj
 0001:000d21d0       ??_EidAASCallback@@UAEPAXI@Z 100d31d0 f i AI.obj
 0001:000d21f0       ??1idAASFindCover@@UAE@XZ  100d31f0 f   AI.obj
 0001:000d2250       ??1idAASFindAttackPosition@@UAE@XZ 100d3250 f   AI.obj
 0001:000d22b0       ?DrawRoute@idAI@@IBEXXZ    100d32b0 f   AI.obj
 0001:000d2330       ?PathToGoal@idAI@@IBE_NAAUaasPath_s@@HABVidVec3@@H1@Z 100d3330 f   AI.obj
 0001:000d2430       ?MoveDone@idAI@@IBE_NXZ    100d3430 f   AI.obj
 0001:000d2440       ?FacingIdeal@idAI@@IAE_NXZ 100d3440 f   AI.obj
 0001:000d2540       ?TurnToward@idAI@@IAE_NM@Z 100d3540 f   AI.obj
 0001:000d25f0       ?ApplyImpulse@idAI@@MAEXPAVidEntity@@HABVidVec3@@1@Z 100d35f0 f   AI.obj
 0001:000d2610       ?GetMoveDelta@idAI@@IAEXABVidMat3@@0AAVidVec3@@@Z 100d3610 f   AI.obj
 0001:000d2860       ?Seek@@YA?AVidVec3@@AAV1@ABV1@1M@Z 100d3860 f   AI.obj
 0001:000d2920       ?FlySeekGoal@idAI@@IAEXAAVidVec3@@0@Z 100d3920 f   AI.obj
 0001:000d29c0       ?AdjustFlySpeed@idAI@@IAEXAAVidVec3@@@Z 100d39c0 f   AI.obj
 0001:000d2ba0       ?ReactionTo@idAI@@IAEHPBVidEntity@@@Z 100d3ba0 f   AI.obj
 0001:000d2c40       ?BeginAttack@idAI@@IAEXPBD@Z 100d3c40 f   AI.obj
 0001:000d2c70       ?EndAttack@idAI@@IAEXXZ    100d3c70 f   AI.obj
 0001:000d2c90       ?UpdateMuzzleFlash@idAI@@IAEXXZ 100d3c90 f   AI.obj
 0001:000d2ea0       ?GetType@idCombatNode@@UBEPAVidTypeInfo@@XZ 100d3ea0 f   AI.obj
 0001:000d2eb0       ??0idCombatNode@@QAE@XZ    100d3eb0 f   AI.obj
 0001:000d2f20       ?Save@idCombatNode@@QBEXPAVidSaveGame@@@Z 100d3f20 f   AI.obj
 0001:000d2fc0       ?Restore@idCombatNode@@QAEXPAVidRestoreGame@@@Z 100d3fc0 f   AI.obj
 0001:000d3050       ?IsDisabled@idCombatNode@@QBE_NXZ 100d4050 f   AI.obj
 0001:000d3060       ?Event_Activate@idCombatNode@@AAEXPAVidEntity@@@Z 100d4060 f   AI.obj
 0001:000d3080       ??0idMoveState@@QAE@XZ     100d4080 f   AI.obj
 0001:000d30f0       ?Save@idMoveState@@QBEXPAVidSaveGame@@@Z 100d40f0 f   AI.obj
 0001:000d31e0       ?Restore@idMoveState@@QAEXPAVidRestoreGame@@@Z 100d41e0 f   AI.obj
 0001:000d32c0       ??0idAASFindCover@@QAE@ABVidVec3@@@Z 100d42c0 f   AI.obj
 0001:000d33b0       ??_EidAASFindCover@@UAEPAXI@Z 100d43b0 f i AI.obj
 0001:000d33b0       ??_GidAASFindCover@@UAEPAXI@Z 100d43b0 f i AI.obj
 0001:000d3420       ?TestArea@idAASFindCover@@UAE_NPBVidAAS@@H@Z 100d4420 f   AI.obj
 0001:000d3510       ??0idAASFindAttackPosition@@QAE@PBVidAI@@ABVidMat3@@PAVidEntity@@ABVidVec3@@3@Z 100d4510 f   AI.obj
 0001:000d36e0       ??_EidAASFindAttackPosition@@UAEPAXI@Z 100d46e0 f i AI.obj
 0001:000d36e0       ??_GidAASFindAttackPosition@@UAEPAXI@Z 100d46e0 f i AI.obj
 0001:000d3750       ?Gib@idAI@@UAEXABVidVec3@@PBD@Z 100d4750 f   AI.obj
 0001:000d37b0       ?InitMuzzleFlash@idAI@@IAEXXZ 100d47b0 f   AI.obj
 0001:000d38f0       ?List_f@idAI@@SAXABVidCmdArgs@@@Z 100d48f0 f   AI.obj
 0001:000d39c0       ?DormantBegin@idAI@@MAEXXZ 100d49c0 f   AI.obj
 0001:000d3a30       ?LinkScriptVariables@idAI@@IAEXXZ 100d4a30 f   AI.obj
 0001:000d3e50       ?UpdateAIScript@idAI@@IAEXXZ 100d4e50 f   AI.obj
 0001:000d3e90       ?KickObstacles@idAI@@IAEXABVidVec3@@MPAVidEntity@@@Z 100d4e90 f   AI.obj
 0001:000d4530       ?ValidForBounds@@YA_NPBVidAASSettings@@ABVidBounds@@@Z 100d5530 f   AI.obj
 0001:000d4570       ?ReachedPos@idAI@@IBE_NABVidVec3@@W4moveCommand_t@@@Z 100d5570 f   AI.obj
 0001:000d4780       ?PointReachableAreaNum@idAI@@IBEHABVidVec3@@M@Z 100d5780 f   AI.obj
 0001:000d4860       ?TravelDistance@idAI@@IBEMABVidVec3@@0@Z 100d5860 f   AI.obj
 0001:000d4c00       ?StopMove@idAI@@IAEXW4moveStatus_t@@@Z 100d5c00 f   AI.obj
 0001:000d4cf0       ?DirectMoveToPosition@idAI@@IAE_NABVidVec3@@@Z 100d5cf0 f   AI.obj
 0001:000d4ee0       ?MoveToEnemyHeight@idAI@@IAE_NXZ 100d5ee0 f   AI.obj
 0001:000d4fd0       ?MoveToAttackPosition@idAI@@IAE_NPAVidEntity@@H@Z 100d5fd0 f   AI.obj
 0001:000d52c0       ?MoveToCover@idAI@@IAE_NPAVidEntity@@ABVidVec3@@@Z 100d62c0 f   AI.obj
 0001:000d5520       ?SlideToPosition@idAI@@IAE_NABVidVec3@@M@Z 100d6520 f   AI.obj
 0001:000d5700       ?StepDirection@idAI@@IAE_NM@Z 100d6700 f   AI.obj
 0001:000d5aa0       ?NewWanderDir@idAI@@IAE_NABVidVec3@@@Z 100d6aa0 f   AI.obj
 0001:000d5f70       ?BlockedFailSafe@idAI@@IAEXXZ 100d6f70 f   AI.obj
 0001:000d60f0       ?Turn@idAI@@IAEXXZ         100d70f0 f   AI.obj
 0001:000d6800       ?TurnToward@idAI@@IAE_NABVidVec3@@@Z 100d7800 f   AI.obj
 0001:000d69b0       ?CheckObstacleAvoidance@idAI@@IAEXABVidVec3@@AAV2@@Z 100d79b0 f   AI.obj
 0001:000d6f40       ?DeadMove@idAI@@IAEXXZ     100d7f40 f   AI.obj
 0001:000d6fc0       ?AdjustFlyingAngles@idAI@@IAEXXZ 100d7fc0 f   AI.obj
 0001:000d72c0       ?AddFlyBob@idAI@@IAEXAAVidVec3@@@Z 100d82c0 f   AI.obj
 0001:000d7690       ?FlyTurn@idAI@@IAEXXZ      100d8690 f   AI.obj
 0001:000d7780       ?SpawnParticlesOnJoint@idAI@@IAEPBVidDeclParticle@@AAUparticleEmitter_s@@PBD1@Z 100d8780 f   AI.obj
 0001:000d7980       ?PlayCinematic@idAI@@IAEXXZ 100d8980 f   AI.obj
 0001:000d7c40       ?TalkTo@idAI@@QAEXPAVidActor@@@Z 100d8c40 f   AI.obj
 0001:000d7cc0       ?GetEnemy@idAI@@QBEPAVidActor@@XZ 100d8cc0 f   AI.obj
 0001:000d7cf0       ?GetTalkState@idAI@@QBE?AW4talkState_t@@XZ 100d8cf0 f   AI.obj
 0001:000d7d30       ?SetEnemyPosition@idAI@@IAEXXZ 100d8d30 f   AI.obj
 0001:000d8090       ?UpdateEnemyPosition@idAI@@IAEXXZ 100d9090 f   AI.obj
 0001:000d8320       ?CreateProjectileClipModel@idAI@@IBEXXZ 100d9320 f   AI.obj
 0001:000d8430       ?GetAimDir@idAI@@QBE_NABVidVec3@@PAVidEntity@@PBV3@AAV2@@Z 100d9430 f   AI.obj
 0001:000d8850       ?CreateProjectile@idAI@@IAEPAVidProjectile@@ABVidVec3@@0@Z 100d9850 f   AI.obj
 0001:000d8990       ?RemoveProjectile@idAI@@IAEXXZ 100d9990 f   AI.obj
 0001:000d89e0       ?DamageFeedback@idAI@@MAEXPAVidEntity@@0AAH@Z 100d99e0 f   AI.obj
 0001:000d8a60       ?DirectDamage@idAI@@IAEXPBDPAVidEntity@@@Z 100d9a60 f   AI.obj
 0001:000d8d40       ?PushWithAF@idAI@@IAEXXZ   100d9d40 f   AI.obj
 0001:000d8f90       ?GetMuzzle@idAI@@IAEXPBDAAVidVec3@@AAVidMat3@@@Z 100d9f90 f   AI.obj
 0001:000d9160       ?TriggerWeaponEffects@idAI@@IAEXABVidVec3@@@Z 100da160 f   AI.obj
 0001:000d92b0       ?SetChatSound@idAI@@IAEXXZ 100da2b0 f   AI.obj
 0001:000d9510       ?CanPlayChatterSounds@idAI@@MBE_NXZ 100da510 f   AI.obj
 0001:000d95a0       ?PlayChatter@idAI@@IAEXXZ  100da5a0 f   AI.obj
 0001:000d9640       ?UpdateParticles@idAI@@IAEXXZ 100da640 f   AI.obj
 0001:000d9d00       ?TriggerParticles@idAI@@IAEXPBD@Z 100dad00 f   AI.obj
 0001:000d9d60       ?TriggerFX@idAI@@IAEXPBD0@Z 100dad60 f   AI.obj
 0001:000d9e10       ?UpdateAnimationControllers@idAI@@MAE_NXZ 100dae10 f   AI.obj
 0001:000db500       ?CreateInstance@idCombatNode@@SAPAVidClass@@XZ 100dc500 f   AI.obj
 0001:000db5a0       ?Spawn@idCombatNode@@QAEXXZ 100dc5a0 f   AI.obj
 0001:000db7c0       ?EntityInView@idCombatNode@@QAE_NPAVidActor@@ABVidVec3@@@Z 100dc7c0 f   AI.obj
 0001:000db980       ?Event_MarkUsed@idCombatNode@@AAEXXZ 100dc980 f   AI.obj
 0001:000db9c0       ??0hashnode_s@?$idHashTable@UfuncEmitter_s@@@@QAE@PBDUfuncEmitter_s@@PAU01@@Z 100dc9c0 f i AI.obj
 0001:000dba40       ?TestArea@idAASFindAttackPosition@@UAE_NPBVidAAS@@H@Z 100dca40 f   AI.obj
 0001:000dbd90       ?Save@idAI@@QBEXPAVidSaveGame@@@Z 100dcd90 f   AI.obj
 0001:000dc500       ?DormantEnd@idAI@@MAEXXZ   100dd500 f   AI.obj
 0001:000dc5c0       ?SetAAS@idAI@@IAEXXZ       100dd5c0 f   AI.obj
 0001:000dc720       ?FaceEnemy@idAI@@IAE_NXZ   100dd720 f   AI.obj
 0001:000dc810       ?FaceEntity@idAI@@IAE_NPAVidEntity@@@Z 100dd810 f   AI.obj
 0001:000dc910       ?MoveToEnemy@idAI@@IAE_NXZ 100dd910 f   AI.obj
 0001:000dcb80       ?MoveToEntity@idAI@@IAE_NPAVidEntity@@@Z 100ddb80 f   AI.obj
 0001:000dce70       ?MoveOutOfRange@idAI@@IAE_NPAVidEntity@@M@Z 100dde70 f   AI.obj
 0001:000dd130       ?MoveToPosition@idAI@@IAE_NABVidVec3@@@Z 100de130 f   AI.obj
 0001:000dd2f0       ?WanderAround@idAI@@IAE_NXZ 100de2f0 f   AI.obj
 0001:000dd470       ?GetMovePos@idAI@@IAE_NAAVidVec3@@@Z 100de470 f   AI.obj
 0001:000dd8d0       ?EntityCanSeePos@idAI@@IAE_NPAVidActor@@ABVidVec3@@1@Z 100de8d0 f   AI.obj
 0001:000ddad0       ?AdjustFlyHeight@idAI@@IAEXAAVidVec3@@ABV2@@Z 100dead0 f   AI.obj
 0001:000ddd10       ?SpawnParticles@idAI@@IAEXPBD@Z 100ded10 f   AI.obj
 0001:000de180       ?ClearEnemy@idAI@@IAEXXZ   100df180 f   AI.obj
 0001:000de200       ?EnemyPositionValid@idAI@@IBE_NXZ 100df200 f   AI.obj
 0001:000de2d0       ?LaunchProjectile@idAI@@IAEPAVidProjectile@@PBDPAVidEntity@@_N@Z 100df2d0 f   AI.obj
 0001:000df000       ?TestMelee@idAI@@IBE_NXZ   100e0000 f   AI.obj
 0001:000df2e0       ?AttackMelee@idAI@@IAE_NPBD@Z 100e02e0 f   AI.obj
 0001:000df690       ?Hide@idAI@@MAEXXZ         100e0690 f   AI.obj
 0001:000df710       ?Show@idAI@@MAEXXZ         100e0710 f   AI.obj
 0001:000df7f0       ?DrawDebugInfo@idCombatNode@@SAXXZ 100e07f0 f   AI.obj
 0001:000dfe30       ?TestArea@idAASFindAreaOutOfRange@@UAE_NPBVidAAS@@H@Z 100e0e30 f   AI.obj
 0001:000dff10       ?AnimMove@idAI@@IAEXXZ     100e0f10 f   AI.obj
 0001:000e06a0       ?SlideMove@idAI@@IAEXXZ    100e16a0 f   AI.obj
 0001:000e0fe0       ?FlyMove@idAI@@IAEXXZ      100e1fe0 f   AI.obj
 0001:000e16a0       ?StaticMove@idAI@@IAEXXZ   100e26a0 f   AI.obj
 0001:000e1990       ?Killed@idAI@@MAEXPAVidEntity@@0HABVidVec3@@H@Z 100e2990 f   AI.obj
 0001:000e1fb0       ?SetEnemy@idAI@@IAEXPAVidActor@@@Z 100e2fb0 f   AI.obj
 0001:000e2140       ?CalculateAttackOffsets@idAI@@IAEXXZ 100e3140 f   AI.obj
 0001:000e2430       ?GetEmitter@idAI@@IAEPAVidEntity@@PBD@Z 100e3430 f   AI.obj
 0001:000e24b0       ?Restore@idAI@@QAEXPAVidRestoreGame@@@Z 100e34b0 f   AI.obj
 0001:000e3450       ?Spawn@idAI@@QAEXXZ        100e4450 f   AI.obj
 0001:000e4810       ?Think@idAI@@MAEXXZ        100e5810 f   AI.obj
 0001:000e4c20       ?Pain@idAI@@MAE_NPAVidEntity@@0HABVidVec3@@H@Z 100e5c20 f   AI.obj
 0001:000e4d60       ?Activate@idAI@@IAEXPAVidEntity@@@Z 100e5d60 f   AI.obj
 0001:000e4f20       ?TouchedByFlashlight@idAI@@QAEXPAVidActor@@@Z 100e5f20 f   AI.obj
 0001:000e4f40       ?StartEmitter@idAI@@IAEPAVidEntity@@PBD00@Z 100e5f40 f   AI.obj
 0001:000e5390       ?StopEmitter@idAI@@IAEXPBD@Z 100e6390 f   AI.obj
 0001:000e54c0       ??1?$idHashTable@UfuncEmitter_s@@@@QAE@XZ 100e64c0 f i AI.obj
 0001:000e5530       ??0idAI@@QAE@XZ            100e6530 f   AI.obj
 0001:000e5a30       ??1idAI@@UAE@XZ            100e6a30 f   AI.obj
 0001:000e5c50       ?GetType@idAI_Vagary@@UBEPAVidTypeInfo@@XZ 100e6c50 f   AI_Vagary.obj
 0001:000e5c60       ?CreateInstance@idAI_Vagary@@SAPAVidClass@@XZ 100e6c60 f   AI_Vagary.obj
 0001:000e5d10       ??_GidAI_Vagary@@UAEPAXI@Z 100e6d10 f i AI_Vagary.obj
 0001:000e5d10       ??_EidAI@@UAEPAXI@Z        100e6d10 f i AI.obj
 0001:000e5d10       ??_EidAI_Vagary@@UAEPAXI@Z 100e6d10 f i AI_Vagary.obj
 0001:000e5d10       ??_GidAI@@UAEPAXI@Z        100e6d10 f i AI.obj
 0001:000e5d30       ?Event_ChooseObjectToThrow@idAI_Vagary@@AAEXABVidVec3@@0MMM@Z 100e6d30 f   AI_Vagary.obj
 0001:000e6160       ?Event_ThrowObjectAtEnemy@idAI_Vagary@@AAEXPAVidEntity@@M@Z 100e7160 f   AI_Vagary.obj
 0001:000e6360       ?CreateInstance@idAI@@SAPAVidClass@@XZ 100e7360 f   AI_events.obj
 0001:000e6400       ?GetType@idAI@@UBEPAVidTypeInfo@@XZ 100e7400 f   AI_events.obj
 0001:000e6410       ?Event_Activate@idAI@@IAEXPAVidEntity@@@Z 100e7410 f   AI_events.obj
 0001:000e6420       ?Event_FindEnemy@idAI@@IAEXH@Z 100e7420 f   AI_events.obj
 0001:000e64c0       ?Event_ClearEnemy@idAI@@IAEXXZ 100e74c0 f   AI_events.obj
 0001:000e64d0       ?Event_FireMissileAtTarget@idAI@@IAEXPBD0@Z 100e74d0 f   AI_events.obj
 0001:000e6520       ?Event_AttackMelee@idAI@@IAEXPBD@Z 100e7520 f   AI_events.obj
 0001:000e6540       ?Event_DirectDamage@idAI@@IAEXPAVidEntity@@PBD@Z 100e7540 f   AI_events.obj
 0001:000e6560       ?Event_BeginAttack@idAI@@IAEXPBD@Z 100e7560 f   AI_events.obj
 0001:000e6570       ?Event_EndAttack@idAI@@IAEXXZ 100e7570 f   AI_events.obj
 0001:000e6580       ?Event_CanBecomeSolid@idAI@@IAEXXZ 100e7580 f   AI_events.obj
 0001:000e6870       ?Event_BecomeNonSolid@idAI@@IAEXXZ 100e7870 f   AI_events.obj
 0001:000e68b0       ?Event_BecomeRagdoll@idAI@@IAEXXZ 100e78b0 f   AI_events.obj
 0001:000e68c0       ?Event_StopRagdoll@idAI@@IAEXXZ 100e78c0 f   AI_events.obj
 0001:000e68e0       ?Event_GetHealth@idAI@@IAEXXZ 100e78e0 f   AI_events.obj
 0001:000e6900       ?Event_AllowDamage@idAI@@IAEXXZ 100e7900 f   AI_events.obj
 0001:000e6910       ?Event_IgnoreDamage@idAI@@IAEXXZ 100e7910 f   AI_events.obj
 0001:000e6920       ?Event_GetCurrentYaw@idAI@@IAEXXZ 100e7920 f   AI_events.obj
 0001:000e6940       ?Event_TurnTo@idAI@@IAEXM@Z 100e7940 f   AI_events.obj
 0001:000e6950       ?Event_TurnToPos@idAI@@IAEXABVidVec3@@@Z 100e7950 f   AI_events.obj
 0001:000e6960       ?Event_TurnToEntity@idAI@@IAEXPAVidEntity@@@Z 100e7960 f   AI_events.obj
 0001:000e6990       ?Event_MoveStatus@idAI@@IAEXXZ 100e7990 f   AI_events.obj
 0001:000e69a0       ?Event_StopMove@idAI@@IAEXXZ 100e79a0 f   AI_events.obj
 0001:000e69b0       ?Event_MoveToEnemyHeight@idAI@@IAEXXZ 100e79b0 f   AI_events.obj
 0001:000e69d0       ?Event_MoveOutOfRange@idAI@@IAEXPAVidEntity@@M@Z 100e79d0 f   AI_events.obj
 0001:000e6a00       ?Event_MoveToAttackPosition@idAI@@IAEXPAVidEntity@@PBD@Z 100e7a00 f   AI_events.obj
 0001:000e6a50       ?Event_MoveToEntity@idAI@@IAEXPAVidEntity@@@Z 100e7a50 f   AI_events.obj
 0001:000e6a70       ?Event_MoveToPosition@idAI@@IAEXABVidVec3@@@Z 100e7a70 f   AI_events.obj
 0001:000e6a90       ?Event_SlideTo@idAI@@IAEXABVidVec3@@M@Z 100e7a90 f   AI_events.obj
 0001:000e6ab0       ?Event_Wander@idAI@@IAEXXZ 100e7ab0 f   AI_events.obj
 0001:000e6ac0       ?Event_FacingIdeal@idAI@@IAEXXZ 100e7ac0 f   AI_events.obj
 0001:000e6ad0       ?Event_FaceEnemy@idAI@@IAEXXZ 100e7ad0 f   AI_events.obj
 0001:000e6ae0       ?Event_FaceEntity@idAI@@IAEXPAVidEntity@@@Z 100e7ae0 f   AI_events.obj
 0001:000e6af0       ?Event_WaitAction@idAI@@IAEXPBD@Z 100e7af0 f   AI_events.obj
 0001:000e6b30       ?Event_WaitMove@idAI@@IAEXXZ 100e7b30 f   AI_events.obj
 0001:000e6b60       ?Event_CanSeeEntity@idAI@@IAEXPAVidEntity@@@Z 100e7b60 f   AI_events.obj
 0001:000e6b90       ?Event_SetTalkState@idAI@@IAEXH@Z 100e7b90 f   AI_events.obj
 0001:000e6bc0       ?Event_GetEnemyPos@idAI@@IAEXXZ 100e7bc0 f   AI_events.obj
 0001:000e6bd0       ?Event_GetEnemyEyePos@idAI@@IAEXXZ 100e7bd0 f   AI_events.obj
 0001:000e6c10       ?Event_EnemyPositionValid@idAI@@IAEXXZ 100e7c10 f   AI_events.obj
 0001:000e6c20       ?Event_TestMeleeAttack@idAI@@IAEXXZ 100e7c20 f   AI_events.obj
 0001:000e6c30       ?Event_Shrivel@idAI@@IAEXM@Z 100e7c30 f   AI_events.obj
 0001:000e6d00       ?Event_PreBurn@idAI@@IAEXXZ 100e7d00 f   AI_events.obj
 0001:000e6d10       ?Event_Burn@idAI@@IAEXXZ   100e7d10 f   AI_events.obj
 0001:000e6d40       ?Event_StopThinking@idAI@@IAEXXZ 100e7d40 f   AI_events.obj
 0001:000e6d60       ?Event_GetTurnDelta@idAI@@IAEXXZ 100e7d60 f   AI_events.obj
 0001:000e6e40       ?Event_GetMoveType@idAI@@IAEXXZ 100e7e40 f   AI_events.obj
 0001:000e6e50       ?Event_SetMoveType@idAI@@IAEXH@Z 100e7e50 f   AI_events.obj
 0001:000e6ea0       ?Event_AllowMovement@idAI@@IAEXM@Z 100e7ea0 f   AI_events.obj
 0001:000e6ed0       ?Event_EnableClip@idAI@@IAEXXZ 100e7ed0 f   AI_events.obj
 0001:000e6f00       ?Event_DisableClip@idAI@@IAEXXZ 100e7f00 f   AI_events.obj
 0001:000e6f30       ?Event_EnableGravity@idAI@@IAEXXZ 100e7f30 f   AI_events.obj
 0001:000e6f40       ?Event_DisableGravity@idAI@@IAEXXZ 100e7f40 f   AI_events.obj
 0001:000e6f50       ?Event_EnableAFPush@idAI@@IAEXXZ 100e7f50 f   AI_events.obj
 0001:000e6f60       ?Event_DisableAFPush@idAI@@IAEXXZ 100e7f60 f   AI_events.obj
 0001:000e6f70       ?Event_SetFlySpeed@idAI@@IAEXM@Z 100e7f70 f   AI_events.obj
 0001:000e6fa0       ?Event_SetFlyOffset@idAI@@IAEXH@Z 100e7fa0 f   AI_events.obj
 0001:000e6fb0       ?Event_ClearFlyOffset@idAI@@IAEXXZ 100e7fb0 f   AI_events.obj
 0001:000e6fd0       ?Event_TravelDistanceToPoint@idAI@@IAEXABVidVec3@@@Z 100e7fd0 f   AI_events.obj
 0001:000e7010       ?Event_TravelDistanceToEntity@idAI@@IAEXPAVidEntity@@@Z 100e8010 f   AI_events.obj
 0001:000e7070       ?Event_TravelDistanceBetweenPoints@idAI@@IAEXABVidVec3@@0@Z 100e8070 f   AI_events.obj
 0001:000e70a0       ?Event_TravelDistanceBetweenEntities@idAI@@IAEXPAVidEntity@@0@Z 100e80a0 f   AI_events.obj
 0001:000e7100       ?Event_SetJointMod@idAI@@IAEXH@Z 100e8100 f   AI_events.obj
 0001:000e7120       ?Event_ThrowMoveable@idAI@@IAEXXZ 100e8120 f   AI_events.obj
 0001:000e71a0       ?Event_ThrowAF@idAI@@IAEXXZ 100e81a0 f   AI_events.obj
 0001:000e7220       ?Event_GetAngles@idAI@@IAEXXZ 100e8220 f   AI_events.obj
 0001:000e7250       ?Event_RealKill@idAI@@IAEXXZ 100e8250 f   AI_events.obj
 0001:000e72a0       ?Event_Kill@idAI@@IAEXXZ   100e82a0 f   AI_events.obj
 0001:000e72b0       ?Event_WakeOnFlashlight@idAI@@IAEXH@Z 100e82b0 f   AI_events.obj
 0001:000e72d0       ?Event_PushPointIntoAAS@idAI@@IAEXABVidVec3@@@Z 100e82d0 f   AI_events.obj
 0001:000e7340       ?Event_GetTurnRate@idAI@@IAEXXZ 100e8340 f   AI_events.obj
 0001:000e7360       ?Event_SetTurnRate@idAI@@IAEXM@Z 100e8360 f   AI_events.obj
 0001:000e7370       ?Event_AnimTurn@idAI@@IAEXM@Z 100e8370 f   AI_events.obj
 0001:000e7500       ?Event_AllowHiddenMovement@idAI@@IAEXH@Z 100e8500 f   AI_events.obj
 0001:000e7520       ?Event_TriggerParticles@idAI@@IAEXPBD@Z 100e8520 f   AI_events.obj
 0001:000e7530       ?Event_GetReachableEntityPosition@idAI@@IAEXPAVidEntity@@@Z 100e8530 f   AI_events.obj
 0001:000e7610       ?Event_MoveToPositionDirect@idAI@@IAEXABVidVec3@@@Z 100e8610 f   AI_events.obj
 0001:000e7630       ?Event_AvoidObstacles@idAI@@IAEXH@Z 100e8630 f   AI_events.obj
 0001:000e7650       ?Event_TriggerFX@idAI@@IAEXPBD0@Z 100e8650 f   AI_events.obj
 0001:000e7660       ?Event_StartEmitter@idAI@@IAEXPBD00@Z 100e8660 f   AI_events.obj
 0001:000e7680       ?Event_GetEmitter@idAI@@IAEXPBD@Z 100e8680 f   AI_events.obj
 0001:000e76a0       ?Event_StopEmitter@idAI@@IAEXPBD@Z 100e86a0 f   AI_events.obj
 0001:000e76b0       ?Event_SetHomingMissileGoal@idAI@@IAEXXZ 100e86b0 f   AI_events.obj
 0001:000e7700       ?Event_Touch@idAI@@IAEXPAVidEntity@@PAUtrace_s@@@Z 100e8700 f   AI_events.obj
 0001:000e7760       ?Event_FindEnemyAI@idAI@@IAEXH@Z 100e8760 f   AI_events.obj
 0001:000e7930       ?Event_FindEnemyInCombatNodes@idAI@@IAEXXZ 100e8930 f   AI_events.obj
 0001:000e7a80       ?Event_HeardSound@idAI@@IAEXH@Z 100e8a80 f   AI_events.obj
 0001:000e7b90       ?Event_SetEnemy@idAI@@IAEXPAVidEntity@@@Z 100e8b90 f   AI_events.obj
 0001:000e7bf0       ?Event_MuzzleFlash@idAI@@IAEXPBD@Z 100e8bf0 f   AI_events.obj
 0001:000e7c20       ?Event_CreateMissile@idAI@@IAEXPBD@Z 100e8c20 f   AI_events.obj
 0001:000e7dc0       ?Event_AttackMissile@idAI@@IAEXPBD@Z 100e8dc0 f   AI_events.obj
 0001:000e7e00       ?Event_RadiusDamageFromJoint@idAI@@IAEXPBD0@Z 100e8e00 f   AI_events.obj
 0001:000e7eb0       ?Event_BecomeSolid@idAI@@IAEXXZ 100e8eb0 f   AI_events.obj
 0001:000e7f90       ?Event_SetHealth@idAI@@IAEXM@Z 100e8f90 f   AI_events.obj
 0001:000e7fd0       ?Event_MoveToCover@idAI@@IAEXXZ 100e8fd0 f   AI_events.obj
 0001:000e8020       ?Event_MoveToEnemy@idAI@@IAEXXZ 100e9020 f   AI_events.obj
 0001:000e8060       ?Event_GetCombatNode@idAI@@IAEXXZ 100e9060 f   AI_events.obj
 0001:000e8400       ?Event_EnemyInCombatCone@idAI@@IAEXPAVidEntity@@H@Z 100e9400 f   AI_events.obj
 0001:000e8520       ?Event_GetJumpVelocity@idAI@@IAEXABVidVec3@@MM@Z 100e9520 f   AI_events.obj
 0001:000e87c0       ?Event_EntityInAttackCone@idAI@@IAEXPAVidEntity@@@Z 100e97c0 f   AI_events.obj
 0001:000e8a70       ?Event_SetTalkTarget@idAI@@IAEXPAVidEntity@@@Z 100e9a70 f   AI_events.obj
 0001:000e8b00       ?Event_GetTalkTarget@idAI@@IAEXXZ 100e9b00 f   AI_events.obj
 0001:000e8b40       ?Event_EnemyRange@idAI@@IAEXXZ 100e9b40 f   AI_events.obj
 0001:000e8c70       ?Event_EnemyRange2D@idAI@@IAEXXZ 100e9c70 f   AI_events.obj
 0001:000e8d90       ?Event_GetEnemy@idAI@@IAEXXZ 100e9d90 f   AI_events.obj
 0001:000e8dd0       ?Event_PredictEnemyPos@idAI@@IAEXM@Z 100e9dd0 f   AI_events.obj
 0001:000e8eb0       ?Event_ChargeAttack@idAI@@IAEXPBD@Z 100e9eb0 f   AI_events.obj
 0001:000e8fd0       ?Event_TestAnimMoveTowardEnemy@idAI@@IAEXPBD@Z 100e9fd0 f   AI_events.obj
 0001:000e9330       ?Event_TestAnimMove@idAI@@IAEXPBD@Z 100ea330 f   AI_events.obj
 0001:000e95f0       ?Event_TestMoveToPosition@idAI@@IAEXABVidVec3@@@Z 100ea5f0 f   AI_events.obj
 0001:000e9750       ?Event_TestAnimAttack@idAI@@IAEXPBD@Z 100ea750 f   AI_events.obj
 0001:000e9850       ?Event_ClearBurn@idAI@@IAEXXZ 100ea850 f   AI_events.obj
 0001:000e98a0       ?Event_SetSmokeVisibility@idAI@@IAEXHH@Z 100ea8a0 f   AI_events.obj
 0001:000e9940       ?Event_NumSmokeEmitters@idAI@@IAEXXZ 100ea940 f   AI_events.obj
 0001:000e9950       ??4idMoveState@@QAEAAV0@ABV0@@Z 100ea950 f i AI_events.obj
 0001:000e9a00       ?Event_RestoreMove@idAI@@IAEXXZ 100eaa00 f   AI_events.obj
 0001:000e9c30       ?Event_JumpFrame@idAI@@IAEXXZ 100eac30 f   AI_events.obj
 0001:000e9c50       ?Event_GetClosestHiddenTarget@idAI@@IAEXPBD@Z 100eac50 f   AI_events.obj
 0001:000e9e40       ?Event_GetRandomTarget@idAI@@IAEXPBD@Z 100eae40 f   AI_events.obj
 0001:000e9f10       ?Event_LookAtEntity@idAI@@IAEXPAVidEntity@@M@Z 100eaf10 f   AI_events.obj
 0001:000e9fe0       ?Event_LookAtEnemy@idAI@@IAEXM@Z 100eafe0 f   AI_events.obj
 0001:000ea0d0       ?Event_SetAngles@idAI@@IAEXABVidAngles@@@Z 100eb0d0 f   AI_events.obj
 0001:000ea160       ?Event_LocateEnemy@idAI@@IAEXXZ 100eb160 f   AI_events.obj
 0001:000ea1c0       ?Event_KickObstacles@idAI@@IAEXPAVidEntity@@M@Z 100eb1c0 f   AI_events.obj
 0001:000ea330       ?Event_GetObstacle@idAI@@IAEXXZ 100eb330 f   AI_events.obj
 0001:000ea370       ?Event_FindActorsInBounds@idAI@@IAEXABVidVec3@@0@Z 100eb370 f   AI_events.obj
 0001:000ea440       ?Event_CanReachPosition@idAI@@IAEXABVidVec3@@@Z 100eb440 f   AI_events.obj
 0001:000ea4f0       ?Event_CanReachEntity@idAI@@IAEXPAVidEntity@@@Z 100eb4f0 f   AI_events.obj
 0001:000ea610       ?Event_CanReachEnemy@idAI@@IAEXXZ 100eb610 f   AI_events.obj
 0001:000ea730       ?Event_ClosestReachableEnemyOfEntity@idAI@@IAEXPAVidEntity@@@Z 100eb730 f   AI_events.obj
 0001:000ea8e0       ?Event_LaunchProjectile@idAI@@IAEXPBD@Z 100eb8e0 f   AI_events.obj
 0001:000eabf0       ?Event_MeleeAttackToJoint@idAI@@IAEXPBD0@Z 100ebbf0 f   AI_events.obj
 0001:000eae80       ?Event_CanHitEnemy@idAI@@IAEXXZ 100ebe80 f   AI_events.obj
 0001:000eb110       ?Event_CanHitEnemyFromAnim@idAI@@IAEXPBD@Z 100ec110 f   AI_events.obj
 0001:000eb6f0       ?Event_CanHitEnemyFromJoint@idAI@@IAEXPBD@Z 100ec6f0 f   AI_events.obj
 0001:000ebbe0       ?Event_TestChargeAttack@idAI@@IAEXXZ 100ecbe0 f   AI_events.obj
 0001:000ebeb0       ?Event_SaveMove@idAI@@IAEXXZ 100eceb0 f   AI_events.obj
 0001:000ebed0       ?Event_LaunchHomingMissile@idAI@@IAEXXZ 100eced0 f   AI_events.obj
 0001:000ec390       ?Event_LaunchMissile@idAI@@IAEXABVidVec3@@ABVidAngles@@@Z 100ed390 f   AI_events.obj
 0001:000ec770       ?PointInsideObstacle@@YAHPBUobstacle_s@@HABVidVec2@@@Z 100ed770 f   AI_pathing.obj
 0001:000ec800       ?Shutdown@?$idBlockAlloc@UpathNode_s@@$0IA@@@QAEXXZ 100ed800 f i AI_pathing.obj
 0001:000ec850       ?Add@?$idQueueTemplate@UpathNode_s@@$0DA@@@QAEXPAUpathNode_s@@@Z 100ed850 f i AI_pathing.obj
 0001:000ec880       ??4idBox@@QAEAAV0@ABV0@@Z  100ed880 f i AI_pathing.obj
 0001:000ec8f0       ?Init@pathNode_s@@QAEXXZ   100ed8f0 f   AI_pathing.obj
 0001:000ec920       ?LineIntersectsPath@@YA_NABVidVec2@@0PBUpathNode_s@@@Z 100ed920 f   AI_pathing.obj
 0001:000eca40       ?GetPointOutsideObstacles@@YAXPBUobstacle_s@@HAAVidVec2@@PAH2@Z 100eda40 f   AI_pathing.obj
 0001:000ecfa0       ?GetFirstBlockingObstacle@@YA_NPBUobstacle_s@@HHABVidVec2@@1AAMAAH3@Z 100edfa0 f   AI_pathing.obj
 0001:000ed1c0       ?GetObstacles@@YAHPBVidPhysics@@PBVidAAS@@PBVidEntity@@HABVidVec3@@3PAUobstacle_s@@HAAVidBounds@@@Z 100ee1c0 f   AI_pathing.obj
 0001:000ee250       ?FreePathTree_r@@YAXPAUpathNode_s@@@Z 100ef250 f   AI_pathing.obj
 0001:000ee290       ?DrawPathTree@@YAXPBUpathNode_s@@M@Z 100ef290 f   AI_pathing.obj
 0001:000ee340       ?GetPathNodeDelta@@YA_NPAUpathNode_s@@PBUobstacle_s@@ABVidVec2@@_N@Z 100ef340 f   AI_pathing.obj
 0001:000ee5a0       ?PrunePathTree@@YAXPAUpathNode_s@@ABVidVec2@@@Z 100ef5a0 f   AI_pathing.obj
 0001:000ee6c0       ?OptimizePath@@YAHPBUpathNode_s@@0PBUobstacle_s@@HQAVidVec2@@@Z 100ef6c0 f   AI_pathing.obj
 0001:000ee9c0       ?PathLength@@YAMQAVidVec2@@HABV1@@Z 100ef9c0 f   AI_pathing.obj
 0001:000eecb0       ?FindOptimalPath@@YA_NPBUpathNode_s@@PBUobstacle_s@@HMABVidVec3@@AAV3@@Z 100efcb0 f   AI_pathing.obj
 0001:000eef30       ?FreeObstacleAvoidanceNodes@idAI@@SAXXZ 100eff30 f   AI_pathing.obj
 0001:000ef300       ?TestTrajectory@idAI@@SA_NABVidVec3@@0MMMMPBVidClipModel@@HPBVidEntity@@2H@Z 100f0300 f   AI_pathing.obj
 0001:000ef820       ?PredictTrajectory@idAI@@SA_NABVidVec3@@0M0PBVidClipModel@@HMPBVidEntity@@2HAAV2@@Z 100f0820 f   AI_pathing.obj
 0001:000f0140       ?PathTrace@@YA_NPBVidEntity@@PBVidAAS@@ABVidVec3@@2HAAUpathTrace_s@@AAUpredictedPath_s@@@Z 100f1140 f   AI_pathing.obj
 0001:000f04b0       ?PredictPath@idAI@@SA_NPBVidEntity@@PBVidAAS@@ABVidVec3@@2HHHAAUpredictedPath_s@@@Z 100f14b0 f   AI_pathing.obj
 0001:000f1090       ?Alloc@?$idBlockAlloc@UpathNode_s@@$0IA@@@QAEPAUpathNode_s@@XZ 100f2090 f i AI_pathing.obj
 0001:000f1100       ?BuildPathTree@@YAPAUpathNode_s@@PBUobstacle_s@@HABVidBounds@@ABVidVec2@@2AAUobstaclePath_s@@@Z 100f2100 f   AI_pathing.obj
 0001:000f1500       ?FindPathAroundObstacles@idAI@@SA_NPBVidPhysics@@PBVidAAS@@PBVidEntity@@ABVidVec3@@3AAUobstaclePath_s@@@Z 100f2500 f   AI_pathing.obj
 0001:000f1830       ?ModelDef@idAnimator@@QBEPBVidDeclModelDef@@XZ 100f2830 f   Anim_Blend.obj
 0001:000f1830       ?NumFrames@idMD5Anim@@QBEHXZ 100f2830 f   Anim.obj
 0001:000f1830       ?GetTypeDef@idScriptObject@@QBEPAVidTypeDef@@XZ 100f2830 f   Script_Program.obj
 0001:000f1830       ?Type@idTypeDef@@QBE?AW4etype_t@@XZ 100f2830 f   Script_Program.obj
 0001:000f1840       ?NumJoints@idMD5Anim@@QBEHXZ 100f2840 f   Anim.obj
 0001:000f1850       ?Name@idTypeDef@@QBEPBDXZ  100f2850 f   Script_Program.obj
 0001:000f1850       ?Length@idMD5Anim@@QBEHXZ  100f2850 f   Anim.obj
 0001:000f1860       ?TotalMovementDelta@idMD5Anim@@QBEABVidVec3@@XZ 100f2860 f   Anim.obj
 0001:000f1870       ?IncreaseRefs@idMD5Anim@@QBEXXZ 100f2870 f   Anim.obj
 0001:000f1880       ?DecreaseRefs@idMD5Anim@@QBEXXZ 100f2880 f   Anim.obj
 0001:000f1890       ?ConvertTimeToFrame@idMD5Anim@@QBEXHHAAUframeBlend_t@@@Z 100f2890 f   Anim.obj
 0001:000f1980       ?Free@idMD5Anim@@QAEXXZ    100f2980 f   Anim.obj
 0001:000f1a00       ?Name@idMD5Anim@@QBEPBDXZ  100f2a00 f   Anim.obj
 0001:000f1a10       ?GetOrigin@idMD5Anim@@QBEXAAVidVec3@@HH@Z 100f2a10 f   Anim.obj
 0001:000f1b30       ?GetOriginRotation@idMD5Anim@@QBEXAAVidQuat@@HH@Z 100f2b30 f   Anim.obj
 0001:000f2110       ?GetBounds@idMD5Anim@@QBEXAAVidBounds@@HH@Z 100f3110 f   Anim.obj
 0001:000f22d0       ?GetInterpolatedFrame@idMD5Anim@@QBEXAAUframeBlend_t@@PAVidJointQuat@@PBHH@Z 100f32d0 f   Anim.obj
 0001:000f2aa0       ?GetSingleFrame@idMD5Anim@@QBEXHPAVidJointQuat@@PBHH@Z 100f3aa0 f   Anim.obj
 0001:000f2bf0       ??0hashnode_s@?$idHashTable@PAVidMD5Anim@@@@QAE@PBDPAVidMD5Anim@@PAU01@@Z 100f3bf0 f i Anim.obj
 0001:000f2c70       ??0idMD5Anim@@QAE@XZ       100f3c70 f   Anim.obj
 0001:000f2d00       ??1idMD5Anim@@QAE@XZ       100f3d00 f   Anim.obj
 0001:000f2dd0       ?CheckModelHierarchy@idMD5Anim@@QBEXPBVidRenderModel@@@Z 100f3dd0 f   Anim.obj
 0001:000f2ee0       ?ListAnims@idAnimManager@@QBEXXZ 100f3ee0 f   Anim.obj
 0001:000f3030       ?JointIndex@idAnimManager@@QAEHPBD@Z 100f4030 f   Anim.obj
 0001:000f3440       ??1?$idHashTable@PAVidMD5Anim@@@@QAE@XZ 100f4440 f i Anim.obj
 0001:000f34b0       ?LoadAnim@idMD5Anim@@QAE_NPBD@Z 100f44b0 f   Anim.obj
 0001:000f4040       ??0idAnimManager@@QAE@XZ   100f5040 f   Anim.obj
 0001:000f40e0       ?Shutdown@idAnimManager@@QAEXXZ 100f50e0 f   Anim.obj
 0001:000f4190       ?GetAnim@idAnimManager@@QAEPAVidMD5Anim@@PBD@Z 100f5190 f   Anim.obj
 0001:000f4450       ?FlushUnusedAnims@idAnimManager@@QAEXXZ 100f5450 f   Anim.obj
 0001:000f4720       ?Reload@idMD5Anim@@QAE_NXZ 100f5720 f   Anim.obj
 0001:000f47d0       ??1idAnimManager@@QAE@XZ   100f57d0 f   Anim.obj
 0001:000f48b0       ?ReloadAnims@idAnimManager@@QAEXXZ 100f58b0 f   Anim.obj
 0001:000f4920       ?MD5Anim@idAnim@@QBEPBVidMD5Anim@@H@Z 100f5920 f   Anim_Blend.obj
 0001:000f4940       ?Save@idAnimBlend@@QBEXPAVidSaveGame@@@Z 100f5940 f   Anim_Blend.obj
 0001:000f4a10       ?GetWeight@idAnimBlend@@QBEMH@Z 100f5a10 f   Anim_Blend.obj
 0001:000f4a70       ?Clear@idAnimBlend@@QAEXHH@Z 100f5a70 f   Anim_Blend.obj
 0001:000f4af0       ?GetCycleCount@idAnimBlend@@QBEHXZ 100f5af0 f   Anim_Blend.obj
 0001:000f4b00       ?GetStartTime@idAnimBlend@@QBEHXZ 100f5b00 f   Anim_Blend.obj
 0001:000f4b10       ?GetEndTime@idAnimBlend@@QBEHXZ 100f5b10 f   Anim_Blend.obj
 0001:000f4b20       ?PlayLength@idAnimBlend@@QBEHXZ 100f5b20 f   Anim_Blend.obj
 0001:000f4b40       ?AnimNum@idAnimBlend@@QBEHXZ 100f5b40 f   Anim_Blend.obj
 0001:000f4b50       ?Size@idDeclModelDef@@UBEIXZ 100f5b50 f   Anim_Blend.obj
 0001:000f4b60       ?DefaultDefinition@idDeclModelDef@@UBEPBDXZ 100f5b60 f   Anim_Blend.obj
 0001:000f4b70       ?Touch@idDeclModelDef@@QBEXXZ 100f5b70 f   Anim_Blend.obj
 0001:000f4ba0       ?GetSkin@idDeclModelDef@@QBEPBVidDeclSkin@@XZ 100f5ba0 f   Anim_Blend.obj
 0001:000f4ba0       ?GetDefaultSkin@idDeclModelDef@@QBEPBVidDeclSkin@@XZ 100f5ba0 f   Anim_Blend.obj
 0001:000f4bb0       ?GetVisualOffset@idDeclModelDef@@QBEABVidVec3@@XZ 100f5bb0 f   Anim_Blend.obj
 0001:000f4bc0       ?RemoveOriginOffset@idAnimator@@QAEX_N@Z 100f5bc0 f   Anim_Blend.obj
 0001:000f4bd0       ?RemoveOrigin@idAnimator@@QBE_NXZ 100f5bd0 f   Anim_Blend.obj
 0001:000f4be0       ?NumJoints@idAnimator@@QBEHXZ 100f5be0 f   Anim_Blend.obj
 0001:000f4bf0       ?ModelHandle@idAnimator@@QBEPAVidRenderModel@@XZ 100f5bf0 f   Anim_Blend.obj
 0001:000f4c00       ?CurrentAnim@idAnimator@@QAEPAVidAnimBlend@@H@Z 100f5c00 f   Anim_Blend.obj
 0001:000f4c40       ?SetAFPoseBlendWeight@idAnimator@@QAEXM@Z 100f5c40 f   Anim_Blend.obj
 0001:000f4c50       ?ForceUpdate@idAnimator@@QAEXXZ 100f5c50 f   Anim_Blend.obj
 0001:000f4c70       ?ClearForceUpdate@idAnimator@@QAEXXZ 100f5c70 f   Anim_Blend.obj
 0001:000f4c80       ?GetJointHandle@idAnimator@@QBE?AW4jointHandle_t@@PBD@Z 100f5c80 f   Anim_Blend.obj
 0001:000f4cb0       ?GetJointName@idAnimator@@QBEPBDW4jointHandle_t@@@Z 100f5cb0 f   Anim_Blend.obj
 0001:000f4ce0       ?GetJoints@idAnimator@@QAEXPAHPAPAVidJointMat@@@Z 100f5ce0 f   Anim_Blend.obj
 0001:000f4d00       ?ANIM_GetModelFromEntityDef@idGameEdit@@UAEPAVidRenderModel@@PBD@Z 100f5d00 f   Anim_Blend.obj
 0001:000f4d30       ?ANIM_GetModelFromName@idGameEdit@@UAEPAVidRenderModel@@PBD@Z 100f5d30 f   Anim_Blend.obj
 0001:000f4d70       ?ANIM_GetAnim@idGameEdit@@UAEPBVidMD5Anim@@PBD@Z 100f5d70 f   Anim_Blend.obj
 0001:000f4d80       ?ANIM_GetLength@idGameEdit@@UAEHPBVidMD5Anim@@@Z 100f5d80 f   Anim_Blend.obj
 0001:000f4da0       ?ANIM_GetNumFrames@idGameEdit@@UAEHPBVidMD5Anim@@@Z 100f5da0 f   Anim_Blend.obj
 0001:000f4dc0       ?SetAnim@idAnim@@QAEXPBVidDeclModelDef@@PBD1HQAPBVidMD5Anim@@@Z 100f5dc0 f   Anim_Blend.obj
 0001:000f4eb0       ?Name@idAnim@@QBEPBDXZ     100f5eb0 f   Anim_Blend.obj
 0001:000f4eb0       ?GetNumClipModels@idPhysics_StaticMulti@@UBEHXZ 100f5eb0 f   Physics_StaticMulti.obj
 0001:000f4ec0       ?GetOriginRotation@idAnim@@QBE_NAAVidQuat@@HHH@Z 100f5ec0 f   Anim_Blend.obj
 0001:000f4f00       ?FindFrameForFrameCommand@idAnim@@QBEHW4frameCommandType_t@@PAPBUframeCommand_t@@@Z 100f5f00 f   Anim_Blend.obj
 0001:000f4fa0       ?FindJoint@idDeclModelDef@@QBEPBUjointInfo_t@@PBD@Z 100f5fa0 f   Anim_Blend.obj
 0001:000f5010       ?SetupJoints@idDeclModelDef@@QBEXPAHPAPAVidJointMat@@AAVidBounds@@_N@Z 100f6010 f   Anim_Blend.obj
 0001:000f51c0       ?HasAnim@idDeclModelDef@@QBE_NPBD@Z 100f61c0 f   Anim_Blend.obj
 0001:000f5210       ?NumAnims@idDeclModelDef@@QBEHXZ 100f6210 f   Anim_Blend.obj
 0001:000f5220       ?GetSpecificAnim@idDeclModelDef@@QBEHPBD@Z 100f6220 f   Anim_Blend.obj
 0001:000f5270       ?GetAnim@idDeclModelDef@@QBEPBVidAnim@@H@Z 100f6270 f   Anim_Blend.obj
 0001:000f52a0       ?GetAnim@idDeclModelDef@@QBEHPBD@Z 100f62a0 f   Anim_Blend.obj
 0001:000f5360       ?GetChannelJoints@idDeclModelDef@@QBEPBHH@Z 100f6360 f   Anim_Blend.obj
 0001:000f5390       ?Allocated@idAnimator@@QBEIXZ 100f6390 f   Anim_Blend.obj
 0001:000f53d0       ?Save@idAnimator@@QBEXPAVidSaveGame@@@Z 100f63d0 f   Anim_Blend.obj
 0001:000f56a0       ?PushAnims@idAnimator@@AAEXHHH@Z 100f66a0 f   Anim_Blend.obj
 0001:000f5760       ?NumAnims@idAnimator@@QBEHXZ 100f6760 f   Anim_Blend.obj
 0001:000f5770       ?GetAnim@idAnimator@@QBEPBVidAnim@@H@Z 100f6770 f   Anim_Blend.obj
 0001:000f57a0       ?GetAnim@idAnimator@@QBEHPBD@Z 100f67a0 f   Anim_Blend.obj
 0001:000f57b0       ?HasAnim@idAnimator@@QBE_NPBD@Z 100f67b0 f   Anim_Blend.obj
 0001:000f57c0       ?Clear@idAnimator@@QAEXHHH@Z 100f67c0 f   Anim_Blend.obj
 0001:000f58e0       ?ClearJoint@idAnimator@@QAEXW4jointHandle_t@@@Z 100f68e0 f   Anim_Blend.obj
 0001:000f59a0       ?IsAnimating@idAnimator@@QBE_NH@Z 100f69a0 f   Anim_Blend.obj
 0001:000f5a30       ?GetChannelForJoint@idAnimator@@QBEHW4jointHandle_t@@@Z 100f6a30 f   Anim_Blend.obj
 0001:000f5aa0       ?GetFirstChild@idAnimator@@QBE?AW4jointHandle_t@@W42@@Z 100f6aa0 f   Anim_Blend.obj
 0001:000f5b00       ?GetAnimFlags@idAnimator@@QBE?BUanimFlags_t@@H@Z 100f6b00 f   Anim_Blend.obj
 0001:000f5b40       ?NumFrames@idAnimator@@QBEHH@Z 100f6b40 f   Anim_Blend.obj
 0001:000f5b80       ?AnimFullName@idAnimator@@QBEPBDH@Z 100f6b80 f   Anim_Blend.obj
 0001:000f5bc0       ?AnimLength@idAnimator@@QBEHH@Z 100f6bc0 f   Anim_Blend.obj
 0001:000f5c00       ?TotalMovementDelta@idAnimator@@QBEABVidVec3@@H@Z 100f6c00 f   Anim_Blend.obj
 0001:000f5c40       ?ANIM_GetModelDefFromEntityDef@@YAPBVidDeclModelDef@@PBVidDict@@@Z 100f6c40 f   Anim_Blend.obj
 0001:000f5d50       ?ANIM_GetModelFromEntityDef@idGameEdit@@UAEPAVidRenderModel@@PBVidDict@@@Z 100f6d50 f   Anim_Blend.obj
 0001:000f5e80       ?ANIM_GetModelOffsetFromEntityDef@idGameEdit@@UAEABVidVec3@@PBD@Z 100f6e80 f   Anim_Blend.obj
 0001:000f5eb0       ?ANIM_GetAnimFromEntityDef@idGameEdit@@UAEPBVidMD5Anim@@PBD0@Z 100f6eb0 f   Anim_Blend.obj
 0001:000f5f50       ?ANIM_GetNumAnimsFromEntityDef@idGameEdit@@UAEHPBVidDict@@@Z 100f6f50 f   Anim_Blend.obj
 0001:000f5fa0       ?ANIM_GetAnimNameFromEntityDef@idGameEdit@@UAEPBDPBVidDict@@H@Z 100f6fa0 f   Anim_Blend.obj
 0001:000f6010       ?ANIM_CreateAnimFrame@idGameEdit@@UAEXPBVidRenderModel@@PBVidMD5Anim@@HPAVidJointMat@@HABVidVec3@@_N@Z 100f7010 f   Anim_Blend.obj
 0001:000f65d0       ??$ArgCompletion_Integer@$0A@$01@idCmdSystem@@SAXABVidCmdArgs@@P6AXPBD@Z@Z 100f75d0 f i Anim_Blend.obj
 0001:000f6610       ??0idAFPoseJointMod@@QAE@XZ 100f7610 f i Anim_Blend.obj
 0001:000f6680       ??0idAnim@@QAE@XZ          100f7680 f   Anim_Blend.obj
 0001:000f6700       ??0idAnim@@QAE@PBVidDeclModelDef@@PBV0@@Z 100f7700 f   Anim_Blend.obj
 0001:000f6a40       ??1idAnim@@QAE@XZ          100f7a40 f   Anim_Blend.obj
 0001:000f6b30       ?AddFrameCommand@idAnim@@QAEPBDPBVidDeclModelDef@@HAAVidLexer@@PBVidDict@@@Z 100f7b30 f   Anim_Blend.obj
 0001:000f89f0       ?CallFrameCommands@idAnim@@QBEXPAVidEntity@@HH@Z 100f99f0 f   Anim_Blend.obj
 0001:000f9600       ?Restore@idAnimBlend@@QAEXPAVidRestoreGame@@PBVidDeclModelDef@@@Z 100fa600 f   Anim_Blend.obj
 0001:000f9720       ?SetFrame@idAnimBlend@@AAEXPBVidDeclModelDef@@HHHH@Z 100fa720 f   Anim_Blend.obj
 0001:000f9890       ?CycleAnim@idAnimBlend@@AAEXPBVidDeclModelDef@@HHH@Z 100fa890 f   Anim_Blend.obj
 0001:000f9a20       ?PlayAnim@idAnimBlend@@AAEXPBVidDeclModelDef@@HHH@Z 100faa20 f   Anim_Blend.obj
 0001:000f9b60       ?AnimTime@idAnimBlend@@QBEHH@Z 100fab60 f   Anim_Blend.obj
 0001:000f9c40       ?GetFrameNumber@idAnimBlend@@QBEHH@Z 100fac40 f   Anim_Blend.obj
 0001:000f9cd0       ?CallFrameCommands@idAnimBlend@@ABEXPAVidEntity@@HH@Z 100facd0 f   Anim_Blend.obj
 0001:000f9e00       ?BlendAnim@idAnimBlend@@ABE_NHHHPAVidJointQuat@@AAM_N22@Z 100fae00 f   Anim_Blend.obj
 0001:000fa5e0       ?BlendDelta@idAnimBlend@@ABEXHHAAVidVec3@@AAM@Z 100fb5e0 f   Anim_Blend.obj
 0001:000fa8a0       ?BlendDeltaRotation@idAnimBlend@@ABEXHHAAVidQuat@@AAM@Z 100fb8a0 f   Anim_Blend.obj
 0001:000fabd0       ?AddBounds@idAnimBlend@@ABE_NHAAVidBounds@@_N@Z 100fbbd0 f   Anim_Blend.obj
 0001:000fadb0       ?CopyDecl@idDeclModelDef@@AAEXPBV1@@Z 100fbdb0 f   Anim_Blend.obj
 0001:000fb0f0       ?ParseAnim@idDeclModelDef@@AAE_NAAVidLexer@@H@Z 100fc0f0 f   Anim_Blend.obj
 0001:000fb8a0       ?FreeData@idAnimator@@AAEXXZ 100fc8a0 f   Anim_Blend.obj
 0001:000fb9a0       ?SetModel@idAnimator@@QAEPAVidRenderModel@@PBD@Z 100fc9a0 f   Anim_Blend.obj
 0001:000fba90       ?SetFrame@idAnimator@@QAEXHHHHH@Z 100fca90 f   Anim_Blend.obj
 0001:000fbb20       ?CycleAnim@idAnimator@@QAEXHHHH@Z 100fcb20 f   Anim_Blend.obj
 0001:000fbbb0       ?PlayAnim@idAnimator@@QAEXHHHH@Z 100fcbb0 f   Anim_Blend.obj
 0001:000fbc40       ?SyncAnimChannels@idAnimator@@QAEXHHHH@Z 100fcc40 f   Anim_Blend.obj
 0001:000fbda0       ?SetJointPos@idAnimator@@QAEXW4jointHandle_t@@W4jointModTransform_t@@ABVidVec3@@@Z 100fcda0 f   Anim_Blend.obj
 0001:000fc090       ?SetJointAxis@idAnimator@@QAEXW4jointHandle_t@@W4jointModTransform_t@@ABVidMat3@@@Z 100fd090 f   Anim_Blend.obj
 0001:000fc350       ?ClearAllJoints@idAnimator@@QAEXXZ 100fd350 f   Anim_Blend.obj
 0001:000fc3e0       ?GetDelta@idAnimator@@QBEXHHAAVidVec3@@@Z 100fd3e0 f   Anim_Blend.obj
 0001:000fc4b0       ?GetDeltaRotation@idAnimator@@QBE_NHHAAVidMat3@@@Z 100fd4b0 f   Anim_Blend.obj
 0001:000fc620       ?GetBounds@idAnimator@@QAE_NHAAVidBounds@@@Z 100fd620 f   Anim_Blend.obj
 0001:000fc8a0       ?SetAFPoseJointMod@idAnimator@@QAEXW4jointHandle_t@@W4AFJointModType_t@@ABVidMat3@@ABVidVec3@@@Z 100fd8a0 f   Anim_Blend.obj
 0001:000fcb20       ?FinishAFPose@idAnimator@@QAEXHABVidBounds@@H@Z 100fdb20 f   Anim_Blend.obj
 0001:000fd3c0       ?ClearAFPose@idAnimator@@QAEXXZ 100fe3c0 f   Anim_Blend.obj
 0001:000fd480       ?ServiceAnims@idAnimator@@QAEXHH@Z 100fe480 f   Anim_Blend.obj
 0001:000fd510       ?CreateFrame@idAnimator@@QAE_NH_N@Z 100fe510 f   Anim_Blend.obj
 0001:000fec80       ?GetJointTransform@idAnimator@@QAE_NW4jointHandle_t@@HAAVidVec3@@AAVidMat3@@@Z 100ffc80 f   Anim_Blend.obj
 0001:000fed90       ?GetJointLocalTransform@idAnimator@@QAE_NW4jointHandle_t@@HAAVidVec3@@AAVidMat3@@@Z 100ffd90 f   Anim_Blend.obj
 0001:000ff180       ?GetFirstChild@idAnimator@@QBE?AW4jointHandle_t@@PBD@Z 10100180 f   Anim_Blend.obj
 0001:000ff1c0       ?ANIM_CreateMeshForAnim@idGameEdit@@UAEPAVidRenderModel@@PAV2@PBD1H_N@Z 101001c0 f   Anim_Blend.obj
 0001:000ff520       ?AnimFullName@idAnimBlend@@QBEPBDXZ 10100520 f   Anim_Blend.obj
 0001:000ff550       ?AnimName@idAnimBlend@@QBEPBDXZ 10100550 f   Anim_Blend.obj
 0001:000ff580       ?NumFrames@idAnimBlend@@QBEHXZ 10100580 f   Anim_Blend.obj
 0001:000ff5c0       ?SetSyncedAnimWeight@idAnimBlend@@QAE_NHM@Z 101005c0 f   Anim_Blend.obj
 0001:000ff610       ?SetCycleCount@idAnimBlend@@QAEXH@Z 10100610 f   Anim_Blend.obj
 0001:000ff7a0       ?SetStartTime@idAnimBlend@@QAEXH@Z 101007a0 f   Anim_Blend.obj
 0001:000ff7c0       ??0idDeclModelDef@@QAE@XZ  101007c0 f   Anim_Blend.obj
 0001:000ff8a0       ?FreeData@idDeclModelDef@@UAEXXZ 101008a0 f   Anim_Blend.obj
 0001:000ff980       ?GetJointList@idDeclModelDef@@QBEXPBDAAV?$idList@W4jointHandle_t@@@@@Z 10100980 f   Anim_Blend.obj
 0001:000ffed0       ?Parse@idDeclModelDef@@UAE_NPBDH@Z 10100ed0 f   Anim_Blend.obj
 0001:00100df0       ??1idAnimator@@QAE@XZ      10101df0 f   Anim_Blend.obj
 0001:00100ee0       ?GetJointList@idAnimator@@QBEXPBDAAV?$idList@W4jointHandle_t@@@@@Z 10101ee0 f   Anim_Blend.obj
 0001:00100ef0       ?ClearAllAnims@idAnimator@@QAEXHH@Z 10101ef0 f   Anim_Blend.obj
 0001:00100f30       ?FrameHasChanged@idAnimator@@QBE_NH@Z 10101f30 f   Anim_Blend.obj
 0001:00101030       ??1idDeclModelDef@@UAE@XZ  10102030 f   Anim_Blend.obj
 0001:00101100       ??0idAnimator@@QAE@XZ      10102100 f   Anim_Blend.obj
 0001:001015a0       ?Restore@idAnimator@@QAEXPAVidRestoreGame@@@Z 101025a0 f   Anim_Blend.obj
 0001:00102010       ?InitAFPose@idAnimator@@QAEXXZ 10103010 f   Anim_Blend.obj
 0001:00102360       ??_EidDeclModelDef@@UAEPAXI@Z 10103360 f i Anim_Blend.obj
 0001:00102360       ??_GidDeclModelDef@@UAEPAXI@Z 10103360 f i Anim_Blend.obj
 0001:00102380       ?LoadMayaDll@idModelExport@@CAXXZ 10103380 f   Anim_Import.obj
 0001:001024b0       ??0idModelExport@@QAE@XZ   101034b0 f   Anim_Import.obj
 0001:00102550       ?Shutdown@idModelExport@@SAXXZ 10103550 f   Anim_Import.obj
 0001:001025c0       ?ConvertMayaToMD5@idModelExport@@AAE_NXZ 101035c0 f   Anim_Import.obj
 0001:00102950       ?ParseOptions@idModelExport@@AAE_NAAVidLexer@@@Z 10103950 f   Anim_Import.obj
 0001:00102df0       ?ParseExportSection@idModelExport@@AAEHAAVidParser@@@Z 10103df0 f   Anim_Import.obj
 0001:001034e0       ?ExportDefFile@idModelExport@@QAEHPBD@Z 101044e0 f   Anim_Import.obj
 0001:00103640       ?ExportModels@idModelExport@@QAEHPBD0@Z 10104640 f   Anim_Import.obj
 0001:00103740       ?GetType@idTestModel@@UBEPAVidTypeInfo@@XZ 10104740 f   Anim_Testmodel.obj
 0001:00103750       ?Restore@idTestModel@@QAEXPAVidRestoreGame@@@Z 10104750 f   Anim_Testmodel.obj
 0001:00103770       ?Event_Footstep@idTestModel@@AAEXXZ 10104770 f   Anim_Testmodel.obj
 0001:00103770       ?Event_Footstep@idAnimated@@AAEXXZ 10104770 f   Misc.obj
 0001:00103790       ?KeepTestModel_f@idTestModel@@SAXABVidCmdArgs@@@Z 10104790 f   Anim_Testmodel.obj
 0001:001037d0       ?TestParticleStopTime_f@idTestModel@@SAXABVidCmdArgs@@@Z 101047d0 f   Anim_Testmodel.obj
 0001:00103810       ?Think@idTestModel@@EAEXXZ 10104810 f   Anim_Testmodel.obj
 0001:001044b0       ?NextAnim@idTestModel@@QAEXABVidCmdArgs@@@Z 101054b0 f   Anim_Testmodel.obj
 0001:001046c0       ?PrevAnim@idTestModel@@QAEXABVidCmdArgs@@@Z 101056c0 f   Anim_Testmodel.obj
 0001:001048d0       ?NextFrame@idTestModel@@QAEXABVidCmdArgs@@@Z 101058d0 f   Anim_Testmodel.obj
 0001:00104970       ?PrevFrame@idTestModel@@QAEXABVidCmdArgs@@@Z 10105970 f   Anim_Testmodel.obj
 0001:00104a00       ?BlendAnim@idTestModel@@QAEXABVidCmdArgs@@@Z 10105a00 f   Anim_Testmodel.obj
 0001:00104b60       ?ArgCompletion_TestAnim@idTestModel@@SAXABVidCmdArgs@@P6AXPBD@Z@Z 10105b60 f   Anim_Testmodel.obj
 0001:00104bd0       ?TestBlend_f@idTestModel@@SAXABVidCmdArgs@@@Z 10105bd0 f   Anim_Testmodel.obj
 0001:00104c00       ?TestModelNextAnim_f@idTestModel@@SAXABVidCmdArgs@@@Z 10105c00 f   Anim_Testmodel.obj
 0001:00104c30       ?TestModelPrevAnim_f@idTestModel@@SAXABVidCmdArgs@@@Z 10105c30 f   Anim_Testmodel.obj
 0001:00104c60       ?TestModelNextFrame_f@idTestModel@@SAXABVidCmdArgs@@@Z 10105c60 f   Anim_Testmodel.obj
 0001:00104c90       ?TestModelPrevFrame_f@idTestModel@@SAXABVidCmdArgs@@@Z 10105c90 f   Anim_Testmodel.obj
 0001:00104cc0       ??0idTestModel@@QAE@XZ     10105cc0 f   Anim_Testmodel.obj
 0001:00104d90       ??1idTestModel@@UAE@XZ     10105d90 f   Anim_Testmodel.obj
 0001:00104f20       ?TestAnim@idTestModel@@QAEXABVidCmdArgs@@@Z 10105f20 f   Anim_Testmodel.obj
 0001:001051b0       ?ArgCompletion_TestModel@idTestModel@@SAXABVidCmdArgs@@P6AXPBD@Z@Z 101061b0 f   Anim_Testmodel.obj
 0001:00105490       ?TestAnim_f@idTestModel@@SAXABVidCmdArgs@@@Z 10106490 f   Anim_Testmodel.obj
 0001:001054c0       ?CreateInstance@idTestModel@@SAPAVidClass@@XZ 101064c0 f   Anim_Testmodel.obj
 0001:00105560       ??_GidTestModel@@UAEPAXI@Z 10106560 f i Anim_Testmodel.obj
 0001:00105560       ??_EidTestModel@@UAEPAXI@Z 10106560 f i Anim_Testmodel.obj
 0001:00105580       ?Spawn@idTestModel@@QAEXXZ 10106580 f   Anim_Testmodel.obj
 0001:00105fe0       ?TestSkin_f@idTestModel@@SAXABVidCmdArgs@@@Z 10106fe0 f   Anim_Testmodel.obj
 0001:00106260       ?TestShaderParm_f@idTestModel@@SAXABVidCmdArgs@@@Z 10107260 f   Anim_Testmodel.obj
 0001:00106540       ?TestModel_f@idTestModel@@SAXABVidCmdArgs@@@Z 10107540 f   Anim_Testmodel.obj
 0001:00106930       ?CreateInstance@idClass@@SAPAV1@XZ 10107930 f   Class.obj
 0001:00106950       ?GetType@idClass@@UBEPAVidTypeInfo@@XZ 10107950 f   Class.obj
 0001:00106960       ?CallSpawnFunc@idClass@@AAEP81@AEXXZPAVidTypeInfo@@@Z 10107960 f   Class.obj
 0001:00106990       ??1idClass@@UAE@XZ         10107990 f   Class.obj
 0001:001069b0       ?DisplayInfo_f@idClass@@SAXABVidCmdArgs@@@Z 101079b0 f   Class.obj
 0001:001069d0       ??2idClass@@SAPAXI@Z       101079d0 f   Class.obj
 0001:00106a00       ??3idClass@@SAXPAX@Z       10107a00 f   Class.obj
 0001:00106a30       ?GetClassname@idClass@@QBEPBDXZ 10107a30 f   Class.obj
 0001:00106a40       ?CancelEvents@idClass@@QAEXPBVidEventDef@@@Z 10107a40 f   Class.obj
 0001:00106a60       ?PostEventArgs@idClass@@AAA_NPBVidEventDef@@HHZZ 10107a60 f   Class.obj
 0001:00106af0       ?PostEventMS@idClass@@QAE_NPBVidEventDef@@H@Z 10107af0 f   Class.obj
 0001:00106b10       ?PostEventMS@idClass@@QAE_NPBVidEventDef@@HVidEventArg@@@Z 10107b10 f   Class.obj
 0001:00106b30       ?PostEventMS@idClass@@QAE_NPBVidEventDef@@HVidEventArg@@1@Z 10107b30 f   Class.obj
 0001:00106b60       ?PostEventMS@idClass@@QAE_NPBVidEventDef@@HVidEventArg@@111@Z 10107b60 f   Class.obj
 0001:00106b90       ?PostEventMS@idClass@@QAE_NPBVidEventDef@@HVidEventArg@@1111@Z 10107b90 f   Class.obj
 0001:00106bd0       ?PostEventSec@idClass@@QAE_NPBVidEventDef@@M@Z 10107bd0 f   Class.obj
 0001:00106c00       ?PostEventSec@idClass@@QAE_NPBVidEventDef@@MVidEventArg@@@Z 10107c00 f   Class.obj
 0001:00106c40       ?PostEventSec@idClass@@QAE_NPBVidEventDef@@MVidEventArg@@1@Z 10107c40 f   Class.obj
 0001:00106c80       ?Event_Remove@idClass@@QAEXXZ 10107c80 f   Class.obj
 0001:00106c90       ?Event_SafeRemove@idClass@@AAEXXZ 10107c90 f   Class.obj
 0001:00106cb0       ?CallSpawn@idClass@@QAEXXZ 10107cb0 f   Class.obj
 0001:00106ce0       ?ListClasses_f@idClass@@SAXABVidCmdArgs@@@Z 10107ce0 f   Class.obj
 0001:00106d70       ?Shutdown@idClass@@SAXXZ   10107d70 f   Class.obj
 0001:00106e00       ?GetClass@idClass@@SAPAVidTypeInfo@@PBD@Z 10107e00 f   Class.obj
 0001:00106ea0       ?GetType@idClass@@SAPAVidTypeInfo@@H@Z 10107ea0 f   Class.obj
 0001:00106ef0       ?ProcessEventArgPtr@idClass@@QAE_NPBVidEventDef@@PAH@Z 10107ef0 f   Class.obj
 0001:001072e0       ?RemoveFromParent@?$idHierarchy@VidTypeInfo@@@@QAEXXZ 101082e0 f i Class.obj
 0001:00107350       ?ProcessEventArgs@idClass@@AAA_NPBVidEventDef@@HZZ 10108350 f   Class.obj
 0001:001073b0       ?ProcessEvent@idClass@@QAE_NPBVidEventDef@@@Z 101083b0 f   Class.obj
 0001:001073d0       ?ProcessEvent@idClass@@QAE_NPBVidEventDef@@VidEventArg@@@Z 101083d0 f   Class.obj
 0001:001073f0       ?ProcessEvent@idClass@@QAE_NPBVidEventDef@@VidEventArg@@1@Z 101083f0 f   Class.obj
 0001:00107410       ?ProcessEvent@idClass@@QAE_NPBVidEventDef@@VidEventArg@@11@Z 10108410 f   Class.obj
 0001:00107440       ?ProcessEvent@idClass@@QAE_NPBVidEventDef@@VidEventArg@@111@Z 10108440 f   Class.obj
 0001:00107470       ?RemoveFromHierarchy@?$idHierarchy@VidTypeInfo@@@@QAEXXZ 10108470 f i Class.obj
 0001:001074d0       ?Init@idTypeInfo@@QAEXXZ   101084d0 f   Class.obj
 0001:00107610       ?Init@idClass@@SAXXZ       10108610 f   Class.obj
 0001:001079b0       ??1?$idHierarchy@VidTypeInfo@@@@QAE@XZ 101089b0 f i Class.obj
 0001:001079c0       ??0idTypeInfo@@QAE@PBD0PAU?$idEventFunc@VidClass@@@@P6APAVidClass@@XZP82@AEXXZP82@BEXPAVidSaveGame@@@ZP82@AEXPAVidRestoreGame@@@Z@Z 101089c0 f   Class.obj
 0001:00107ae0       ??1idTypeInfo@@QAE@XZ      10108ae0 f   Class.obj
 0001:00107b50       ??0idEventDef@@QAE@PBD0D@Z 10108b50 f   Event.obj
 0001:00107da0       ?NumEventCommands@idEventDef@@SAHXZ 10108da0 f   Event.obj
 0001:00107db0       ?FindEvent@idEventDef@@SAPBV1@PBD@Z 10108db0 f   Event.obj
 0001:00107df0       ?CopyArgs@idEvent@@SAXPBVidEventDef@@HPADQAH@Z 10108df0 f   Event.obj
 0001:00107e80       ?RestoreTrace@idEvent@@SAXPAVidRestoreGame@@AAUtrace_s@@@Z 10108e80 f   Event.obj
 0001:00107f20       ?SaveTrace@idEvent@@SAXPAVidSaveGame@@ABUtrace_s@@@Z 10108f20 f   Event.obj
 0001:00107fd0       ?Alloc@?$idBlockAlloc@V?$idBTreeNode@V?$idDynamicBlock@E@@H@@$0IA@@@QAEPAV?$idBTreeNode@V?$idDynamicBlock@E@@H@@XZ 10108fd0 f i Event.obj
 0001:00107fd0       ?Alloc@?$idBlockAlloc@V?$idBTreeNode@V?$idDynamicBlock@D@@H@@$0IA@@@QAEPAV?$idBTreeNode@V?$idDynamicBlock@D@@H@@XZ 10108fd0 f i idLib:Str.obj
 0001:00108040       ??4contactInfo_t@@QAEAAU0@ABU0@@Z 10109040 f i Event.obj
 0001:001080a0       ?Save@idEvent@@SAXPAVidSaveGame@@@Z 101090a0 f   Event.obj
 0001:001082f0       ?Clear@?$idLinkList@VidActor@@@@QAEXXZ 101092f0 f i Actor.obj
 0001:001082f0       ?Clear@?$idLinkList@VidEvent@@@@QAEXXZ 101092f0 f i Event.obj
 0001:001082f0       ?Clear@?$idLinkList@VidEntity@@@@QAEXXZ 101092f0 f i Entity.obj
 0001:00108340       ?InsertBefore@?$idLinkList@VidEvent@@@@QAEXAAV1@@Z 10109340 f i Event.obj
 0001:00108380       ??4trace_s@@QAEAAU0@ABU0@@Z 10109380 f i Event.obj
 0001:00108430       ?Schedule@idEvent@@QAEXPAVidClass@@PBVidTypeInfo@@H@Z 10109430 f   Event.obj
 0001:001085a0       ??1?$idBTree@V?$idDynamicBlock@D@@H$03@@QAE@XZ 101095a0 f i idLib:Str.obj
 0001:001085a0       ??1?$idBTree@V?$idDynamicBlock@E@@H$03@@QAE@XZ 101095a0 f i Event.obj
 0001:00108600       ??0idEvent@@QAE@XZ         10109600 f i Event.obj
 0001:00108620       ?AllocInternal@?$idDynamicBlockAlloc@E$0EAAA@$0BAA@@@AAEPAV?$idDynamicBlock@E@@H@Z 10109620 f i Event.obj
 0001:00108950       ?FreeInternal@?$idDynamicBlockAlloc@E$0EAAA@$0BAA@@@AAEXPAV?$idDynamicBlock@E@@@Z 10109950 f i Event.obj
 0001:00108950       ?FreeInternal@?$idDynamicBlockAlloc@D$0EAAAA@$0IA@@@AAEXPAV?$idDynamicBlock@D@@@Z 10109950 f i idLib:Str.obj
 0001:00109460       ?Shutdown@?$idDynamicBlockAlloc@E$0EAAA@$0BAA@@@QAEXXZ 1010a460 f i Event.obj
 0001:00109460       ?Shutdown@?$idDynamicBlockAlloc@D$0EAAAA@$0IA@@@QAEXXZ 1010a460 f i idLib:Str.obj
 0001:00109530       ?ResizeInternal@?$idDynamicBlockAlloc@E$0EAAA@$0BAA@@@AAEPAV?$idDynamicBlock@E@@PAV2@H@Z 1010a530 f i Event.obj
 0001:001098c0       ?Free@idEvent@@QAEXXZ      1010a8c0 f   Event.obj
 0001:00109950       ?CancelEvents@idEvent@@SAXPBVidClass@@PBVidEventDef@@@Z 1010a950 f   Event.obj
 0001:00109a00       ?ClearEventList@idEvent@@SAXXZ 1010aa00 f   Event.obj
 0001:00109a40       ?ServiceEvents@idEvent@@SAXXZ 1010aa40 f   Event.obj
 0001:00109c30       ?ServiceFastEvents@idEvent@@SAXXZ 1010ac30 f   Event.obj
 0001:00109e20       ?Init@idEvent@@SAXXZ       1010ae20 f   Event.obj
 0001:00109ec0       ?Shutdown@idEvent@@SAXXZ   1010aec0 f   Event.obj
 0001:00109f10       ??1idEvent@@QAE@XZ         1010af10 f   Event.obj
 0001:00109f60       ?Alloc@idEvent@@SAPAV1@PBVidEventDef@@HPAD@Z 1010af60 f   Event.obj
 0001:0010a240       ?Restore@idEvent@@SAXPAVidRestoreGame@@@Z 1010b240 f   Event.obj
 0001:0010a7e0       ?CallSave_r@idSaveGame@@AAEXPBVidTypeInfo@@PBVidClass@@@Z 1010b7e0 f   SaveGame.obj
 0001:0010a820       ?Write@idSaveGame@@QAEXPBXH@Z 1010b820 f   SaveGame.obj
 0001:0010a830       ?WriteInt@idSaveGame@@QAEXH@Z 1010b830 f   SaveGame.obj
 0001:0010a830       ?WriteJoint@idSaveGame@@QAEXW4jointHandle_t@@@Z 1010b830 f   SaveGame.obj
 0001:0010a840       ?WriteShort@idSaveGame@@QAEXF@Z 1010b840 f   SaveGame.obj
 0001:0010a850       ?WriteByte@idSaveGame@@QAEXE@Z 1010b850 f   SaveGame.obj
 0001:0010a870       ?WriteFloat@idSaveGame@@QAEXM@Z 1010b870 f   SaveGame.obj
 0001:0010a890       ?WriteBool@idSaveGame@@QAEX_N@Z 1010b890 f   SaveGame.obj
 0001:0010a8a0       ?WriteString@idSaveGame@@QAEXPBD@Z 1010b8a0 f   SaveGame.obj
 0001:0010a8e0       ?WriteVec2@idSaveGame@@QAEXABVidVec2@@@Z 1010b8e0 f   SaveGame.obj
 0001:0010a8f0       ?WriteVec3@idSaveGame@@QAEXABVidVec3@@@Z 1010b8f0 f   SaveGame.obj
 0001:0010a900       ?WriteVec4@idSaveGame@@QAEXABVidVec4@@@Z 1010b900 f   SaveGame.obj
 0001:0010a910       ?WriteVec6@idSaveGame@@QAEXABVidVec6@@@Z 1010b910 f   SaveGame.obj
 0001:0010a920       ?WriteBounds@idSaveGame@@QAEXABVidBounds@@@Z 1010b920 f   SaveGame.obj
 0001:0010a980       ?WriteMat3@idSaveGame@@QAEXABVidMat3@@@Z 1010b980 f   SaveGame.obj
 0001:0010a990       ?WriteAngles@idSaveGame@@QAEXABVidAngles@@@Z 1010b990 f   SaveGame.obj
 0001:0010a9e0       ?WriteStaticObject@idSaveGame@@QAEXABVidClass@@@Z 1010b9e0 f   SaveGame.obj
 0001:0010aa20       ?WriteModel@idSaveGame@@QAEXPBVidRenderModel@@@Z 1010ba20 f   SaveGame.obj
 0001:0010aa90       ?WriteUserInterface@idSaveGame@@QAEXPBVidUserInterface@@_N@Z 1010ba90 f   SaveGame.obj
 0001:0010ab30       ?WriteRenderView@idSaveGame@@QAEXABUrenderView_s@@@Z 1010bb30 f   SaveGame.obj
 0001:0010ac10       ?WriteUsercmd@idSaveGame@@QAEXABVusercmd_t@@@Z 1010bc10 f   SaveGame.obj
 0001:0010ad30       ?WriteTraceModel@idSaveGame@@QAEXABVidTraceModel@@@Z 1010bd30 f   SaveGame.obj
 0001:0010af40       ?WriteClipModel@idSaveGame@@QAEXPBVidClipModel@@@Z 1010bf40 f   SaveGame.obj
 0001:0010af80       ?WriteBuildNumber@idSaveGame@@QAEXH@Z 1010bf80 f   SaveGame.obj
 0001:0010afa0       ?CallRestore_r@idRestoreGame@@AAEXPBVidTypeInfo@@PAVidClass@@@Z 1010bfa0 f   SaveGame.obj
 0001:0010afe0       ?Read@idRestoreGame@@QAEXPAXH@Z 1010bfe0 f   SaveGame.obj
 0001:0010aff0       ?ReadInt@idRestoreGame@@QAEXAAH@Z 1010bff0 f   SaveGame.obj
 0001:0010aff0       ?ReadJoint@idRestoreGame@@QAEXAAW4jointHandle_t@@@Z 1010bff0 f   SaveGame.obj
 0001:0010b000       ?ReadShort@idRestoreGame@@QAEXAAF@Z 1010c000 f   SaveGame.obj
 0001:0010b010       ?ReadByte@idRestoreGame@@QAEXAAE@Z 1010c010 f   SaveGame.obj
 0001:0010b030       ?ReadBool@idRestoreGame@@QAEXAA_N@Z 1010c030 f   SaveGame.obj
 0001:0010b040       ?ReadVec2@idRestoreGame@@QAEXAAVidVec2@@@Z 1010c040 f   SaveGame.obj
 0001:0010b050       ?ReadVec3@idRestoreGame@@QAEXAAVidVec3@@@Z 1010c050 f   SaveGame.obj
 0001:0010b060       ?ReadVec4@idRestoreGame@@QAEXAAVidVec4@@@Z 1010c060 f   SaveGame.obj
 0001:0010b070       ?ReadVec6@idRestoreGame@@QAEXAAVidVec6@@@Z 1010c070 f   SaveGame.obj
 0001:0010b080       ?ReadBounds@idRestoreGame@@QAEXAAVidBounds@@@Z 1010c080 f   SaveGame.obj
 0001:0010b0b0       ?ReadMat3@idRestoreGame@@QAEXAAVidMat3@@@Z 1010c0b0 f   SaveGame.obj
 0001:0010b0c0       ?ReadAngles@idRestoreGame@@QAEXAAVidAngles@@@Z 1010c0c0 f   SaveGame.obj
 0001:0010b0f0       ?ReadStaticObject@idRestoreGame@@QAEXAAVidClass@@@Z 1010c0f0 f   SaveGame.obj
 0001:0010b130       ?ReadRenderView@idRestoreGame@@QAEXAAUrenderView_s@@@Z 1010c130 f   SaveGame.obj
 0001:0010b1f0       ?ReadUsercmd@idRestoreGame@@QAEXAAVusercmd_t@@@Z 1010c1f0 f   SaveGame.obj
 0001:0010b2e0       ?ReadTraceModel@idRestoreGame@@QAEXAAVidTraceModel@@@Z 1010c2e0 f   SaveGame.obj
 0001:0010b460       ?ReadClipModel@idRestoreGame@@QAEXAAPAVidClipModel@@@Z 1010c460 f   SaveGame.obj
 0001:0010b500       ?ReadBuildNumber@idRestoreGame@@QAEXXZ 1010c500 f   SaveGame.obj
 0001:0010b510       ?Close@idSaveGame@@QAEXXZ  1010c510 f   SaveGame.obj
 0001:0010b5a0       ?WriteObjectList@idSaveGame@@QAEXXZ 1010c5a0 f   SaveGame.obj
 0001:0010b600       ?WriteWinding@idSaveGame@@QAEXABVidWinding@@@Z 1010c600 f   SaveGame.obj
 0001:0010b680       ?WriteObject@idSaveGame@@QAEXPBVidClass@@@Z 1010c680 f   SaveGame.obj
 0001:0010b6d0       ?WriteModelDef@idSaveGame@@QAEXPBVidDeclModelDef@@@Z 1010c6d0 f   SaveGame.obj
 0001:0010b6d0       ?WriteFX@idSaveGame@@QAEXPBVidDeclFX@@@Z 1010c6d0 f   SaveGame.obj
 0001:0010b6d0       ?WriteSoundShader@idSaveGame@@QAEXPBVidSoundShader@@@Z 1010c6d0 f   SaveGame.obj
 0001:0010b6d0       ?WriteMaterial@idSaveGame@@QAEXPBVidMaterial@@@Z 1010c6d0 f   SaveGame.obj
 0001:0010b6d0       ?WriteSkin@idSaveGame@@QAEXPBVidDeclSkin@@@Z 1010c6d0 f   SaveGame.obj
 0001:0010b6d0       ?WriteParticle@idSaveGame@@QAEXPBVidDeclParticle@@@Z 1010c6d0 f   SaveGame.obj
 0001:0010b740       ?WriteRenderEntity@idSaveGame@@QAEXABUrenderEntity_s@@@Z 1010c740 f   SaveGame.obj
 0001:0010b940       ?WriteRenderLight@idSaveGame@@QAEXABUrenderLight_s@@@Z 1010c940 f   SaveGame.obj
 0001:0010bac0       ?WriteRefSound@idSaveGame@@QAEXABUrefSound_t@@@Z 1010cac0 f   SaveGame.obj
 0001:0010bba0       ?WriteContactInfo@idSaveGame@@QAEXABUcontactInfo_t@@@Z 1010cba0 f   SaveGame.obj
 0001:0010bc40       ?WriteTrace@idSaveGame@@QAEXABUtrace_s@@@Z 1010cc40 f   SaveGame.obj
 0001:0010bc90       ?RestoreObjects@idRestoreGame@@QAEXXZ 1010cc90 f   SaveGame.obj
 0001:0010bd50       ??0idSaveGame@@QAE@PAVidFile@@@Z 1010cd50 f   SaveGame.obj
 0001:0010bec0       ??1idSaveGame@@QAE@XZ      1010cec0 f   SaveGame.obj
 0001:0010bf20       ?AddObject@idSaveGame@@QAEXPBVidClass@@@Z 1010cf20 f   SaveGame.obj
 0001:0010c070       ?WriteDict@idSaveGame@@QAEXPBVidDict@@@Z 1010d070 f   SaveGame.obj
 0001:0010c140       ??0idRestoreGame@@QAE@PAVidFile@@@Z 1010d140 f   SaveGame.obj
 0001:0010c160       ??1idRestoreGame@@QAE@XZ   1010d160 f   SaveGame.obj
 0001:0010c190       ?DeleteObjects@idRestoreGame@@QAEXXZ 1010d190 f   SaveGame.obj
 0001:0010c210       ?Error@idRestoreGame@@QAAXPBDZZ 1010d210 f   SaveGame.obj
 0001:0010c2b0       ?ReadString@idRestoreGame@@QAEXAAVidStr@@@Z 1010d2b0 f   SaveGame.obj
 0001:0010c330       ?ReadWinding@idRestoreGame@@QAEXAAVidWinding@@@Z 1010d330 f   SaveGame.obj
 0001:0010c3b0       ?ReadObject@idRestoreGame@@QAEXAAPAVidClass@@@Z 1010d3b0 f   SaveGame.obj
 0001:0010c400       ?ReadDict@idRestoreGame@@QAEXPAVidDict@@@Z 1010d400 f   SaveGame.obj
 0001:0010c4f0       ?ReadMaterial@idRestoreGame@@QAEXAAPBVidMaterial@@@Z 1010d4f0 f   SaveGame.obj
 0001:0010c590       ?ReadSkin@idRestoreGame@@QAEXAAPBVidDeclSkin@@@Z 1010d590 f   SaveGame.obj
 0001:0010c630       ?ReadParticle@idRestoreGame@@QAEXAAPBVidDeclParticle@@@Z 1010d630 f   SaveGame.obj
 0001:0010c6d0       ?ReadFX@idRestoreGame@@QAEXAAPBVidDeclFX@@@Z 1010d6d0 f   SaveGame.obj
 0001:0010c770       ?ReadSoundShader@idRestoreGame@@QAEXAAPBVidSoundShader@@@Z 1010d770 f   SaveGame.obj
 0001:0010c810       ?ReadModelDef@idRestoreGame@@QAEXAAPBVidDeclModelDef@@@Z 1010d810 f   SaveGame.obj
 0001:0010c8b0       ?ReadModel@idRestoreGame@@QAEXAAPAVidRenderModel@@@Z 1010d8b0 f   SaveGame.obj
 0001:0010c940       ?ReadUserInterface@idRestoreGame@@QAEXAAPAVidUserInterface@@@Z 1010d940 f   SaveGame.obj
 0001:0010ca30       ?ReadRenderEntity@idRestoreGame@@QAEXAAUrenderEntity_s@@@Z 1010da30 f   SaveGame.obj
 0001:0010cc00       ?ReadRenderLight@idRestoreGame@@QAEXAAUrenderLight_s@@@Z 1010dc00 f   SaveGame.obj
 0001:0010cd50       ?ReadRefSound@idRestoreGame@@QAEXAAUrefSound_t@@@Z 1010dd50 f   SaveGame.obj
 0001:0010ce20       ?ReadContactInfo@idRestoreGame@@QAEXAAUcontactInfo_t@@@Z 1010de20 f   SaveGame.obj
 0001:0010cec0       ?ReadTrace@idRestoreGame@@QAEXAAUtrace_s@@@Z 1010dec0 f   SaveGame.obj
 0001:0010cf00       ?CreateObjects@idRestoreGame@@QAEXXZ 1010df00 f   SaveGame.obj
 0001:0010d0d0       ?Cmd_God_f@@YAXABVidCmdArgs@@@Z 1010e0d0 f   SysCmds.obj
 0001:0010d130       ?Cmd_Notarget_f@@YAXABVidCmdArgs@@@Z 1010e130 f   SysCmds.obj
 0001:0010d190       ?Cmd_Noclip_f@@YAXABVidCmdArgs@@@Z 1010e190 f   SysCmds.obj
 0001:0010d500       ?ShutdownConsoleCommands@idGameLocal@@AAEXXZ 1010e500 f   SysCmds.obj
 0001:0010d510       ??$ArgCompletion_Decl@$03@idCmdSystem@@SAXABVidCmdArgs@@P6AXPBD@Z@Z 1010e510 f i SysCmds.obj
 0001:0010d530       ??$ArgCompletion_Decl@$05@idCmdSystem@@SAXABVidCmdArgs@@P6AXPBD@Z@Z 1010e530 f i SysCmds.obj
 0001:0010d550       ??$ArgCompletion_Decl@$01@idCmdSystem@@SAXABVidCmdArgs@@P6AXPBD@Z@Z 1010e550 f i SysCmds.obj
 0001:0010d570       ?Cmd_EntityList_f@@YAXABVidCmdArgs@@@Z 1010e570 f   SysCmds.obj
 0001:0010d6c0       ?Cmd_ActiveEntityList_f@@YAXABVidCmdArgs@@@Z 1010e6c0 f   SysCmds.obj
 0001:0010d780       ?Cmd_ReloadScript_f@@YAXABVidCmdArgs@@@Z 1010e780 f   SysCmds.obj
 0001:0010d900       ?Cmd_Script_f@@YAXABVidCmdArgs@@@Z 1010e900 f   SysCmds.obj
 0001:0010da80       ?Cmd_Give_f@@YAXABVidCmdArgs@@@Z 1010ea80 f   SysCmds.obj
 0001:0010df40       ?Cmd_CenterView_f@@YAXABVidCmdArgs@@@Z 1010ef40 f   SysCmds.obj
 0001:0010dfa0       ?Cmd_Kill_f@@YAXABVidCmdArgs@@@Z 1010efa0 f   SysCmds.obj
 0001:0010e0c0       ?Cmd_PlayerModel_f@@YAXABVidCmdArgs@@@Z 1010f0c0 f   SysCmds.obj
 0001:0010e2a0       ?Cmd_GetViewpos_f@@YAXABVidCmdArgs@@@Z 1010f2a0 f   SysCmds.obj
 0001:0010e320       ?Cmd_SetViewpos_f@@YAXABVidCmdArgs@@@Z 1010f320 f   SysCmds.obj
 0001:0010e420       ?Cmd_Teleport_f@@YAXABVidCmdArgs@@@Z 1010f420 f   SysCmds.obj
 0001:0010e510       ?Cmd_Trigger_f@@YAXABVidCmdArgs@@@Z 1010f510 f   SysCmds.obj
 0001:0010e5b0       ?Cmd_Damage_f@@YAXABVidCmdArgs@@@Z 1010f5b0 f   SysCmds.obj
 0001:0010e680       ?Cmd_Remove_f@@YAXABVidCmdArgs@@@Z 1010f680 f   SysCmds.obj
 0001:0010e6f0       ?Cmd_PopLight_f@@YAXABVidCmdArgs@@@Z 1010f6f0 f   SysCmds.obj
 0001:0010e800       ?Cmd_ClearLights_f@@YAXABVidCmdArgs@@@Z 1010f800 f   SysCmds.obj
 0001:0010ec00       ?D_DrawDebugLines@@YAXXZ   1010fc00 f   SysCmds.obj
 0001:0010f150       ??1idObjectiveInfo@@QAE@XZ 10110150 f i Player.obj
 0001:0010f150       ??1idModelExport@@QAE@XZ   10110150 f i SysCmds.obj
 0001:0010f660       ?FindEntityGUIs@@YA_NPAVidEntity@@PAPBUmodelSurface_s@@HAAH@Z 10110660 f   SysCmds.obj
 0001:0010f6f0       ?Cmd_NextGUI_f@@YAXABVidCmdArgs@@@Z 101106f0 f   SysCmds.obj
 0001:0010fc80       ?Cmd_SetActorState_f@@YAXABVidCmdArgs@@@Z 10110c80 f   SysCmds.obj
 0001:0010fd30       ?Cmd_ListSpawnArgs_f@@YAXABVidCmdArgs@@@Z 10110d30 f   SysCmds.obj
 0001:00110cb0       ?Cmd_TestId_f@@YAXABVidCmdArgs@@@Z 10111cb0 f   SysCmds.obj
 0001:00110eb0       ?KillEntities@@YAXABVidCmdArgs@@ABVidTypeInfo@@@Z 10111eb0 f   SysCmds.obj
 0001:00111320       ?Cmd_KillMonsters_f@@YAXABVidCmdArgs@@@Z 10112320 f   SysCmds.obj
 0001:00111340       ?Cmd_KillMovables_f@@YAXABVidCmdArgs@@@Z 10112340 f   SysCmds.obj
 0001:00111380       ?Cmd_KillRagdolls_f@@YAXABVidCmdArgs@@@Z 10112380 f   SysCmds.obj
 0001:001113c0       ?Cmd_Spawn_f@@YAXABVidCmdArgs@@@Z 101123c0 f   SysCmds.obj
 0001:00111750       ?Cmd_TestLight_f@@YAXABVidCmdArgs@@@Z 10112750 f   SysCmds.obj
 0001:00111c00       ?Cmd_TestPointLight_f@@YAXABVidCmdArgs@@@Z 10112c00 f   SysCmds.obj
 0001:00111ec0       ?Cmd_TestFx_f@@YAXABVidCmdArgs@@@Z 10112ec0 f   SysCmds.obj
 0001:00113540       ?InitConsoleCommands@idGameLocal@@AAEXXZ 10114540 f   SysCmds.obj
 0001:001140c0       ?ArgCompletion_MapName@idCmdSystem@@SAXABVidCmdArgs@@P6AXPBD@Z@Z 101150c0 f i SysCvar.obj
 0001:001140f0       ??$ArgCompletion_String@$1?si_gameTypeArgs@@3PAPBDA@idCmdSystem@@SAXABVidCmdArgs@@P6AXPBD@Z@Z 101150f0 f i SysCvar.obj
 0001:00114140       ??$ArgCompletion_String@$1?ui_skinArgs@@3PAPBDA@idCmdSystem@@SAXABVidCmdArgs@@P6AXPBD@Z@Z 10115140 f i SysCvar.obj
 0001:00114190       ??$ArgCompletion_String@$1?ui_teamArgs@@3PAPBDA@idCmdSystem@@SAXABVidCmdArgs@@P6AXPBD@Z@Z 10115190 f i SysCvar.obj
 0001:001141e0       ??$ArgCompletion_String@$1?si_readyArgs@@3PAPBDA@idCmdSystem@@SAXABVidCmdArgs@@P6AXPBD@Z@Z 101151e0 f i SysCvar.obj
 0001:00114230       ??$ArgCompletion_String@$1?si_spectateArgs@@3PAPBDA@idCmdSystem@@SAXABVidCmdArgs@@P6AXPBD@Z@Z 10115230 f i SysCvar.obj
 0001:00114280       ??$ArgCompletion_Integer@$0A@$06@idCmdSystem@@SAXABVidCmdArgs@@P6AXPBD@Z@Z 10115280 f i SysCvar.obj
 0001:001142c0       ??$ArgCompletion_Integer@$0A@$03@idCmdSystem@@SAXABVidCmdArgs@@P6AXPBD@Z@Z 101152c0 f i SysCvar.obj
 0001:00114300       ?FindClassInfo@idTypeInfoTools@@SAPBUclassTypeInfo_t@@PBD@Z 10115300 f   TypeInfo.obj
 0001:00114350       ?FindEnumInfo@idTypeInfoTools@@SAPBUenumTypeInfo_t@@PBD@Z 10115350 f   TypeInfo.obj
 0001:001143a0       ?IsSubclassOf@idTypeInfoTools@@SA_NPBD0@Z 101153a0 f   TypeInfo.obj
 0001:00114440       ?OutputString@idTypeInfoTools@@SAPBDPBD@Z 10115440 f   TypeInfo.obj
 0001:00114550       ?IsAllowedToChangedFromSaveGames@@YA_NPBD00000@Z 10115550 f   TypeInfo.obj
 0001:001146b0       ?IsRenderHandleVariable@@YA_NPBD00000@Z 101156b0 f   TypeInfo.obj
 0001:001148b0       ?WriteGameStateVariable@idTypeInfoTools@@SAXPBD00000PBXH@Z 101158b0 f   TypeInfo.obj
 0001:001149f0       ?TestSaveGame_f@@YAXABVidCmdArgs@@@Z 101159f0 f   TypeInfo.obj
 0001:00114b30       ?SortTypeInfoByName@@YAHPBH0@Z 10115b30 f   TypeInfo.obj
 0001:00114b60       ?SortTypeInfoBySize@@YAHPBH0@Z 10115b60 f   TypeInfo.obj
 0001:00114b90       ?ParseTemplateArguments@idTypeInfoTools@@SA_NAAVidLexer@@AAVidStr@@@Z 10115b90 f   TypeInfo.obj
 0001:00114d20       ?WriteVariable_r@idTypeInfoTools@@SAHPBXPBD111H@Z 10115d20 f   TypeInfo.obj
 0001:00118960       ?WriteClass_r@idTypeInfoTools@@SAXPBXPBD111H@Z 10119960 f   TypeInfo.obj
 0001:001189f0       ?WriteGameState@idTypeInfoTools@@SAXPBD@Z 101199f0 f   TypeInfo.obj
 0001:00118af0       ?WriteGameState_f@@YAXABVidCmdArgs@@@Z 10119af0 f   TypeInfo.obj
 0001:00118b80       ?ListTypeInfo_f@@YAXABVidCmdArgs@@@Z 10119b80 f   TypeInfo.obj
 0001:00118dc0       ?Save@idClipModel@@QBEXPAVidSaveGame@@@Z 10119dc0 f   Clip.obj
 0001:00118ea0       ?CheckModel@idClipModel@@SAHPBD@Z 10119ea0 f   Clip.obj
 0001:00118ec0       ?PrintStatistics@idClip@@QAEXXZ 10119ec0 f   Clip.obj
 0001:00118f30       ?Shutdown@?$idBlockAlloc@UclipLink_s@@$0EAA@@@QAEXXZ 10119f30 f i Clip.obj
 0001:00118f80       ?Alloc@?$idBlockAlloc@UclipLink_s@@$0EAA@@@QAEPAUclipLink_s@@XZ 10119f80 f i Clip.obj
 0001:00118ff0       ?GetCachedTraceModel@idClipModel@@CAPAVidTraceModel@@H@Z 10119ff0 f   Clip.obj
 0001:00119000       ?SaveTraceModels@idClipModel@@SAXPAVidSaveGame@@@Z 1011a000 f   Clip.obj
 0001:00119070       ?LoadModel@idClipModel@@QAE_NPBD@Z 1011a070 f   Clip.obj
 0001:00119130       ?LoadModel@idClipModel@@QAEXH@Z 1011a130 f   Clip.obj
 0001:001191e0       ?Handle@idClipModel@@QBEHXZ 1011a1e0 f   Clip.obj
 0001:00119240       ?GetMassProperties@idClipModel@@QBEXMAAMAAVidVec3@@AAVidMat3@@@Z 1011a240 f   Clip.obj
 0001:00119360       ?Unlink@idClipModel@@QAEXXZ 1011a360 f   Clip.obj
 0001:001193c0       ?Link_r@idClipModel@@AAEXPAUclipSector_s@@@Z 1011a3c0 f   Clip.obj
 0001:00119450       ?Link@idClipModel@@QAEXAAVidClip@@@Z 1011a450 f   Clip.obj
 0001:00119610       ?Link@idClipModel@@QAEXAAVidClip@@PAVidEntity@@HABVidVec3@@ABVidMat3@@H@Z 1011a610 f   Clip.obj
 0001:001196d0       ?CreateClipSectors_r@idClip@@AAEPAUclipSector_s@@HABVidBounds@@AAVidVec3@@@Z 1011a6d0 f   Clip.obj
 0001:00119880       ?Shutdown@idClip@@QAEXXZ   1011a880 f   Clip.obj
 0001:00119950       ?ClipModelsTouchingBounds_r@idClip@@ABEXPBUclipSector_s@@AAUlistParms_s@@@Z 1011a950 f   Clip.obj
 0001:00119a70       ?TraceModelForClipModel@idClip@@ABEPBVidTraceModel@@PBVidClipModel@@@Z 1011aa70 f   Clip.obj
 0001:00119ae0       ??4idRotation@@QAEAAV0@ABV0@@Z 1011aae0 f i Clip.obj
 0001:00119b50       ?TranslationModel@idClip@@QAEXAAUtrace_s@@ABVidVec3@@1PBVidClipModel@@ABVidMat3@@HH13@Z 1011ab50 f   Clip.obj
 0001:00119ba0       ?RotationModel@idClip@@QAEXAAUtrace_s@@ABVidVec3@@ABVidRotation@@PBVidClipModel@@ABVidMat3@@HH14@Z 1011aba0 f   Clip.obj
 0001:00119bf0       ?ContentsModel@idClip@@QAEHABVidVec3@@PBVidClipModel@@ABVidMat3@@HH02@Z 1011abf0 f   Clip.obj
 0001:00119c40       ?ClearTraceModelCache@idClipModel@@SAXXZ 1011ac40 f   Clip.obj
 0001:00119cc0       ?RestoreTraceModels@idClipModel@@SAXPAVidRestoreGame@@@Z 1011acc0 f   Clip.obj
 0001:00119ed0       ?Init@idClipModel@@AAEXXZ  1011aed0 f   Clip.obj
 0001:00119f90       ??0idClipModel@@QAE@XZ     1011af90 f   Clip.obj
 0001:00119fa0       ??0idClipModel@@QAE@PBD@Z  1011afa0 f   Clip.obj
 0001:00119fc0       ??0idClipModel@@QAE@H@Z    1011afc0 f   Clip.obj
 0001:00119fe0       ??1idClipModel@@QAE@XZ     1011afe0 f   Clip.obj
 0001:0011a030       ?Restore@idClipModel@@QAEXPAVidRestoreGame@@@Z 1011b030 f   Clip.obj
 0001:0011a1c0       ?SetPosition@idClipModel@@QAEXABVidVec3@@ABVidMat3@@@Z 1011b1c0 f   Clip.obj
 0001:0011a220       ??0idClip@@QAE@XZ          1011b220 f   Clip.obj
 0001:0011a280       ?ClipModelsTouchingBounds@idClip@@QBEHABVidBounds@@HPAPAVidClipModel@@H@Z 1011b280 f   Clip.obj
 0001:0011a390       ?EntitiesTouchingBounds@idClip@@QBEHABVidBounds@@HPAPAVidEntity@@H@Z 1011b390 f   Clip.obj
 0001:0011a440       ?GetTraceClipModels@idClip@@ABEHABVidBounds@@HPBVidEntity@@PAPAVidClipModel@@@Z 1011b440 f   Clip.obj
 0001:0011a4e0       ?TraceRenderModel@idClip@@ABEXAAUtrace_s@@ABVidVec3@@1MABVidMat3@@PAVidClipModel@@@Z 1011b4e0 f   Clip.obj
 0001:0011a660       ?TranslationEntities@idClip@@QAEXAAUtrace_s@@ABVidVec3@@1PBVidClipModel@@ABVidMat3@@HPBVidEntity@@@Z 1011b660 f   Clip.obj
 0001:0011a9b0       ?Translation@idClip@@QAE_NAAUtrace_s@@ABVidVec3@@1PBVidClipModel@@ABVidMat3@@HPBVidEntity@@@Z 1011b9b0 f   Clip.obj
 0001:0011ad80       ?Rotation@idClip@@QAE_NAAUtrace_s@@ABVidVec3@@ABVidRotation@@PBVidClipModel@@ABVidMat3@@HPBVidEntity@@@Z 1011bd80 f   Clip.obj
 0001:0011b110       ?Motion@idClip@@QAE_NAAUtrace_s@@ABVidVec3@@1ABVidRotation@@PBVidClipModel@@ABVidMat3@@HPBVidEntity@@@Z 1011c110 f   Clip.obj
 0001:0011bb70       ?Contacts@idClip@@QAEHPAUcontactInfo_t@@HABVidVec3@@ABVidVec6@@MPBVidClipModel@@ABVidMat3@@HPBVidEntity@@@Z 1011cb70 f   Clip.obj
 0001:0011bea0       ?Contents@idClip@@QAEHABVidVec3@@PBVidClipModel@@ABVidMat3@@HPBVidEntity@@@Z 1011cea0 f   Clip.obj
 0001:0011c160       ?DrawClipModels@idClip@@QAEXABVidVec3@@MPBVidEntity@@@Z 1011d160 f   Clip.obj
 0001:0011c310       ?AllocTraceModel@idClipModel@@CAHABVidTraceModel@@@Z 1011d310 f   Clip.obj
 0001:0011c610       ?LoadModel@idClipModel@@QAEXABVidTraceModel@@@Z 1011d610 f   Clip.obj
 0001:0011c6b0       ??0idClipModel@@QAE@ABVidTraceModel@@@Z 1011d6b0 f   Clip.obj
 0001:0011c6d0       ??0idClipModel@@QAE@PBV0@@Z 1011d6d0 f   Clip.obj
 0001:0011c7e0       ?Init@idClip@@QAEXXZ       1011d7e0 f   Clip.obj
 0001:0011c9a0       ?GetType@idForce@@UBEPAVidTypeInfo@@XZ 1011d9a0 f   Force.obj
 0001:0011c9b0       ?DeletePhysics@idForce@@SAXPBVidPhysics@@@Z 1011d9b0 f   Force.obj
 0001:0011c9e0       ?ClearForceList@idForce@@SAXXZ 1011d9e0 f   Force.obj
 0001:0011ca20       ??0idForce@@QAE@XZ         1011da20 f   Force.obj
 0001:0011cbe0       ??1idForce@@UAE@XZ         1011dbe0 f   Force.obj
 0001:0011cc50       ?CreateInstance@idForce@@SAPAVidClass@@XZ 1011dc50 f   Force.obj
 0001:0011ccf0       ??_EidForce@@UAEPAXI@Z     1011dcf0 f i Force.obj
 0001:0011ccf0       ??_GidForce@@UAEPAXI@Z     1011dcf0 f i Force.obj
 0001:0011cd10       ?GetType@idForce_Constant@@UBEPAVidTypeInfo@@XZ 1011dd10 f   Force_Constant.obj
 0001:0011cd20       ??1idForce_Constant@@UAE@XZ 1011dd20 f   Force_Constant.obj
 0001:0011cd30       ?Save@idForce_Constant@@QBEXPAVidSaveGame@@@Z 1011dd30 f   Force_Constant.obj
 0001:0011cd60       ?Restore@idForce_Constant@@QAEXPAVidRestoreGame@@@Z 1011dd60 f   Force_Constant.obj
 0001:0011cd90       ?SetPhysics@idForce_Constant@@QAEXPAVidPhysics@@@Z 1011dd90 f   Force_Constant.obj
 0001:0011cda0       ?RemovePhysics@idForce_Constant@@UAEXPBVidPhysics@@@Z 1011dda0 f   Force_Constant.obj
 0001:0011cdc0       ??0idForce_Constant@@QAE@XZ 1011ddc0 f   Force_Constant.obj
 0001:0011ce10       ??_GidForce_Constant@@UAEPAXI@Z 1011de10 f i Force_Constant.obj
 0001:0011ce10       ??_EidForce_Constant@@UAEPAXI@Z 1011de10 f i Force_Constant.obj
 0001:0011ce40       ?SetPosition@idForce_Constant@@QAEXPAVidPhysics@@HABVidVec3@@@Z 1011de40 f   Force_Constant.obj
 0001:0011ce70       ?SetForce@idForce_Constant@@QAEXABVidVec3@@@Z 1011de70 f   Force_Constant.obj
 0001:0011ce90       ?Evaluate@idForce_Constant@@UAEXH@Z 1011de90 f   Force_Constant.obj
 0001:0011cf70       ?CreateInstance@idForce_Constant@@SAPAVidClass@@XZ 1011df70 f   Force_Constant.obj
 0001:0011d010       ?GetType@idForce_Drag@@UBEPAVidTypeInfo@@XZ 1011e010 f   Force_Drag.obj
 0001:0011d020       ??1idForce_Drag@@UAE@XZ    1011e020 f   Force_Drag.obj
 0001:0011d030       ?Init@idForce_Drag@@QAEXM@Z 1011e030 f   Force_Drag.obj
 0001:0011d030       ?Init@idForce_Grab@@QAEXM@Z 1011e030 f   Force_Grab.obj
 0001:0011d060       ?RemovePhysics@idForce_Drag@@UAEXPBVidPhysics@@@Z 1011e060 f   Force_Drag.obj
 0001:0011d080       ??0idForce_Drag@@QAE@XZ    1011e080 f   Force_Drag.obj
 0001:0011d100       ??_GidForce_Drag@@UAEPAXI@Z 1011e100 f i Force_Drag.obj
 0001:0011d100       ??_EidForce_Drag@@UAEPAXI@Z 1011e100 f i Force_Drag.obj
 0001:0011d130       ?SetPhysics@idForce_Drag@@QAEXPAVidPhysics@@HABVidVec3@@@Z 1011e130 f   Force_Drag.obj
 0001:0011d160       ?SetDragPosition@idForce_Drag@@QAEXABVidVec3@@@Z 1011e160 f   Force_Drag.obj
 0001:0011d180       ?Evaluate@idForce_Drag@@UAEXH@Z 1011e180 f   Force_Drag.obj
 0001:0011d720       ?CreateInstance@idForce_Drag@@SAPAVidClass@@XZ 1011e720 f   Force_Drag.obj
 0001:0011d7c0       ?GetType@idForce_Field@@UBEPAVidTypeInfo@@XZ 1011e7c0 f   Force_Field.obj
 0001:0011d7d0       ?Save@idForce_Field@@QBEXPAVidSaveGame@@@Z 1011e7d0 f   Force_Field.obj
 0001:0011d840       ?Restore@idForce_Field@@QAEXPAVidRestoreGame@@@Z 1011e840 f   Force_Field.obj
 0001:0011d8b0       ?SetClipModel@idForce_Field@@QAEXPAVidClipModel@@@Z 1011e8b0 f   Force_Field.obj
 0001:0011d8f0       ?Explosion@idForce_Field@@QAEXM@Z 1011e8f0 f   Force_Field.obj
 0001:0011d910       ?Implosion@idForce_Field@@QAEXM@Z 1011e910 f   Force_Field.obj
 0001:0011d930       ?RandomTorque@idForce_Field@@QAEXM@Z 1011e930 f   Force_Field.obj
 0001:0011d940       ??0idForce_Field@@QAE@XZ   1011e940 f   Force_Field.obj
 0001:0011d980       ??1idForce_Field@@UAE@XZ   1011e980 f   Force_Field.obj
 0001:0011d9f0       ?Uniform@idForce_Field@@QAEXABVidVec3@@@Z 1011e9f0 f   Force_Field.obj
 0001:0011dac0       ?Evaluate@idForce_Field@@UAEXH@Z 1011eac0 f   Force_Field.obj
 0001:0011e390       ?CreateInstance@idForce_Field@@SAPAVidClass@@XZ 1011f390 f   Force_Field.obj
 0001:0011e450       ??_EidForce_Field@@UAEPAXI@Z 1011f450 f i Force_Field.obj
 0001:0011e450       ??_GidForce_Field@@UAEPAXI@Z 1011f450 f i Force_Field.obj
 0001:0011e4d0       ?GetType@idForce_Grab@@UBEPAVidTypeInfo@@XZ 1011f4d0 f   Force_Grab.obj
 0001:0011e4e0       ?Save@idForce_Grab@@QBEXPAVidSaveGame@@@Z 1011f4e0 f   Force_Grab.obj
 0001:0011e520       ?Restore@idForce_Grab@@QAEXPAVidRestoreGame@@@Z 1011f520 f   Force_Grab.obj
 0001:0011e560       ??1idForce_Grab@@UAE@XZ    1011f560 f   Force_Grab.obj
 0001:0011e570       ?GetDistanceToGoal@idForce_Grab@@QAEMXZ 1011f570 f   Force_Grab.obj
 0001:0011e580       ?RemovePhysics@idForce_Grab@@UAEXPBVidPhysics@@@Z 1011f580 f   Force_Grab.obj
 0001:0011e5a0       ??0idForce_Grab@@QAE@XZ    1011f5a0 f   Force_Grab.obj
 0001:0011e5d0       ??_GidForce_Grab@@UAEPAXI@Z 1011f5d0 f i Force_Grab.obj
 0001:0011e5d0       ??_EidForce_Grab@@UAEPAXI@Z 1011f5d0 f i Force_Grab.obj
 0001:0011e600       ?SetPhysics@idForce_Grab@@QAEXPAVidPhysics@@HABVidVec3@@@Z 1011f600 f   Force_Grab.obj
 0001:0011e630       ?SetGoalPosition@idForce_Grab@@QAEXABVidVec3@@@Z 1011f630 f   Force_Grab.obj
 0001:0011e650       ?Evaluate@idForce_Grab@@UAEXH@Z 1011f650 f   Force_Grab.obj
 0001:0011ea80       ?CreateInstance@idForce_Grab@@SAPAVidClass@@XZ 1011fa80 f   Force_Grab.obj
 0001:0011eb30       ?GetType@idForce_Spring@@UBEPAVidTypeInfo@@XZ 1011fb30 f   Force_Spring.obj
 0001:0011eb40       ??1idForce_Spring@@UAE@XZ  1011fb40 f   Force_Spring.obj
 0001:0011eb50       ?InitSpring@idForce_Spring@@QAEXMMMM@Z 1011fb50 f   Force_Spring.obj
 0001:0011eb70       ?RemovePhysics@idForce_Spring@@UAEXPBVidPhysics@@@Z 1011fb70 f   Force_Spring.obj
 0001:0011eb90       ??0idForce_Spring@@QAE@XZ  1011fb90 f   Force_Spring.obj
 0001:0011ec00       ??_GidForce_Spring@@UAEPAXI@Z 1011fc00 f i Force_Spring.obj
 0001:0011ec00       ??_EidForce_Spring@@UAEPAXI@Z 1011fc00 f i Force_Spring.obj
 0001:0011ec30       ?SetPosition@idForce_Spring@@QAEXPAVidPhysics@@HABVidVec3@@0H1@Z 1011fc30 f   Force_Spring.obj
 0001:0011ec80       ?CreateInstance@idForce_Spring@@SAPAVidClass@@XZ 1011fc80 f   Force_Spring.obj
 0001:0011ed20       ?Evaluate@idForce_Spring@@UAEXH@Z 1011fd20 f   Force_Spring.obj
 0001:0011f370       ?CreateInstance@idPhysics@@SAPAVidClass@@XZ 10120370 f   Physics.obj
 0001:0011f390       ?GetType@idPhysics@@UBEPAVidTypeInfo@@XZ 10120390 f   Physics.obj
 0001:0011f3a0       ??1idPhysics@@UAE@XZ       101203a0 f   Physics.obj
 0001:0011f3b0       ??_GidPhysics@@UAEPAXI@Z   101203b0 f i Physics.obj
 0001:0011f3b0       ??_EidPhysics@@UAEPAXI@Z   101203b0 f i Physics.obj
 0001:0011f3e0       ?SnapTimeToPhysicsFrame@idPhysics@@SAHH@Z 101203e0 f   Physics.obj
 0001:0011f400       ?SetClipBox@idPhysics@@UAEXABVidBounds@@M@Z 10120400 f   Physics.obj
 0001:0011f4b0       ?GetType@idPhysics_AF@@UBEPAVidTypeInfo@@XZ 101204b0 f   Physics_AF.obj
 0001:0011f4c0       ?SetBody1@idAFConstraint@@UAEXPAVidAFBody@@@Z 101204c0 f   Physics_AF.obj
 0001:0011f4e0       ?SetBody2@idAFConstraint@@UAEXPAVidAFBody@@@Z 101204e0 f   Physics_AF.obj
 0001:0011f500       ?Save@idAFConstraint@@UBEXPAVidSaveGame@@@Z 10120500 f   Physics_AF.obj
 0001:0011f510       ?Restore@idAFConstraint@@UAEXPAVidRestoreGame@@@Z 10120510 f   Physics_AF.obj
 0001:0011f530       ?DebugDraw@idAFConstraint_Fixed@@UAEXXZ 10120530 f   Physics_AF.obj
 0001:0011f5a0       ?Save@idAFConstraint_Fixed@@UBEXPAVidSaveGame@@@Z 101205a0 f   Physics_AF.obj
 0001:0011f5e0       ?Restore@idAFConstraint_Fixed@@UAEXPAVidRestoreGame@@@Z 101205e0 f   Physics_AF.obj
 0001:0011f620       ?SetNoLimit@idAFConstraint_BallAndSocketJoint@@QAEXXZ 10120620 f   Physics_AF.obj
 0001:0011f660       ?Save@idAFConstraint_BallAndSocketJoint@@UBEXPAVidSaveGame@@@Z 10120660 f   Physics_AF.obj
 0001:0011f6e0       ?Restore@idAFConstraint_BallAndSocketJoint@@UAEXPAVidRestoreGame@@@Z 101206e0 f   Physics_AF.obj
 0001:0011f760       ?SetNoLimit@idAFConstraint_UniversalJoint@@QAEXXZ 10120760 f   Physics_AF.obj
 0001:0011f7a0       ?Translate@idAFConstraint_UniversalJoint@@UAEXABVidVec3@@@Z 101207a0 f   Physics_AF.obj
 0001:0011f810       ?Save@idAFConstraint_UniversalJoint@@UBEXPAVidSaveGame@@@Z 10120810 f   Physics_AF.obj
 0001:0011f8c0       ?Restore@idAFConstraint_UniversalJoint@@UAEXPAVidRestoreGame@@@Z 101208c0 f   Physics_AF.obj
 0001:0011f970       ??1idVecX@@QAE@XZ          10120970 f i Physics_AF.obj
 0001:0011f9a0       ?SetNoLimit@idAFConstraint_Hinge@@QAEXXZ 101209a0 f   Physics_AF.obj
 0001:0011f9d0       ?SetSteerSpeed@idAFConstraint_Hinge@@QAEXM@Z 101209d0 f   Physics_AF.obj
 0001:0011f9f0       ?Translate@idAFConstraint_Hinge@@UAEXABVidVec3@@@Z 101209f0 f   Physics_AF.obj
 0001:0011fa50       ?Save@idAFConstraint_Hinge@@UBEXPAVidSaveGame@@@Z 10120a50 f   Physics_AF.obj
 0001:0011fb40       ?Save@idAFConstraint_HingeSteering@@UBEXPAVidSaveGame@@@Z 10120b40 f   Physics_AF.obj
 0001:0011fb80       ?Restore@idAFConstraint_HingeSteering@@UAEXPAVidRestoreGame@@@Z 10120b80 f   Physics_AF.obj
 0001:0011fbc0       ?GetCenter@idAFConstraint_Slider@@UAEXAAVidVec3@@@Z 10120bc0 f   Physics_AF.obj
 0001:0011fd00       ?DebugDraw@idAFConstraint_Slider@@UAEXXZ 10120d00 f   Physics_AF.obj
 0001:0011fee0       ?Save@idAFConstraint_Slider@@UBEXPAVidSaveGame@@@Z 10120ee0 f   Physics_AF.obj
 0001:0011ff30       ?Restore@idAFConstraint_Slider@@UAEXPAVidRestoreGame@@@Z 10120f30 f   Physics_AF.obj
 0001:0011ff80       ?SetAnchor@idAFConstraint_Spring@@QAEXABVidVec3@@0@Z 10120f80 f   Physics_AF.obj
 0001:00120170       ?SetSpring@idAFConstraint_Spring@@QAEXMMMM@Z 10121170 f   Physics_AF.obj
 0001:001201a0       ?SetLimit@idAFConstraint_Spring@@QAEXMM@Z 101211a0 f   Physics_AF.obj
 0001:001201c0       ?Translate@idAFConstraint_Spring@@UAEXABVidVec3@@@Z 101211c0 f   Physics_AF.obj
 0001:001201c0       ?Translate@idAFConstraint_Slider@@UAEXABVidVec3@@@Z 101211c0 f   Physics_AF.obj
 0001:00120200       ?GetCenter@idAFConstraint_Spring@@UAEXAAVidVec3@@@Z 10121200 f   Physics_AF.obj
 0001:001203d0       ?DebugDraw@idAFConstraint_Spring@@UAEXXZ 101213d0 f   Physics_AF.obj
 0001:00120a60       ?Save@idAFConstraint_Spring@@UBEXPAVidSaveGame@@@Z 10121a60 f   Physics_AF.obj
 0001:00120b00       ?Restore@idAFConstraint_Spring@@UAEXPAVidRestoreGame@@@Z 10121b00 f   Physics_AF.obj
 0001:00120b90       ?GetCenter@idAFConstraint_Contact@@UAEXAAVidVec3@@@Z 10121b90 f   Physics_AF.obj
 0001:00120bc0       ?DebugDraw@idAFConstraint_Contact@@UAEXXZ 10121bc0 f   Physics_AF.obj
 0001:00120ec0       ?Setup@idAFConstraint_ConeLimit@@QAEXPAVidAFBody@@0ABVidVec3@@1M1@Z 10121ec0 f   Physics_AF.obj
 0001:00121120       ?DebugDraw@idAFConstraint_ConeLimit@@UAEXXZ 10122120 f   Physics_AF.obj
 0001:001217c0       ?Save@idAFConstraint_ConeLimit@@UBEXPAVidSaveGame@@@Z 101227c0 f   Physics_AF.obj
 0001:00121850       ?Restore@idAFConstraint_ConeLimit@@UAEXPAVidRestoreGame@@@Z 10122850 f   Physics_AF.obj
 0001:001218d0       ?Setup@idAFConstraint_PyramidLimit@@QAEXPAVidAFBody@@0ABVidVec3@@11MM1@Z 101228d0 f   Physics_AF.obj
 0001:00121cd0       ?Translate@idAFConstraint_Fixed@@UAEXABVidVec3@@@Z 10122cd0 f   Physics_AF.obj
 0001:00121cd0       ?Translate@idAFConstraint_PyramidLimit@@UAEXABVidVec3@@@Z 10122cd0 f   Physics_AF.obj
 0001:00121cd0       ?Translate@idAFConstraint_ConeLimit@@UAEXABVidVec3@@@Z 10122cd0 f   Physics_AF.obj
 0001:00121d10       ?Save@idAFConstraint_PyramidLimit@@UBEXPAVidSaveGame@@@Z 10122d10 f   Physics_AF.obj
 0001:00121dd0       ?Restore@idAFConstraint_PyramidLimit@@UAEXPAVidRestoreGame@@@Z 10122dd0 f   Physics_AF.obj
 0001:00121e80       ?Setup@idAFConstraint_Suspension@@QAEXPBDPAVidAFBody@@ABVidVec3@@ABVidMat3@@PAVidClipModel@@@Z 10122e80 f   Physics_AF.obj
 0001:00122140       ?SetSuspension@idAFConstraint_Suspension@@QAEXMMMMM@Z 10123140 f   Physics_AF.obj
 0001:00122180       ?GetWheelOrigin@idAFConstraint_Suspension@@QBE?BVidVec3@@XZ 10123180 f   Physics_AF.obj
 0001:00122220       ??4AFBodyPState_s@@QAEAAU0@ABU0@@Z 10123220 f i Physics_AF.obj
 0001:001222c0       ?Init@idAFBody@@QAEXXZ     101232c0 f   Physics_AF.obj
 0001:001227f0       ?SetClipModel@idAFBody@@QAEXPAVidClipModel@@@Z 101237f0 f   Physics_AF.obj
 0001:00122830       ?SetFriction@idAFBody@@QAEXMMM@Z 10123830 f   Physics_AF.obj
 0001:001228c0       ??1idMatX@@QAE@XZ          101238c0 f i Physics_AF.obj
 0001:001228f0       ?SetFrictionDirection@idAFBody@@QAEXABVidVec3@@@Z 101238f0 f   Physics_AF.obj
 0001:001229b0       ?GetFrictionDirection@idAFBody@@QBE_NAAVidVec3@@@Z 101239b0 f   Physics_AF.obj
 0001:00122a40       ?SetContactMotorDirection@idAFBody@@QAEXABVidVec3@@@Z 10123a40 f   Physics_AF.obj
 0001:00122b00       ?GetContactMotorDirection@idAFBody@@QBE_NAAVidVec3@@@Z 10123b00 f   Physics_AF.obj
 0001:00122b90       ?GetPointVelocity@idAFBody@@QBE?AVidVec3@@ABV2@@Z 10123b90 f   Physics_AF.obj
 0001:00122c30       ??DidMatX@@QBE?AVidVecX@@ABV1@@Z 10123c30 f i Physics_AF.obj
 0001:00122cf0       ?AddForce@idAFBody@@QAEXABVidVec3@@0@Z 10123cf0 f   Physics_AF.obj
 0001:00122da0       ?Save@idAFBody@@QAEXPAVidSaveGame@@@Z 10123da0 f   Physics_AF.obj
 0001:00122ed0       ?Restore@idAFBody@@QAEXPAVidRestoreGame@@@Z 10123ed0 f   Physics_AF.obj
 0001:00122ff0       ?Transpose@idMatX@@QBE?AV1@XZ 10123ff0 f i Physics_AF.obj
 0001:001230c0       ?TransposeMultiply@idMatX@@QBE?AV1@ABV1@@Z 101240c0 f i Physics_AF.obj
 0001:001231b0       ?SetSuspendSpeed@idPhysics_AF@@QAEXABVidVec2@@0@Z 101241b0 f   Physics_AF.obj
 0001:001231e0       ?SetSuspendTime@idPhysics_AF@@QAEXMM@Z 101241e0 f   Physics_AF.obj
 0001:00123200       ?SetSuspendTolerance@idPhysics_AF@@QAEXMMM@Z 10124200 f   Physics_AF.obj
 0001:00123230       ?SetTimeScaleRamp@idPhysics_AF@@QAEXMM@Z 10124230 f   Physics_AF.obj
 0001:00123250       ?SetJointFrictionDent@idPhysics_AF@@QAEXMMM@Z 10124250 f   Physics_AF.obj
 0001:00123280       ?SetContactFrictionDent@idPhysics_AF@@QAEXMMM@Z 10124280 f   Physics_AF.obj
 0001:001232b0       ?EnableImpact@idPhysics_AF@@QAEXXZ 101242b0 f   Physics_AF.obj
 0001:001232c0       ?SetClipModel@idPhysics_AF@@UAEXPAVidClipModel@@MH_N@Z 101242c0 f   Physics_AF.obj
 0001:001232c0       ?SetClipModel@idPhysics_Base@@UAEXPAVidClipModel@@MH_N@Z 101242c0 f   Physics_Base.obj
 0001:001232d0       ?GetTime@idPhysics_Player@@UBEHXZ 101242d0 f   Physics_Player.obj
 0001:001232d0       ?GetTime@idPhysics_RigidBody@@UBEHXZ 101242d0 f   Physics_RigidBody.obj
 0001:001232d0       ?GetTime@idPhysics_AF@@UBEHXZ 101242d0 f   Physics_AF.obj
 0001:001232d0       ?GetTime@idPhysics_Monster@@UBEHXZ 101242d0 f   Physics_Monster.obj
 0001:001232e0       ?SetDefaultFriction@idPhysics_AF@@QAEXMMM@Z 101242e0 f   Physics_AF.obj
 0001:00123350       ?IsAtRest@idPhysics_AF@@UBE_NXZ 10124350 f   Physics_AF.obj
 0001:00123360       ?GetRestStartTime@idPhysics_AF@@UBEHXZ 10124360 f   Physics_AF.obj
 0001:00123370       ?IsPushable@idPhysics_AF@@UBE_NXZ 10124370 f   Physics_AF.obj
 0001:001233a0       ?GetPushedLinearVelocity@idPhysics_AF@@UBEABVidVec3@@H@Z 101243a0 f   Physics_AF.obj
 0001:001233b0       ?GetPushedAngularVelocity@idPhysics_AF@@UBEABVidVec3@@H@Z 101243b0 f   Physics_AF.obj
 0001:001233c0       ?GetInverseWorldInertia@idAFBody@@QBE?AVidMat3@@XZ 101243c0 f i Physics_AF.obj
 0001:00123680       ??0idAFConstraint@@QAE@XZ  10124680 f   Physics_AF.obj
 0001:00123a00       ??1idAFConstraint@@UAE@XZ  10124a00 f   Physics_AF.obj
 0001:00123c70       ?GetForce@idAFConstraint@@UAEXPAVidAFBody@@AAVidVec6@@@Z 10124c70 f   Physics_AF.obj
 0001:00123d90       ?GetCenter@idAFConstraint@@UAEXAAVidVec3@@@Z 10124d90 f   Physics_AF.obj
 0001:00123db0       ?InitSize@idAFConstraint@@IAEXH@Z 10124db0 f   Physics_AF.obj
 0001:00124080       ?InitOffset@idAFConstraint_Fixed@@IAEXXZ 10125080 f   Physics_AF.obj
 0001:001243b0       ?SetBody1@idAFConstraint_Fixed@@UAEXPAVidAFBody@@@Z 101253b0 f   Physics_AF.obj
 0001:001243e0       ?SetBody2@idAFConstraint_Fixed@@UAEXPAVidAFBody@@@Z 101253e0 f   Physics_AF.obj
 0001:00124410       ?Rotate@idAFConstraint_Fixed@@UAEXABVidRotation@@@Z 10125410 f   Physics_AF.obj
 0001:001246a0       ?GetCenter@idAFConstraint_Fixed@@UAEXAAVidVec3@@@Z 101256a0 f   Physics_AF.obj
 0001:001246c0       ?SetAnchor@idAFConstraint_BallAndSocketJoint@@QAEXABVidVec3@@@Z 101256c0 f   Physics_AF.obj
 0001:00124900       ?GetAnchor@idAFConstraint_Hinge@@QBE?AVidVec3@@XZ 10125900 f   Physics_AF.obj
 0001:00124900       ?GetAnchor@idAFConstraint_BallAndSocketJoint@@QBE?AVidVec3@@XZ 10125900 f   Physics_AF.obj
 0001:00124900       ?GetAnchor@idAFConstraint_UniversalJoint@@QBE?AVidVec3@@XZ 10125900 f   Physics_AF.obj
 0001:001249d0       ?Translate@idAFConstraint_BallAndSocketJoint@@UAEXABVidVec3@@@Z 101259d0 f   Physics_AF.obj
 0001:00124a40       ?Rotate@idAFConstraint_BallAndSocketJoint@@UAEXABVidRotation@@@Z 10125a40 f   Physics_AF.obj
 0001:00124b70       ?DebugDraw@idAFConstraint_BallAndSocketJoint@@UAEXXZ 10125b70 f   Physics_AF.obj
 0001:00124db0       ??0idAFConstraint_BallAndSocketJointFriction@@QAE@XZ 10125db0 f   Physics_AF.obj
 0001:00124e30       ??1idAFConstraint_UniversalJoint@@UAE@XZ 10125e30 f   Physics_AF.obj
 0001:00124eb0       ?SetAnchor@idAFConstraint_UniversalJoint@@QAEXABVidVec3@@@Z 10125eb0 f   Physics_AF.obj
 0001:001250f0       ?SetShafts@idAFConstraint_UniversalJoint@@QAEXABVidVec3@@0@Z 101260f0 f   Physics_AF.obj
 0001:00125950       ?Rotate@idAFConstraint_UniversalJoint@@UAEXABVidRotation@@@Z 10126950 f   Physics_AF.obj
 0001:00125b80       ?DebugDraw@idAFConstraint_UniversalJoint@@UAEXXZ 10126b80 f   Physics_AF.obj
 0001:001264a0       ??0idAFConstraint_UniversalJointFriction@@QAE@XZ 101274a0 f   Physics_AF.obj
 0001:00126520       ??1idAFConstraint_Hinge@@UAE@XZ 10127520 f   Physics_AF.obj
 0001:001265a0       ?SetAnchor@idAFConstraint_Hinge@@QAEXABVidVec3@@@Z 101275a0 f   Physics_AF.obj
 0001:001267b0       ??HidVecX@@QBE?AV0@ABV0@@Z 101277b0 f i Physics_AF.obj
 0001:00126880       ?SetAxis@idAFConstraint_Hinge@@QAEXABVidVec3@@@Z 10127880 f   Physics_AF.obj
 0001:00126af0       ??DidVecX@@QBE?AV0@M@Z     10127af0 f i Physics_AF.obj
 0001:00126bc0       ??D@YA?AVidVecX@@MV0@@Z    10127bc0 f i Physics_AF.obj
 0001:00126c50       ?GetAngle@idAFConstraint_Hinge@@QBEMXZ 10127c50 f   Physics_AF.obj
 0001:00127000       ?GetForce@idAFConstraint_Hinge@@UAEXPAVidAFBody@@AAVidVec6@@@Z 10128000 f   Physics_AF.obj
 0001:00127000       ?GetForce@idAFConstraint_BallAndSocketJoint@@UAEXPAVidAFBody@@AAVidVec6@@@Z 10128000 f   Physics_AF.obj
 0001:00127000       ?GetForce@idAFConstraint_UniversalJoint@@UAEXPAVidAFBody@@AAVidVec6@@@Z 10128000 f   Physics_AF.obj
 0001:00127010       ?Rotate@idAFConstraint_Hinge@@UAEXABVidRotation@@@Z 10128010 f   Physics_AF.obj
 0001:001271a0       ?GetCenter@idAFConstraint_UniversalJoint@@UAEXAAVidVec3@@@Z 101281a0 f   Physics_AF.obj
 0001:001271a0       ?GetCenter@idAFConstraint_Hinge@@UAEXAAVidVec3@@@Z 101281a0 f   Physics_AF.obj
 0001:001271a0       ?GetCenter@idAFConstraint_BallAndSocketJoint@@UAEXAAVidVec3@@@Z 101281a0 f   Physics_AF.obj
 0001:00127260       ?DebugDraw@idAFConstraint_Hinge@@UAEXXZ 10128260 f   Physics_AF.obj
 0001:00127780       ??0idAFConstraint_HingeFriction@@QAE@XZ 10128780 f   Physics_AF.obj
 0001:00127800       ??0idAFConstraint_HingeSteering@@QAE@XZ 10128800 f   Physics_AF.obj
 0001:00127890       ?SetAxis@idAFConstraint_Slider@@QAEXABVidVec3@@@Z 10128890 f   Physics_AF.obj
 0001:00127a30       ?Rotate@idAFConstraint_Spring@@UAEXABVidRotation@@@Z 10128a30 f   Physics_AF.obj
 0001:00127a30       ?Rotate@idAFConstraint_Slider@@UAEXABVidRotation@@@Z 10128a30 f   Physics_AF.obj
 0001:00127b20       ??0idAFConstraint_ContactFriction@@QAE@XZ 10128b20 f   Physics_AF.obj
 0001:00127ba0       ??0idAFConstraint_ConeLimit@@QAE@XZ 10128ba0 f   Physics_AF.obj
 0001:00127c10       ?Rotate@idAFConstraint_ConeLimit@@UAEXABVidRotation@@@Z 10128c10 f   Physics_AF.obj
 0001:00127d80       ?Rotate@idAFConstraint_PyramidLimit@@UAEXABVidRotation@@@Z 10128d80 f   Physics_AF.obj
 0001:00128000       ?DebugDraw@idAFConstraint_PyramidLimit@@UAEXXZ 10129000 f   Physics_AF.obj
 0001:00128910       ??0idAFConstraint_Suspension@@QAE@XZ 10129910 f   Physics_AF.obj
 0001:00128a70       ?DebugDraw@idAFConstraint_Suspension@@UAEXXZ 10129a70 f   Physics_AF.obj
 0001:00128f90       ?SetDensity@idAFBody@@QAEXMABVidMat3@@@Z 10129f90 f   Physics_AF.obj
 0001:00129500       ??DidMatX@@QBE?AV0@ABV0@@Z 1012a500 f i Physics_AF.obj
 0001:001295f0       ?Factor@idAFTree@@QBEXXZ   1012a5f0 f   Physics_AF.obj
 0001:00129e60       ?Solve@idAFTree@@QBEXH@Z   1012ae60 f   Physics_AF.obj
 0001:0012a370       ?Response@idAFTree@@QBEXPBVidAFConstraint@@HH@Z 1012b370 f   Physics_AF.obj
 0001:0012a980       ?CalculateForces@idAFTree@@QBEXM@Z 1012b980 f   Physics_AF.obj
 0001:0012af70       ?SetMaxSubTreeAuxiliaryIndex@idAFTree@@QAEXXZ 1012bf70 f   Physics_AF.obj
 0001:0012afd0       ?InverseFast@idMatX@@QBE?AV1@XZ 1012bfd0 f i Physics_AF.obj
 0001:0012b150       ?EvaluateBodies@idPhysics_AF@@AAEXM@Z 1012c150 f   Physics_AF.obj
 0001:0012c500       ?ApplyFriction@idPhysics_AF@@AAEXMM@Z 1012d500 f   Physics_AF.obj
 0001:0012c700       ?AuxiliaryForces@idPhysics_AF@@AAEXM@Z 1012d700 f   Physics_AF.obj
 0001:0012d660       ?VerifyContactConstraints@idPhysics_AF@@AAEXXZ 1012e660 f   Physics_AF.obj
 0001:0012d820       ?Evolve@idPhysics_AF@@AAEXM@Z 1012e820 f   Physics_AF.obj
 0001:0012e350       ?CollisionImpulse@idPhysics_AF@@AAE_NMPAVidAFBody@@AAUtrace_s@@@Z 1012f350 f   Physics_AF.obj
 0001:0012eb00       ?SetupCollisionForBody@idPhysics_AF@@ABEPAVidEntity@@PAVidAFBody@@@Z 1012fb00 f   Physics_AF.obj
 0001:0012ec00       ?ClearExternalForce@idPhysics_AF@@AAEXXZ 1012fc00 f   Physics_AF.obj
 0001:0012ec50       ?AddGravity@idPhysics_AF@@AAEXXZ 1012fc50 f   Physics_AF.obj
 0001:0012ece0       ?UpdateClipModels@idPhysics_AF@@QAEXXZ 1012fce0 f   Physics_AF.obj
 0001:0012ed30       ?TestIfAtRest@idPhysics_AF@@AAE_NM@Z 1012fd30 f   Physics_AF.obj
 0001:0012f270       ?Rest@idPhysics_AF@@AAEXXZ 10130270 f   Physics_AF.obj
 0001:0012f2e0       ?Activate@idPhysics_AF@@UAEXXZ 101302e0 f   Physics_AF.obj
 0001:0012f320       ?PutToRest@idPhysics_AF@@UAEXXZ 10130320 f   Physics_AF.obj
 0001:0012f330       ?AddPushVelocity@idPhysics_AF@@AAEXABVidVec6@@@Z 10130330 f   Physics_AF.obj
 0001:0012f400       ?GetClipModel@idPhysics_AF@@UBEPAVidClipModel@@H@Z 10130400 f   Physics_AF.obj
 0001:0012f420       ?SetMass@idPhysics_AF@@UAEXMH@Z 10130420 f   Physics_AF.obj
 0001:0012f450       ?GetMass@idPhysics_AF@@UBEMH@Z 10130450 f   Physics_AF.obj
 0001:0012f480       ?SetContents@idPhysics_AF@@UAEXHH@Z 10130480 f   Physics_AF.obj
 0001:0012f4d0       ?GetContents@idPhysics_AF@@UBEHH@Z 101304d0 f   Physics_AF.obj
 0001:0012f520       ?Save@idPhysics_AF@@QBEXPAVidSaveGame@@@Z 10130520 f   Physics_AF.obj
 0001:0012f890       ?ForceBodyId@idPhysics_AF@@QAEXPAVidAFBody@@H@Z 10130890 f   Physics_AF.obj
 0001:0012f900       ?GetBodyId@idPhysics_AF@@QBEHPAVidAFBody@@@Z 10130900 f   Physics_AF.obj
 0001:0012f950       ?GetBodyId@idPhysics_AF@@QBEHPBD@Z 10130950 f   Physics_AF.obj
 0001:0012f9a0       ?GetNumClipModels@idPhysics_AF@@UBEHXZ 101309a0 f   Physics_AF.obj
 0001:0012f9a0       ?GetNumBodies@idPhysics_AF@@QBEHXZ 101309a0 f   Physics_AF.obj
 0001:0012f9b0       ?GetNumConstraints@idPhysics_AF@@QBEHXZ 101309b0 f   Physics_AF.obj
 0001:0012f9c0       ?GetBody@idPhysics_AF@@QBEPAVidAFBody@@PBD@Z 101309c0 f   Physics_AF.obj
 0001:0012fa10       ?GetBody@idPhysics_AF@@QBEPAVidAFBody@@H@Z 10130a10 f   Physics_AF.obj
 0001:0012fa40       ?GetConstraint@idPhysics_AF@@QBEPAVidAFConstraint@@PBD@Z 10130a40 f   Physics_AF.obj
 0001:0012fa90       ?GetConstraint@idPhysics_AF@@QBEPAVidAFConstraint@@H@Z 10130a90 f   Physics_AF.obj
 0001:0012fac0       ?DeleteConstraint@idPhysics_AF@@QAEXH@Z 10130ac0 f   Physics_AF.obj
 0001:0012fb30       ?GetBodyContactConstraints@idPhysics_AF@@QBEHHQAPAVidAFConstraint_Contact@@H@Z 10130b30 f   Physics_AF.obj
 0001:0012fba0       ?GetImpactInfo@idPhysics_AF@@UBEXHABVidVec3@@PAUimpactInfo_s@@@Z 10130ba0 f   Physics_AF.obj
 0001:0012ffc0       ?ApplyImpulse@idPhysics_AF@@UAEXHABVidVec3@@0@Z 10130fc0 f   Physics_AF.obj
 0001:00130470       ?AddForce@idPhysics_AF@@UAEXHABVidVec3@@0@Z 10131470 f   Physics_AF.obj
 0001:00130560       ?SaveState@idPhysics_AF@@UAEXXZ 10131560 f   Physics_AF.obj
 0001:001305b0       ?RestoreState@idPhysics_AF@@UAEXXZ 101315b0 f   Physics_AF.obj
 0001:001306d0       ?SetOrigin@idPhysics_AF@@UAEXABVidVec3@@H@Z 101316d0 f   Physics_AF.obj
 0001:00130800       ?SetAxis@idPhysics_AF@@UAEXABVidMat3@@H@Z 10131800 f   Physics_AF.obj
 0001:00130c60       ?Translate@idPhysics_AF@@UAEXABVidVec3@@H@Z 10131c60 f   Physics_AF.obj
 0001:00130d20       ?Rotate@idPhysics_AF@@UAEXABVidRotation@@H@Z 10131d20 f   Physics_AF.obj
 0001:00130fb0       ?GetOrigin@idPhysics_AF@@UBEABVidVec3@@H@Z 10131fb0 f   Physics_AF.obj
 0001:00130fe0       ?GetAxis@idPhysics_AF@@UBEABVidMat3@@H@Z 10131fe0 f   Physics_AF.obj
 0001:00131010       ?SetLinearVelocity@idPhysics_AF@@UAEXABVidVec3@@H@Z 10132010 f   Physics_AF.obj
 0001:00131050       ?SetAngularVelocity@idPhysics_AF@@UAEXABVidVec3@@H@Z 10132050 f   Physics_AF.obj
 0001:00131090       ?GetLinearVelocity@idPhysics_AF@@UBEABVidVec3@@H@Z 10132090 f   Physics_AF.obj
 0001:001310c0       ?GetAngularVelocity@idPhysics_AF@@UBEABVidVec3@@H@Z 101320c0 f   Physics_AF.obj
 0001:001310f0       ?ClipTranslation@idPhysics_AF@@UBEXAAUtrace_s@@ABVidVec3@@PBVidClipModel@@@Z 101320f0 f   Physics_AF.obj
 0001:001312f0       ?ClipRotation@idPhysics_AF@@UBEXAAUtrace_s@@ABVidRotation@@PBVidClipModel@@@Z 101322f0 f   Physics_AF.obj
 0001:00131700       ?ClipContents@idPhysics_AF@@UBEHPBVidClipModel@@@Z 10132700 f   Physics_AF.obj
 0001:001317a0       ?DisableClip@idPhysics_AF@@UAEXXZ 101327a0 f   Physics_AF.obj
 0001:001317c0       ?EnableClip@idPhysics_AF@@UAEXXZ 101327c0 f   Physics_AF.obj
 0001:001317e0       ?UnlinkClip@idPhysics_AF@@UAEXXZ 101327e0 f   Physics_AF.obj
 0001:00131810       ?LinkClip@idPhysics_AF@@UAEXXZ 10132810 f   Physics_AF.obj
 0001:00131820       ?SetPushed@idPhysics_AF@@UAEXH@Z 10132820 f   Physics_AF.obj
 0001:00131b00       ?WriteToSnapshot@idPhysics_AF@@UBEXAAVidBitMsgDelta@@@Z 10132b00 f   Physics_AF.obj
 0001:00132050       ?ReadFromSnapshot@idPhysics_AF@@UAEXABVidBitMsgDelta@@@Z 10133050 f   Physics_AF.obj
 0001:001324e0       ??0idAFConstraint_Fixed@@QAE@ABVidStr@@PAVidAFBody@@1@Z 101334e0 f   Physics_AF.obj
 0001:00132590       ?Evaluate@idAFConstraint_Fixed@@MAEXM@Z 10133590 f   Physics_AF.obj
 0001:00132ff0       ??0idAFConstraint_BallAndSocketJoint@@QAE@ABVidStr@@PAVidAFBody@@1@Z 10133ff0 f   Physics_AF.obj
 0001:001330b0       ??_EidAFConstraint_BallAndSocketJoint@@UAEPAXI@Z 101340b0 f i Physics_AF.obj
 0001:001330b0       ??_GidAFConstraint_BallAndSocketJoint@@UAEPAXI@Z 101340b0 f i Physics_AF.obj
 0001:00133140       ?SetConeLimit@idAFConstraint_BallAndSocketJoint@@QAEXABVidVec3@@M0@Z 10134140 f   Physics_AF.obj
 0001:00133430       ?SetPyramidLimit@idAFConstraint_BallAndSocketJoint@@QAEXABVidVec3@@0MM0@Z 10134430 f   Physics_AF.obj
 0001:001337e0       ?GetFriction@idAFConstraint_BallAndSocketJoint@@QBEMXZ 101347e0 f   Physics_AF.obj
 0001:00133890       ??0idAFConstraint_UniversalJoint@@QAE@ABVidStr@@PAVidAFBody@@1@Z 10134890 f   Physics_AF.obj
 0001:00133950       ??_GidAFConstraint_UniversalJoint@@UAEPAXI@Z 10134950 f i Physics_AF.obj
 0001:00133950       ??_EidAFConstraint_UniversalJoint@@UAEPAXI@Z 10134950 f i Physics_AF.obj
 0001:00133970       ?SetConeLimit@idAFConstraint_UniversalJoint@@QAEXABVidVec3@@M@Z 10134970 f   Physics_AF.obj
 0001:00133b30       ?SetPyramidLimit@idAFConstraint_UniversalJoint@@QAEXABVidVec3@@0MM@Z 10134b30 f   Physics_AF.obj
 0001:00133da0       ?GetFriction@idAFConstraint_UniversalJoint@@QBEMXZ 10134da0 f   Physics_AF.obj
 0001:00133e50       ??0idAFConstraint_Hinge@@QAE@ABVidStr@@PAVidAFBody@@1@Z 10134e50 f   Physics_AF.obj
 0001:00134170       ??_GidAFConstraint_Hinge@@UAEPAXI@Z 10135170 f i Physics_AF.obj
 0001:00134170       ??_EidAFConstraint_Hinge@@UAEPAXI@Z 10135170 f i Physics_AF.obj
 0001:00134190       ?SetLimit@idAFConstraint_Hinge@@QAEXABVidVec3@@M0@Z 10135190 f   Physics_AF.obj
 0001:00134460       ?GetFriction@idAFConstraint_Hinge@@QBEMXZ 10135460 f   Physics_AF.obj
 0001:00134510       ?SetSteerAngle@idAFConstraint_Hinge@@QAEXM@Z 10135510 f   Physics_AF.obj
 0001:001345b0       ?Restore@idAFConstraint_Hinge@@UAEXPAVidRestoreGame@@@Z 101355b0 f   Physics_AF.obj
 0001:001347a0       ??0idAFConstraint_Slider@@QAE@ABVidStr@@PAVidAFBody@@1@Z 101357a0 f   Physics_AF.obj
 0001:00134b40       ?Evaluate@idAFConstraint_Slider@@MAEXM@Z 10135b40 f   Physics_AF.obj
 0001:00135b60       ??0idAFConstraint_Spring@@QAE@ABVidStr@@PAVidAFBody@@1@Z 10136b60 f   Physics_AF.obj
 0001:00135c30       ?Evaluate@idAFConstraint_Spring@@MAEXM@Z 10136c30 f   Physics_AF.obj
 0001:001364d0       ??_GidAFConstraint_Contact@@UAEPAXI@Z 101374d0 f i Physics_AF.obj
 0001:001364d0       ??_EidAFConstraint_Contact@@UAEPAXI@Z 101374d0 f i Physics_AF.obj
 0001:00136540       ?Setup@idAFConstraint_Contact@@QAEXPAVidAFBody@@0AAUcontactInfo_t@@@Z 10137540 f   Physics_AF.obj
 0001:00136980       ??_EidAFConstraint@@UAEPAXI@Z 10137980 f i Physics_AF.obj
 0001:00136980       ??_EidAFConstraint_Fixed@@UAEPAXI@Z 10137980 f i Physics_AF.obj
 0001:00136980       ??_GidAFConstraint_PyramidLimit@@UAEPAXI@Z 10137980 f i Physics_AF.obj
 0001:00136980       ??_GidAFConstraint_HingeSteering@@UAEPAXI@Z 10137980 f i Physics_AF.obj
 0001:00136980       ??_EidAFConstraint_Suspension@@UAEPAXI@Z 10137980 f i Physics_AF.obj
 0001:00136980       ??_EidAFConstraint_PyramidLimit@@UAEPAXI@Z 10137980 f i Physics_AF.obj
 0001:00136980       ??_GidAFConstraint_UniversalJointFriction@@UAEPAXI@Z 10137980 f i Physics_AF.obj
 0001:00136980       ??_EidAFConstraint_UniversalJointFriction@@UAEPAXI@Z 10137980 f i Physics_AF.obj
 0001:00136980       ??_EidAFConstraint_ContactFriction@@UAEPAXI@Z 10137980 f i Physics_AF.obj
 0001:00136980       ??_GidAFConstraint@@UAEPAXI@Z 10137980 f i Physics_AF.obj
 0001:00136980       ??_EidAFConstraint_HingeFriction@@UAEPAXI@Z 10137980 f i Physics_AF.obj
 0001:00136980       ??_GidAFConstraint_Spring@@UAEPAXI@Z 10137980 f i Physics_AF.obj
 0001:00136980       ??_EidAFConstraint_Slider@@UAEPAXI@Z 10137980 f i Physics_AF.obj
 0001:00136980       ??_EidAFConstraint_Spring@@UAEPAXI@Z 10137980 f i Physics_AF.obj
 0001:00136980       ??_EidAFConstraint_HingeSteering@@UAEPAXI@Z 10137980 f i Physics_AF.obj
 0001:00136980       ??_EidAFConstraint_BallAndSocketJointFriction@@UAEPAXI@Z 10137980 f i Physics_AF.obj
 0001:00136980       ??_GidAFConstraint_Slider@@UAEPAXI@Z 10137980 f i Physics_AF.obj
 0001:00136980       ??_GidAFConstraint_HingeFriction@@UAEPAXI@Z 10137980 f i Physics_AF.obj
 0001:00136980       ??_GidAFConstraint_BallAndSocketJointFriction@@UAEPAXI@Z 10137980 f i Physics_AF.obj
 0001:00136980       ??_GidAFConstraint_ConeLimit@@UAEPAXI@Z 10137980 f i Physics_AF.obj
 0001:00136980       ??_GidAFConstraint_ContactFriction@@UAEPAXI@Z 10137980 f i Physics_AF.obj
 0001:00136980       ??_GidAFConstraint_Suspension@@UAEPAXI@Z 10137980 f i Physics_AF.obj
 0001:00136980       ??_GidAFConstraint_Fixed@@UAEPAXI@Z 10137980 f i Physics_AF.obj
 0001:00136980       ??_EidAFConstraint_ConeLimit@@UAEPAXI@Z 10137980 f i Physics_AF.obj
 0001:001369a0       ?Evaluate@idAFConstraint_Suspension@@MAEXM@Z 101379a0 f   Physics_AF.obj
 0001:00137ba0       ??0idAFBody@@QAE@XZ        10138ba0 f   Physics_AF.obj
 0001:00137cc0       ??0idAFBody@@QAE@ABVidStr@@PAVidClipModel@@M@Z 10138cc0 f   Physics_AF.obj
 0001:00137e90       ??1idAFBody@@QAE@XZ        10138e90 f   Physics_AF.obj
 0001:001380d0       ?SortBodies_r@idAFTree@@QAEXAAV?$idList@PAVidAFBody@@@@PAVidAFBody@@@Z 101390d0 f   Physics_AF.obj
 0001:00138250       ?SortBodies@idAFTree@@QAEXXZ 10139250 f   Physics_AF.obj
 0001:001383b0       ?AddFrameConstraints@idPhysics_AF@@AAEXXZ 101393b0 f   Physics_AF.obj
 0001:00138570       ?RemoveFrameConstraints@idPhysics_AF@@AAEXXZ 10139570 f   Physics_AF.obj
 0001:00138660       ?EvaluateContacts@idPhysics_AF@@UAE_NXZ 10139660 f   Physics_AF.obj
 0001:00138f50       ?SetupContactConstraints@idPhysics_AF@@AAEXXZ 10139f50 f   Physics_AF.obj
 0001:00139230       ?GetBounds@idPhysics_AF@@UBEABVidBounds@@H@Z 1013a230 f   Physics_AF.obj
 0001:00139610       ?GetAbsBounds@idPhysics_AF@@UBEABVidBounds@@H@Z 1013a610 f   Physics_AF.obj
 0001:00139780       ?DebugDraw@idPhysics_AF@@AAEXXZ 1013a780 f   Physics_AF.obj
 0001:0013a050       ??0idPhysics_AF@@QAE@XZ    1013b050 f   Physics_AF.obj
 0001:0013a3a0       ?Restore@idPhysics_AF@@QAEXPAVidRestoreGame@@@Z 1013b3a0 f   Physics_AF.obj
 0001:0013a720       ?AddBody@idPhysics_AF@@QAEHPAVidAFBody@@@Z 1013b720 f   Physics_AF.obj
 0001:0013a930       ?AddConstraint@idPhysics_AF@@QAEXPAVidAFConstraint@@@Z 1013b930 f   Physics_AF.obj
 0001:0013ab80       ?AddFrameConstraint@idPhysics_AF@@QAEXPAVidAFConstraint@@@Z 1013bb80 f   Physics_AF.obj
 0001:0013ad10       ?DeleteBody@idPhysics_AF@@QAEXH@Z 1013bd10 f   Physics_AF.obj
 0001:0013ae20       ?DeleteConstraint@idPhysics_AF@@QAEXPBD@Z 1013be20 f   Physics_AF.obj
 0001:0013aee0       ?SetMaster@idPhysics_AF@@UAEXPAVidEntity@@_N@Z 1013bee0 f   Physics_AF.obj
 0001:0013b150       ?CreateInstance@idPhysics_AF@@SAPAVidClass@@XZ 1013c150 f   Physics_AF.obj
 0001:0013b1f0       ?Add@idAFConstraint_BallAndSocketJointFriction@@QAE_NPAVidPhysics_AF@@M@Z 1013c1f0 f   Physics_AF.obj
 0001:0013b4d0       ?Add@idAFConstraint_UniversalJointFriction@@QAE_NPAVidPhysics_AF@@M@Z 1013c4d0 f   Physics_AF.obj
 0001:0013b990       ?Add@idAFConstraint_HingeFriction@@QAE_NPAVidPhysics_AF@@M@Z 1013c990 f   Physics_AF.obj
 0001:0013bd50       ?Add@idAFConstraint_HingeSteering@@QAE_NPAVidPhysics_AF@@M@Z 1013cd50 f   Physics_AF.obj
 0001:0013c020       ?Add@idAFConstraint_ContactFriction@@QAE_NPAVidPhysics_AF@@M@Z 1013d020 f   Physics_AF.obj
 0001:0013cf50       ?Add@idAFConstraint_ConeLimit@@QAE_NPAVidPhysics_AF@@M@Z 1013df50 f   Physics_AF.obj
 0001:0013d830       ?Add@idAFConstraint_PyramidLimit@@QAE_NPAVidPhysics_AF@@M@Z 1013e830 f   Physics_AF.obj
 0001:0013e440       ?EvaluateConstraints@idPhysics_AF@@AAEXM@Z 1013f440 f   Physics_AF.obj
 0001:0013e730       ?CheckForCollisions@idPhysics_AF@@AAEXM@Z 1013f730 f   Physics_AF.obj
 0001:0013ead0       ?Evaluate@idAFConstraint_BallAndSocketJoint@@MAEXM@Z 1013fad0 f   Physics_AF.obj
 0001:0013f1b0       ?ApplyFriction@idAFConstraint_BallAndSocketJoint@@MAEXM@Z 101401b0 f   Physics_AF.obj
 0001:0013f410       ?Evaluate@idAFConstraint_UniversalJoint@@MAEXM@Z 10140410 f   Physics_AF.obj
 0001:001402b0       ?ApplyFriction@idAFConstraint_UniversalJoint@@MAEXM@Z 101412b0 f   Physics_AF.obj
 0001:00140510       ?Evaluate@idAFConstraint_Hinge@@MAEXM@Z 10141510 f   Physics_AF.obj
 0001:00141220       ?ApplyFriction@idAFConstraint_Hinge@@MAEXM@Z 10142220 f   Physics_AF.obj
 0001:00141480       ?ApplyFriction@idAFConstraint_Contact@@MAEXM@Z 10142480 f   Physics_AF.obj
 0001:00141ad0       ??1idPhysics_AF@@UAE@XZ    10142ad0 f   Physics_AF.obj
 0001:00141e10       ?BuildTrees@idPhysics_AF@@AAEXXZ 10142e10 f   Physics_AF.obj
 0001:00143290       ?Evaluate@idPhysics_AF@@UAE_NHH@Z 10144290 f   Physics_AF.obj
 0001:00143cb0       ??_EidPhysics_AF@@UAEPAXI@Z 10144cb0 f i Physics_AF.obj
 0001:00143cb0       ??_GidPhysics_AF@@UAEPAXI@Z 10144cb0 f i Physics_AF.obj
 0001:00143cd0       ?GetType@idPhysics_Actor@@UBEPAVidTypeInfo@@XZ 10144cd0 f   Physics_Actor.obj
 0001:00143ce0       ?GetGravityAxis@idPhysics_Actor@@QBEABVidMat3@@XZ 10144ce0 f   Physics_Actor.obj
 0001:00143cf0       ?GetMasterDeltaYaw@idPhysics_Actor@@QBEMXZ 10144cf0 f   Physics_Actor.obj
 0001:00143d00       ?SetClipModel@idPhysics_Actor@@UAEXPAVidClipModel@@MH_N@Z 10144d00 f   Physics_Actor.obj
 0001:00143d50       ?GetClipModel@idPhysics_Actor@@UBEPAVidClipModel@@H@Z 10144d50 f   Physics_Actor.obj
 0001:00143d60       ?SetMass@idPhysics_Actor@@UAEXMH@Z 10144d60 f   Physics_Actor.obj
 0001:00143d80       ?GetMass@idPhysics_Actor@@UBEMH@Z 10144d80 f   Physics_Actor.obj
 0001:00143d90       ?SetContents@idPhysics_Actor@@UAEXHH@Z 10144d90 f   Physics_Actor.obj
 0001:00143da0       ?GetContents@idPhysics_Actor@@UBEHH@Z 10144da0 f   Physics_Actor.obj
 0001:00143db0       ?GetBounds@idPhysics_Actor@@UBEABVidBounds@@H@Z 10144db0 f   Physics_Actor.obj
 0001:00143dc0       ?GetAbsBounds@idPhysics_Actor@@UBEABVidBounds@@H@Z 10144dc0 f   Physics_Actor.obj
 0001:00143dd0       ?IsPushable@idPhysics_Actor@@UBE_NXZ 10144dd0 f   Physics_Actor.obj
 0001:00143de0       ?GetOrigin@idPhysics_Actor@@UBEABVidVec3@@H@Z 10144de0 f   Physics_Actor.obj
 0001:00143df0       ?GetAxis@idPhysics_Actor@@UBEABVidMat3@@H@Z 10144df0 f   Physics_Actor.obj
 0001:00143e00       ?ClipRotation@idPhysics_Actor@@UBEXAAUtrace_s@@ABVidRotation@@PBVidClipModel@@@Z 10144e00 f   Physics_Actor.obj
 0001:00143e80       ?ClipContents@idPhysics_Actor@@UBEHPBVidClipModel@@@Z 10144e80 f   Physics_Actor.obj
 0001:00143ee0       ?DisableClip@idPhysics_Actor@@UAEXXZ 10144ee0 f   Physics_Actor.obj
 0001:00143ef0       ?EnableClip@idPhysics_Actor@@UAEXXZ 10144ef0 f   Physics_Actor.obj
 0001:00143f00       ?UnlinkClip@idPhysics_Actor@@UAEXXZ 10144f00 f   Physics_Actor.obj
 0001:00143f10       ?LinkClip@idPhysics_Actor@@UAEXXZ 10144f10 f   Physics_Actor.obj
 0001:00143f30       ??1idPhysics_Actor@@UAE@XZ 10144f30 f   Physics_Actor.obj
 0001:00143fa0       ?Save@idPhysics_Actor@@QBEXPAVidSaveGame@@@Z 10144fa0 f   Physics_Actor.obj
 0001:00144020       ?Restore@idPhysics_Actor@@QAEXPAVidRestoreGame@@@Z 10145020 f   Physics_Actor.obj
 0001:00144090       ?GetGroundEntity@idPhysics_Actor@@QBEPAVidEntity@@XZ 10145090 f   Physics_Actor.obj
 0001:001440c0       ?ClipTranslation@idPhysics_Actor@@UBEXAAUtrace_s@@ABVidVec3@@PBVidClipModel@@@Z 101450c0 f   Physics_Actor.obj
 0001:001441a0       ?EvaluateContacts@idPhysics_Actor@@UAE_NXZ 101451a0 f   Physics_Actor.obj
 0001:001441d0       ??_EidPhysics_Actor@@UAEPAXI@Z 101451d0 f i Physics_Actor.obj
 0001:001441d0       ??_GidPhysics_Actor@@UAEPAXI@Z 101451d0 f i Physics_Actor.obj
 0001:00144250       ?SetClipModelAxis@idPhysics_Actor@@QAEXXZ 10145250 f   Physics_Actor.obj
 0001:00144480       ?SetGravity@idPhysics_Actor@@UAEXABVidVec3@@@Z 10145480 f   Physics_Actor.obj
 0001:001444d0       ??0idPhysics_Actor@@QAE@XZ 101454d0 f   Physics_Actor.obj
 0001:00144550       ?CreateInstance@idPhysics_Actor@@SAPAVidClass@@XZ 10145550 f   Physics_Actor.obj
 0001:00144640       ?GetType@idPhysics_Base@@UBEPAVidTypeInfo@@XZ 10145640 f   Physics_Base.obj
 0001:00144650       ?SetClipMask@idPhysics_Base@@UAEXHH@Z 10145650 f   Physics_Base.obj
 0001:00144660       ?GetClipMask@idPhysics_Base@@UBEHH@Z 10145660 f   Physics_Base.obj
 0001:00144670       ?GetBounds@idPhysics_Base@@UBEABVidBounds@@H@Z 10145670 f   Physics_Base.obj
 0001:00144670       ?GetAbsBounds@idPhysics_Base@@UBEABVidBounds@@H@Z 10145670 f   Physics_Base.obj
 0001:00144680       ?Collide@idEntity@@UAE_NABUtrace_s@@ABVidVec3@@@Z 10145680 f   Entity.obj
 0001:00144680       ?IsGroundClipModel@idPhysics_StaticMulti@@UBE_NHH@Z 10145680 f   Physics_StaticMulti.obj
 0001:00144680       ?HandleSingleGuiCommand@idEntity@@UAE_NPAV1@PAVidLexer@@@Z 10145680 f   Entity.obj
 0001:00144680       ?GetPhysicsToVisualTransform@idEntity@@UAE_NAAVidVec3@@AAVidMat3@@@Z 10145680 f   Entity.obj
 0001:00144680       ?IsGroundClipModel@idPhysics_Static@@UBE_NHH@Z 10145680 f   Physics_Static.obj
 0001:00144680       ?Evaluate@idPhysics_Base@@UAE_NHH@Z 10145680 f   Physics_Base.obj
 0001:00144690       ?GetAxis@idPhysics_Base@@UBEABVidMat3@@H@Z 10145690 f   Physics_Base.obj
 0001:001446a0       ?GetGravity@idPhysics_Base@@UBEABVidVec3@@XZ 101456a0 f   Physics_Base.obj
 0001:001446b0       ?GetGravityNormal@idPhysics_Base@@UBEABVidVec3@@XZ 101456b0 f   Physics_Base.obj
 0001:001446c0       ?ClipTranslation@idPhysics_Base@@UBEXAAUtrace_s@@ABVidVec3@@PBVidClipModel@@@Z 101456c0 f   Physics_Base.obj
 0001:001446c0       ?ClipRotation@idPhysics_Base@@UBEXAAUtrace_s@@ABVidRotation@@PBVidClipModel@@@Z 101456c0 f   Physics_Base.obj
 0001:001446e0       ?Save@idPhysics_Base@@QBEXPAVidSaveGame@@@Z 101456e0 f   Physics_Base.obj
 0001:00144780       ?SetGravity@idPhysics_Base@@UAEXABVidVec3@@@Z 10145780 f   Physics_Base.obj
 0001:00144850       ?GetContact@idPhysics_Base@@UBEABUcontactInfo_t@@H@Z 10145850 f   Physics_Base.obj
 0001:00144870       ?HasGroundContacts@idPhysics_Base@@UBE_NXZ 10145870 f   Physics_Base.obj
 0001:00144900       ?IsGroundEntity@idPhysics_Base@@UBE_NH@Z 10145900 f   Physics_Base.obj
 0001:00144990       ?IsGroundClipModel@idPhysics_Base@@UBE_NHH@Z 10145990 f   Physics_Base.obj
 0001:00144a30       ?AddContactEntitiesForContacts@idPhysics_Base@@IAEXXZ 10145a30 f   Physics_Base.obj
 0001:00144a80       ?IsOutsideWorld@idPhysics_Base@@IBE_NXZ 10145a80 f   Physics_Base.obj
 0001:00144b50       ?DrawVelocity@idPhysics_Base@@IBEXHMM@Z 10145b50 f   Physics_Base.obj
 0001:00145310       ?RemoveContactEntity@idPhysics_Base@@UAEXPAVidEntity@@@Z 10146310 f   Physics_Base.obj
 0001:001453c0       ?ActivateContactEntities@idPhysics_Base@@IAEXXZ 101463c0 f   Physics_Base.obj
 0001:00145440       ?AddContactEntity@idPhysics_Base@@UAEXPAVidEntity@@@Z 10146440 f   Physics_Base.obj
 0001:00145630       ?Restore@idPhysics_Base@@QAEXPAVidRestoreGame@@@Z 10146630 f   Physics_Base.obj
 0001:00145860       ?ClearContacts@idPhysics_Base@@UAEXXZ 10146860 f   Physics_Base.obj
 0001:001458c0       ?AddGroundContacts@idPhysics_Base@@IAEXPBVidClipModel@@@Z 101468c0 f   Physics_Base.obj
 0001:00145b40       ??0idPhysics_Base@@QAE@XZ  10146b40 f   Physics_Base.obj
 0001:00145bc0       ??1idPhysics_Base@@UAE@XZ  10146bc0 f   Physics_Base.obj
 0001:00145c80       ?CreateInstance@idPhysics_Base@@SAPAVidClass@@XZ 10146c80 f   Physics_Base.obj
 0001:00145d20       ??_GidPhysics_Base@@UAEPAXI@Z 10146d20 f i Physics_Base.obj
 0001:00145d20       ??_EidPhysics_Base@@UAEPAXI@Z 10146d20 f i Physics_Base.obj
 0001:00145d40       ?GetType@idPhysics_Monster@@UBEPAVidTypeInfo@@XZ 10146d40 f   Physics_Monster.obj
 0001:00145d50       ?Activate@idPhysics_Monster@@UAEXXZ 10146d50 f   Physics_Monster.obj
 0001:00145d70       ?Save@idPhysics_Monster@@QBEXPAVidSaveGame@@@Z 10146d70 f   Physics_Monster.obj
 0001:00145eb0       ?Restore@idPhysics_Monster@@QAEXPAVidRestoreGame@@@Z 10146eb0 f   Physics_Monster.obj
 0001:00145fd0       ?SetMaxStepHeight@idPhysics_Monster@@QAEXM@Z 10146fd0 f   Physics_Monster.obj
 0001:00145fe0       ?OnGround@idPhysics_Monster@@QBE_NXZ 10146fe0 f   Physics_Monster.obj
 0001:00145ff0       ?GetSlideMoveEntity@idPhysics_Monster@@QBEPAVidEntity@@XZ 10146ff0 f   Physics_Monster.obj
 0001:00146000       ?GetMoveResult@idPhysics_Monster@@QBE?AW4monsterMoveResult_t@@XZ 10147000 f   Physics_Monster.obj
 0001:00146010       ?ForceDeltaMove@idPhysics_Monster@@QAEX_N@Z 10147010 f   Physics_Monster.obj
 0001:00146020       ?UseFlyMove@idPhysics_Monster@@QAEX_N@Z 10147020 f   Physics_Monster.obj
 0001:00146030       ?UseVelocityMove@idPhysics_Monster@@QAEX_N@Z 10147030 f   Physics_Monster.obj
 0001:00146040       ?DisableImpact@idPhysics_Monster@@QAEXXZ 10147040 f   Physics_Monster.obj
 0001:00146050       ?IsAtRest@idPhysics_Monster@@UBE_NXZ 10147050 f   Physics_Monster.obj
 0001:00146060       ?ModelHandle@idDeclModelDef@@QBEPAVidRenderModel@@XZ 10147060 f   Anim_Blend.obj
 0001:00146060       ?GetRestStartTime@idPhysics_Monster@@UBEHXZ 10147060 f   Physics_Monster.obj
 0001:00146070       ?SetAxis@idPhysics_Monster@@UAEXABVidMat3@@H@Z 10147070 f   Physics_Monster.obj
 0001:001460a0       ?GetLinearVelocity@idPhysics_Monster@@UBEABVidVec3@@H@Z 101470a0 f   Physics_Monster.obj
 0001:001460b0       ?GetPushedLinearVelocity@idPhysics_Monster@@UBEABVidVec3@@H@Z 101470b0 f   Physics_Monster.obj
 0001:001460c0       ?PutToRest@idPhysics_Monster@@UAEXXZ 101470c0 f   Physics_Monster.obj
 0001:001460c0       ?Rest@idPhysics_Monster@@AAEXXZ 101470c0 f   Physics_Monster.obj
 0001:001460f0       ?SetDelta@idPhysics_Monster@@QAEXABVidVec3@@@Z 101470f0 f   Physics_Monster.obj
 0001:00146160       ?GetImpactInfo@idPhysics_Monster@@UBEXHABVidVec3@@PAUimpactInfo_s@@@Z 10147160 f   Physics_Monster.obj
 0001:001461b0       ?ApplyImpulse@idPhysics_Monster@@UAEXHABVidVec3@@0@Z 101471b0 f   Physics_Monster.obj
 0001:00146230       ?SaveState@idPhysics_Monster@@UAEXXZ 10147230 f   Physics_Monster.obj
 0001:001462e0       ?RestoreState@idPhysics_Monster@@UAEXXZ 101472e0 f   Physics_Monster.obj
 0001:001463c0       ?SetOrigin@idPhysics_Monster@@UAEXABVidVec3@@H@Z 101473c0 f   Physics_Monster.obj
 0001:001464e0       ?Translate@idPhysics_Monster@@UAEXABVidVec3@@H@Z 101474e0 f   Physics_Monster.obj
 0001:00146560       ?Rotate@idPhysics_Monster@@UAEXABVidRotation@@H@Z 10147560 f   Physics_Monster.obj
 0001:00146830       ?SetLinearVelocity@idPhysics_Monster@@UAEXABVidVec3@@H@Z 10147830 f   Physics_Monster.obj
 0001:00146860       ?SetPushed@idPhysics_Monster@@UAEXH@Z 10147860 f   Physics_Monster.obj
 0001:00146910       ?SetMaster@idPhysics_Monster@@UAEXPAVidEntity@@_N@Z 10147910 f   Physics_Monster.obj
 0001:00146a30       ?WriteToSnapshot@idPhysics_Monster@@UBEXAAVidBitMsgDelta@@@Z 10147a30 f   Physics_Monster.obj
 0001:00146cc0       ?ReadFromSnapshot@idPhysics_Monster@@UAEXABVidBitMsgDelta@@@Z 10147cc0 f   Physics_Monster.obj
 0001:00146ef0       ?SlideMove@idPhysics_Monster@@AAE?AW4monsterMoveResult_t@@AAVidVec3@@0ABV3@@Z 10147ef0 f   Physics_Monster.obj
 0001:00147100       ?StepMove@idPhysics_Monster@@AAE?AW4monsterMoveResult_t@@AAVidVec3@@0ABV3@@Z 10148100 f   Physics_Monster.obj
 0001:00147710       ??0idPhysics_Monster@@QAE@XZ 10148710 f   Physics_Monster.obj
 0001:00147800       ?CreateInstance@idPhysics_Monster@@SAPAVidClass@@XZ 10148800 f   Physics_Monster.obj
 0001:001478a0       ?CheckGround@idPhysics_Monster@@AAEXAAUmonsterPState_s@@@Z 101488a0 f   Physics_Monster.obj
 0001:00147b70       ?Evaluate@idPhysics_Monster@@UAE_NHH@Z 10148b70 f   Physics_Monster.obj
 0001:00148170       ?GetType@idPhysics_Parametric@@UBEPAVidTypeInfo@@XZ 10149170 f   Physics_Parametric.obj
 0001:00148180       ?Activate@idPhysics_Parametric@@UAEXXZ 10149180 f   Physics_Parametric.obj
 0001:001481a0       ?SetPusher@idPhysics_Parametric@@QAEXH@Z 101491a0 f   Physics_Parametric.obj
 0001:001481c0       ?IsPusher@idPhysics_Parametric@@QBE_NXZ 101491c0 f   Physics_Parametric.obj
 0001:001481d0       ?GetSpline@idPhysics_Parametric@@QBEPAV?$idCurve_Spline@VidVec3@@@@XZ 101491d0 f   Physics_Parametric.obj
 0001:001481e0       ?UsingSplineAngles@idPhysics_Parametric@@QBE_NXZ 101491e0 f   Physics_Parametric.obj
 0001:001481f0       ?SetClipModel@idPhysics_Parametric@@UAEXPAVidClipModel@@MH_N@Z 101491f0 f   Physics_Parametric.obj
 0001:00148250       ?GetClipModel@idPhysics_Parametric@@UBEPAVidClipModel@@H@Z 10149250 f   Physics_Parametric.obj
 0001:00148260       ?GetNumClipModels@idPhysics_Parametric@@UBEHXZ 10149260 f   Physics_Parametric.obj
 0001:00148270       ?SetContents@idPhysics_Parametric@@UAEXHH@Z 10149270 f   Physics_Parametric.obj
 0001:00148290       ?GetContents@idPhysics_Parametric@@UBEHH@Z 10149290 f   Physics_Parametric.obj
 0001:001482b0       ?GetBounds@idPhysics_Parametric@@UBEABVidBounds@@H@Z 101492b0 f   Physics_Parametric.obj
 0001:001482d0       ?GetAbsBounds@idPhysics_Parametric@@UBEABVidBounds@@H@Z 101492d0 f   Physics_Parametric.obj
 0001:001482f0       ?GetRestStartTime@idPhysics_RigidBody@@UBEHXZ 101492f0 f   Physics_RigidBody.obj
 0001:001482f0       ?GetTime@idPhysics_Parametric@@UBEHXZ 101492f0 f   Physics_Parametric.obj
 0001:00148300       ?IsAtRest@idPhysics_Parametric@@UBE_NXZ 10149300 f   Physics_Parametric.obj
 0001:00148310       ?GetName@idEntity@@QBEPBDXZ 10149310 f   Entity.obj
 0001:00148310       ?GetRestStartTime@idPhysics_Parametric@@UBEHXZ 10149310 f   Physics_Parametric.obj
 0001:00148320       ?GetOrigin@idPhysics_Parametric@@UBEABVidVec3@@H@Z 10149320 f   Physics_Parametric.obj
 0001:00148330       ?GetAxis@idPhysics_Parametric@@UBEABVidMat3@@H@Z 10149330 f   Physics_Parametric.obj
 0001:00148340       ?DisableClip@idPhysics_Parametric@@UAEXXZ 10149340 f   Physics_Parametric.obj
 0001:00148350       ?EnableClip@idPhysics_Parametric@@UAEXXZ 10149350 f   Physics_Parametric.obj
 0001:00148360       ?UnlinkClip@idPhysics_Parametric@@UAEXXZ 10149360 f   Physics_Parametric.obj
 0001:00148370       ?LinkClip@idPhysics_Parametric@@UAEXXZ 10149370 f   Physics_Parametric.obj
 0001:001483a0       ?GetBlockingInfo@idPhysics_Parametric@@UBEPBUtrace_s@@XZ 101493a0 f   Physics_Parametric.obj
 0001:001483c0       ?GetBlockingEntity@idPhysics_Parametric@@UBEPAVidEntity@@XZ 101493c0 f   Physics_Parametric.obj
 0001:001483e0       ?TestIfAtRest@idPhysics_Parametric@@ABE_NXZ 101493e0 f   Physics_Parametric.obj
 0001:00148520       ??4?$idExtrapolate@VidAngles@@@@QAEAAV0@ABV0@@Z 10149520 f i Physics_Parametric.obj
 0001:00148520       ??4?$idExtrapolate@VidVec3@@@@QAEAAV0@ABV0@@Z 10149520 f i Physics_Parametric.obj
 0001:00148590       ??1idPhysics_Parametric@@UAE@XZ 10149590 f   Physics_Parametric.obj
 0001:00148620       ?idPhysics_Parametric_SavePState@@YAXPAVidSaveGame@@ABUparametricPState_s@@@Z 10149620 f   Physics_Parametric.obj
 0001:00148890       ?Save@idPhysics_Parametric@@QBEXPAVidSaveGame@@@Z 10149890 f   Physics_Parametric.obj
 0001:00148920       ?SetLinearExtrapolation@idPhysics_Parametric@@QAEXW4extrapolation_t@@HHABVidVec3@@11@Z 10149920 f   Physics_Parametric.obj
 0001:001489f0       ?GetLinearExtrapolationType@idPhysics_Parametric@@QBE?AW4extrapolation_t@@XZ 101499f0 f   Physics_Parametric.obj
 0001:00148a00       ?GetAngularExtrapolationType@idPhysics_Parametric@@QBE?AW4extrapolation_t@@XZ 10149a00 f   Physics_Parametric.obj
 0001:00148a10       ?SetLinearInterpolation@idPhysics_Parametric@@QAEXHHHHABVidVec3@@0@Z 10149a10 f   Physics_Parametric.obj
 0001:00148cc0       ?GetSplineAcceleration@idPhysics_Parametric@@QBEHXZ 10149cc0 f   Physics_Parametric.obj
 0001:00148cd0       ?GetSplineDeceleration@idPhysics_Parametric@@QBEHXZ 10149cd0 f   Physics_Parametric.obj
 0001:00148ce0       ?GetLocalOrigin@idPhysics_Parametric@@QBEXAAVidVec3@@@Z 10149ce0 f   Physics_Parametric.obj
 0001:00148d10       ?GetLocalAngles@idPhysics_Parametric@@QBEXAAVidAngles@@@Z 10149d10 f   Physics_Parametric.obj
 0001:00148d40       ?GetAngles@idPhysics_Parametric@@QBEXAAVidAngles@@@Z 10149d40 f   Physics_Parametric.obj
 0001:00148d60       ?SetLinearVelocity@idPhysics_Parametric@@UAEXABVidVec3@@H@Z 10149d60 f   Physics_Parametric.obj
 0001:00148df0       ?GetLinearVelocity@idPhysics_Parametric@@UBEABVidVec3@@H@Z 10149df0 f   Physics_Parametric.obj
 0001:00149120       ?GetAngularEndTime@idPhysics_Parametric@@UBEHXZ 1014a120 f   Physics_Parametric.obj
 0001:001491c0       ?WriteToSnapshot@idPhysics_Parametric@@UBEXAAVidBitMsgDelta@@@Z 1014a1c0 f   Physics_Parametric.obj
 0001:00149940       ?SetStartTime@?$idInterpolateAccelDecelLinear@VidAngles@@@@QAEXM@Z 1014a940 f i Physics_Parametric.obj
 0001:00149940       ?SetStartTime@?$idInterpolateAccelDecelLinear@VidVec3@@@@QAEXM@Z 1014a940 f i Physics_Parametric.obj
 0001:001499b0       ??_EidPhysics_Parametric@@UAEPAXI@Z 1014a9b0 f i Physics_Parametric.obj
 0001:001499b0       ??_GidPhysics_Parametric@@UAEPAXI@Z 1014a9b0 f i Physics_Parametric.obj
 0001:001499d0       ??0parametricPState_s@@QAE@XZ 1014a9d0 f i Physics_Parametric.obj
 0001:00149ca0       ??4parametricPState_s@@QAEAAU0@ABU0@@Z 1014aca0 f i Physics_Parametric.obj
 0001:00149ea0       ?idPhysics_Parametric_RestorePState@@YAXPAVidRestoreGame@@AAUparametricPState_s@@@Z 1014aea0 f   Physics_Parametric.obj
 0001:0014a800       ?Restore@idPhysics_Parametric@@QAEXPAVidRestoreGame@@@Z 1014b800 f   Physics_Parametric.obj
 0001:0014a890       ?SetAngularExtrapolation@idPhysics_Parametric@@QAEXW4extrapolation_t@@HHABVidAngles@@11@Z 1014b890 f   Physics_Parametric.obj
 0001:0014a960       ?SaveState@idPhysics_Parametric@@UAEXXZ 1014b960 f   Physics_Parametric.obj
 0001:0014a970       ?RestoreState@idPhysics_Parametric@@UAEXXZ 1014b970 f   Physics_Parametric.obj
 0001:0014a9b0       ?SetOrigin@idPhysics_Parametric@@UAEXABVidVec3@@H@Z 1014b9b0 f   Physics_Parametric.obj
 0001:0014b230       ?SetAngularVelocity@idPhysics_Parametric@@UAEXABVidVec3@@H@Z 1014c230 f   Physics_Parametric.obj
 0001:0014b3f0       ?GetAngularVelocity@idPhysics_Parametric@@UBEABVidVec3@@H@Z 1014c3f0 f   Physics_Parametric.obj
 0001:0014b680       ?SetMaster@idPhysics_Parametric@@UAEXPAVidEntity@@_N@Z 1014c680 f   Physics_Parametric.obj
 0001:0014b9a0       ?GetLinearEndTime@idPhysics_Parametric@@UBEHXZ 1014c9a0 f   Physics_Parametric.obj
 0001:0014ba80       ?ReadFromSnapshot@idPhysics_Parametric@@UAEXABVidBitMsgDelta@@@Z 1014ca80 f   Physics_Parametric.obj
 0001:0014c8a0       ?SetStartValue@?$idInterpolateAccelDecelLinear@VidVec3@@@@QAEXABVidVec3@@@Z 1014d8a0 f i Physics_Parametric.obj
 0001:0014c8a0       ?SetStartValue@?$idInterpolateAccelDecelLinear@VidAngles@@@@QAEXABVidAngles@@@Z 1014d8a0 f i Physics_Parametric.obj
 0001:0014c920       ??0idPhysics_Parametric@@QAE@XZ 1014d920 f   Physics_Parametric.obj
 0001:0014ccd0       ?SetSpline@idPhysics_Parametric@@QAEXPAV?$idCurve_Spline@VidVec3@@@@HH_N@Z 1014dcd0 f   Physics_Parametric.obj
 0001:0014d900       ?Evaluate@idPhysics_Parametric@@UAE_NHH@Z 1014e900 f   Physics_Parametric.obj
 0001:00150ca0       ?UpdateTime@idPhysics_Parametric@@UAEXH@Z 10151ca0 f   Physics_Parametric.obj
 0001:00150dc0       ?SetAxis@idPhysics_Parametric@@UAEXABVidMat3@@H@Z 10151dc0 f   Physics_Parametric.obj
 0001:00151600       ?CreateInstance@idPhysics_Parametric@@SAPAVidClass@@XZ 10152600 f   Physics_Parametric.obj
 0001:001516a0       ?GetType@idPhysics_Player@@UBEPAVidTypeInfo@@XZ 101526a0 f   Physics_Player.obj
 0001:001516b0       ?CmdScale@idPhysics_Player@@ABEMABVusercmd_t@@@Z 101526b0 f   Physics_Player.obj
 0001:001517d0       ?CheckJump@idPhysics_Player@@AAE_NXZ 101527d0 f   Physics_Player.obj
 0001:001519d0       ?CheckWaterJump@idPhysics_Player@@AAE_NXZ 101529d0 f   Physics_Player.obj
 0001:00151d50       ?DropTimers@idPhysics_Player@@AAEXXZ 10152d50 f   Physics_Player.obj
 0001:00151d90       ?GetWaterLevel@idPhysics_Player@@QBE?AW4waterLevel_t@@XZ 10152d90 f   Physics_Player.obj
 0001:00151da0       ?HasJumped@idPhysics_Player@@QBE_NXZ 10152da0 f   Physics_Player.obj
 0001:00151db0       ?HasSteppedUp@idPhysics_Player@@QBE_NXZ 10152db0 f   Physics_Player.obj
 0001:00151dc0       ?GetStepUp@idPhysics_Player@@QBEMXZ 10152dc0 f   Physics_Player.obj
 0001:00151dd0       ?IsCrouching@idPhysics_Player@@QBE_NXZ 10152dd0 f   Physics_Player.obj
 0001:00151de0       ?OnLadder@idPhysics_Player@@QBE_NXZ 10152de0 f   Physics_Player.obj
 0001:00151df0       ??4playerPState_s@@QAEAAU0@ABU0@@Z 10152df0 f i Physics_Player.obj
 0001:00151e60       ?idPhysics_Player_SavePState@@YAXPAVidSaveGame@@ABUplayerPState_s@@@Z 10152e60 f   Physics_Player.obj
 0001:00151ed0       ?idPhysics_Player_RestorePState@@YAXPAVidRestoreGame@@AAUplayerPState_s@@@Z 10152ed0 f   Physics_Player.obj
 0001:00151f40       ?Save@idPhysics_Player@@QBEXPAVidSaveGame@@@Z 10152f40 f   Physics_Player.obj
 0001:001520a0       ?Restore@idPhysics_Player@@QAEXPAVidRestoreGame@@@Z 101530a0 f   Physics_Player.obj
 0001:001521f0       ?SetSpeed@idPhysics_Player@@QAEXMM@Z 101531f0 f   Physics_Player.obj
 0001:00152210       ?SetMaxStepHeight@idPhysics_Player@@QAEXM@Z 10153210 f   Physics_Player.obj
 0001:00152220       ?SetMaxJumpHeight@idPhysics_Player@@QAEXM@Z 10153220 f   Physics_Player.obj
 0001:00152230       ?SetMovementType@idPhysics_Player@@QAEXW4pmtype_t@@@Z 10153230 f   Physics_Player.obj
 0001:00152240       ?SetKnockBack@idPhysics_Player@@QAEXH@Z 10153240 f   Physics_Player.obj
 0001:00152260       ?SetDebugLevel@idPhysics_Player@@QAEX_N@Z 10153260 f   Physics_Player.obj
 0001:00152270       ?ApplyImpulse@idPhysics_Player@@UAEXHABVidVec3@@0@Z 10153270 f   Physics_Player.obj
 0001:001522e0       ?GetRestStartTime@idPhysics_Player@@UBEHXZ 101532e0 f   Physics_Player.obj
 0001:001522f0       ?SaveState@idPhysics_Player@@UAEXXZ 101532f0 f   Physics_Player.obj
 0001:00152310       ?RestoreState@idPhysics_Player@@UAEXXZ 10153310 f   Physics_Player.obj
 0001:00152350       ?PlayerGetOrigin@idPhysics_Player@@QBEABVidVec3@@XZ 10153350 f   Physics_Player.obj
 0001:00152360       ?SetAxis@idPhysics_Player@@UAEXABVidMat3@@H@Z 10153360 f   Physics_Player.obj
 0001:00152390       ?Translate@idPhysics_Player@@UAEXABVidVec3@@H@Z 10153390 f   Physics_Player.obj
 0001:00152400       ?SetLinearVelocity@idPhysics_Player@@UAEXABVidVec3@@H@Z 10153400 f   Physics_Player.obj
 0001:00152430       ?GetLinearVelocity@idPhysics_Player@@UBEABVidVec3@@H@Z 10153430 f   Physics_Player.obj
 0001:00152440       ?SetPushed@idPhysics_Player@@UAEXH@Z 10153440 f   Physics_Player.obj
 0001:00152580       ?GetPushedLinearVelocity@idPhysics_Player@@UBEABVidVec3@@H@Z 10153580 f   Physics_Player.obj
 0001:00152590       ?ClearPushedVelocity@idPhysics_Player@@QAEXXZ 10153590 f   Physics_Player.obj
 0001:001525b0       ?Accelerate@idPhysics_Player@@AAEXABVidVec3@@MM@Z 101535b0 f   Physics_Player.obj
 0001:001526a0       ?Friction@idPhysics_Player@@AAEXXZ 101536a0 f   Physics_Player.obj
 0001:001529d0       ?DeadMove@idPhysics_Player@@AAEXXZ 101539d0 f   Physics_Player.obj
 0001:00152ba0       ?NoclipMove@idPhysics_Player@@AAEXXZ 10153ba0 f   Physics_Player.obj
 0001:00152fd0       ?CorrectAllSolid@idPhysics_Player@@AAEXAAUtrace_s@@H@Z 10153fd0 f   Physics_Player.obj
 0001:001530d0       ?SetWaterLevel@idPhysics_Player@@AAEXXZ 101540d0 f   Physics_Player.obj
 0001:00153330       ?SetPlayerInput@idPhysics_Player@@QAEXABVusercmd_t@@ABVidAngles@@@Z 10154330 f   Physics_Player.obj
 0001:00153370       ?GetImpactInfo@idPhysics_Player@@UBEXHABVidVec3@@PAUimpactInfo_s@@@Z 10154370 f   Physics_Player.obj
 0001:001533c0       ?SetOrigin@idPhysics_Player@@UAEXABVidVec3@@H@Z 101543c0 f   Physics_Player.obj
 0001:001534d0       ?Rotate@idPhysics_Player@@UAEXABVidRotation@@H@Z 101544d0 f   Physics_Player.obj
 0001:00153790       ?SetMaster@idPhysics_Player@@UAEXPAVidEntity@@_N@Z 10154790 f   Physics_Player.obj
 0001:001538b0       ?WriteToSnapshot@idPhysics_Player@@UBEXAAVidBitMsgDelta@@@Z 101548b0 f   Physics_Player.obj
 0001:00153b70       ?ReadFromSnapshot@idPhysics_Player@@UAEXABVidBitMsgDelta@@@Z 10154b70 f   Physics_Player.obj
 0001:00153e20       ?CheckGround@idPhysics_Player@@AAEXXZ 10154e20 f   Physics_Player.obj
 0001:00154420       ?CheckDuck@idPhysics_Player@@AAEXXZ 10155420 f   Physics_Player.obj
 0001:00154620       ?CheckLadder@idPhysics_Player@@AAEXXZ 10155620 f   Physics_Player.obj
 0001:001549d0       ??0idPhysics_Player@@QAE@XZ 101559d0 f   Physics_Player.obj
 0001:00154af0       ??_GidPhysics_Monster@@UAEPAXI@Z 10155af0 f i Physics_Monster.obj
 0001:00154af0       ??_GidPhysics_Player@@UAEPAXI@Z 10155af0 f i Physics_Player.obj
 0001:00154af0       ??_EidPhysics_Player@@UAEPAXI@Z 10155af0 f i Physics_Player.obj
 0001:00154af0       ??_EidPhysics_Monster@@UAEPAXI@Z 10155af0 f i Physics_Monster.obj
 0001:00154b10       ?CreateInstance@idPhysics_Player@@SAPAVidClass@@XZ 10155b10 f   Physics_Player.obj
 0001:00154bb0       ?SlideMove@idPhysics_Player@@AAE_N_N000@Z 10155bb0 f   Physics_Player.obj
 0001:00156260       ?WaterJumpMove@idPhysics_Player@@AAEXXZ 10157260 f   Physics_Player.obj
 0001:00156320       ?WaterMove@idPhysics_Player@@AAEXXZ 10157320 f   Physics_Player.obj
 0001:001568a0       ?AirMove@idPhysics_Player@@AAEXXZ 101578a0 f   Physics_Player.obj
 0001:00156e30       ?WalkMove@idPhysics_Player@@AAEXXZ 10157e30 f   Physics_Player.obj
 0001:00157810       ?SpectatorMove@idPhysics_Player@@AAEXXZ 10158810 f   Physics_Player.obj
 0001:00157a20       ?LadderMove@idPhysics_Player@@AAEXXZ 10158a20 f   Physics_Player.obj
 0001:001583b0       ?MovePlayer@idPhysics_Player@@AAEXH@Z 101593b0 f   Physics_Player.obj
 0001:00158730       ?Evaluate@idPhysics_Player@@UAE_NHH@Z 10159730 f   Physics_Player.obj
 0001:00158960       ?GetType@idPhysics_RigidBody@@UBEPAVidTypeInfo@@XZ 10159960 f   Physics_RigidBody.obj
 0001:00158970       ?idPhysics_RigidBody_SavePState@@YAXPAVidSaveGame@@ABUrigidBodyPState_s@@@Z 10159970 f   Physics_RigidBody.obj
 0001:00158a00       ?idPhysics_RigidBody_RestorePState@@YAXPAVidRestoreGame@@AAUrigidBodyPState_s@@@Z 10159a00 f   Physics_RigidBody.obj
 0001:00158a90       ?Save@idPhysics_RigidBody@@QBEXPAVidSaveGame@@@Z 10159a90 f   Physics_RigidBody.obj
 0001:00158bb0       ?Restore@idPhysics_RigidBody@@QAEXPAVidRestoreGame@@@Z 10159bb0 f   Physics_RigidBody.obj
 0001:00158cc0       ?GetClipModel@idPhysics_RigidBody@@UBEPAVidClipModel@@H@Z 10159cc0 f   Physics_RigidBody.obj
 0001:00158cd0       ?GetNumClipModels@idPhysics_Actor@@UBEHXZ 10159cd0 f   Physics_Actor.obj
 0001:00158cd0       ?GetNumClipModels@idPhysics_RigidBody@@UBEHXZ 10159cd0 f   Physics_RigidBody.obj
 0001:00158cd0       ?GetDefaultSurfaceType@idAnimatedEntity@@UBEHXZ 10159cd0 f   Entity.obj
 0001:00158ce0       ?GetMass@idPhysics_RigidBody@@UBEMH@Z 10159ce0 f   Physics_RigidBody.obj
 0001:00158cf0       ?SetFriction@idPhysics_RigidBody@@QAEXMMM@Z 10159cf0 f   Physics_RigidBody.obj
 0001:00158d60       ?SetBouncyness@idPhysics_RigidBody@@QAEXM@Z 10159d60 f   Physics_RigidBody.obj
 0001:00158d90       ?DropToFloor@idPhysics_RigidBody@@QAEXXZ 10159d90 f   Physics_RigidBody.obj
 0001:00158da0       ?NoContact@idPhysics_RigidBody@@QAEXXZ 10159da0 f   Physics_RigidBody.obj
 0001:00158db0       ?Activate@idPhysics_RigidBody@@UAEXXZ 10159db0 f   Physics_RigidBody.obj
 0001:00158dd0       ?EnableImpact@idPhysics_RigidBody@@QAEXXZ 10159dd0 f   Physics_RigidBody.obj
 0001:00158de0       ?DisableImpact@idPhysics_RigidBody@@QAEXXZ 10159de0 f   Physics_RigidBody.obj
 0001:00158df0       ?SetContents@idPhysics_RigidBody@@UAEXHH@Z 10159df0 f   Physics_RigidBody.obj
 0001:00158e00       ?GetContents@idPhysics_RigidBody@@UBEHH@Z 10159e00 f   Physics_RigidBody.obj
 0001:00158e10       ?GetBounds@idPhysics_RigidBody@@UBEABVidBounds@@H@Z 10159e10 f   Physics_RigidBody.obj
 0001:00158e20       ?GetAbsBounds@idPhysics_RigidBody@@UBEABVidBounds@@H@Z 10159e20 f   Physics_RigidBody.obj
 0001:00158e30       ?IsAtRest@idPhysics_RigidBody@@UBE_NXZ 10159e30 f   Physics_RigidBody.obj
 0001:00158e40       ?IsPushable@idPhysics_RigidBody@@UBE_NXZ 10159e40 f   Physics_RigidBody.obj
 0001:00158e60       ?Translate@idPhysics_RigidBody@@UAEXABVidVec3@@H@Z 10159e60 f   Physics_RigidBody.obj
 0001:00158ed0       ?GetOrigin@idPhysics_RigidBody@@UBEABVidVec3@@H@Z 10159ed0 f   Physics_RigidBody.obj
 0001:00158ee0       ?GetAxis@idPhysics_RigidBody@@UBEABVidMat3@@H@Z 10159ee0 f   Physics_RigidBody.obj
 0001:00158ef0       ?SetLinearVelocity@idPhysics_RigidBody@@UAEXABVidVec3@@H@Z 10159ef0 f   Physics_RigidBody.obj
 0001:00158f50       ?GetLinearVelocity@idPhysics_RigidBody@@UBEABVidVec3@@H@Z 10159f50 f   Physics_RigidBody.obj
 0001:00158fd0       ?ClipTranslation@idPhysics_RigidBody@@UBEXAAUtrace_s@@ABVidVec3@@PBVidClipModel@@@Z 10159fd0 f   Physics_RigidBody.obj
 0001:001590c0       ?ClipRotation@idPhysics_RigidBody@@UBEXAAUtrace_s@@ABVidRotation@@PBVidClipModel@@@Z 1015a0c0 f   Physics_RigidBody.obj
 0001:00159140       ?ClipContents@idPhysics_RigidBody@@UBEHPBVidClipModel@@@Z 1015a140 f   Physics_RigidBody.obj
 0001:001591a0       ?DisableClip@idPhysics_RigidBody@@UAEXXZ 1015a1a0 f   Physics_RigidBody.obj
 0001:001591b0       ?EnableClip@idPhysics_RigidBody@@UAEXXZ 1015a1b0 f   Physics_RigidBody.obj
 0001:001591c0       ?UnlinkClip@idPhysics_RigidBody@@UAEXXZ 1015a1c0 f   Physics_RigidBody.obj
 0001:001591d0       ?LinkClip@idPhysics_RigidBody@@UAEXXZ 1015a1d0 f   Physics_RigidBody.obj
 0001:00159200       ?RigidBodyDerivatives@@YAXMPBXPBMPAM@Z 1015a200 f   Physics_RigidBody.obj
 0001:001597e0       ?Integrate@idPhysics_RigidBody@@AAEXMAAUrigidBodyPState_s@@@Z 1015a7e0 f   Physics_RigidBody.obj
 0001:00159de0       ?ContactFriction@idPhysics_RigidBody@@AAEXM@Z 1015ade0 f   Physics_RigidBody.obj
 0001:0015aae0       ?TestIfAtRest@idPhysics_RigidBody@@ABE_NXZ 1015bae0 f   Physics_RigidBody.obj
 0001:0015b530       ?DebugDraw@idPhysics_RigidBody@@AAEXXZ 1015c530 f   Physics_RigidBody.obj
 0001:0015b700       ??4rididBodyIState_s@@QAEAAU0@ABU0@@Z 1015c700 f i Physics_RigidBody.obj
 0001:0015b780       ??1idPhysics_RigidBody@@UAE@XZ 1015c780 f   Physics_RigidBody.obj
 0001:0015b810       ?SetMass@idPhysics_RigidBody@@UAEXMH@Z 1015c810 f   Physics_RigidBody.obj
 0001:0015b9e0       ?Rest@idPhysics_RigidBody@@AAEXXZ 1015c9e0 f   Physics_RigidBody.obj
 0001:0015b9e0       ?PutToRest@idPhysics_RigidBody@@UAEXXZ 1015c9e0 f   Physics_RigidBody.obj
 0001:0015ba20       ?GetImpactInfo@idPhysics_RigidBody@@UBEXHABVidVec3@@PAUimpactInfo_s@@@Z 1015ca20 f   Physics_RigidBody.obj
 0001:0015bfe0       ?ApplyImpulse@idPhysics_RigidBody@@UAEXHABVidVec3@@0@Z 1015cfe0 f   Physics_RigidBody.obj
 0001:0015c170       ?AddForce@idPhysics_RigidBody@@UAEXHABVidVec3@@0@Z 1015d170 f   Physics_RigidBody.obj
 0001:0015c300       ?SetOrigin@idPhysics_RigidBody@@UAEXABVidVec3@@H@Z 1015d300 f   Physics_RigidBody.obj
 0001:0015c420       ?SetAxis@idPhysics_RigidBody@@UAEXABVidMat3@@H@Z 1015d420 f   Physics_RigidBody.obj
 0001:0015c640       ?Rotate@idPhysics_RigidBody@@UAEXABVidRotation@@H@Z 1015d640 f   Physics_RigidBody.obj
 0001:0015cab0       ?SetAngularVelocity@idPhysics_RigidBody@@UAEXABVidVec3@@H@Z 1015dab0 f   Physics_RigidBody.obj
 0001:0015cb50       ?GetAngularVelocity@idPhysics_RigidBody@@UBEABVidVec3@@H@Z 1015db50 f   Physics_RigidBody.obj
 0001:0015cf00       ?SetPushed@idPhysics_RigidBody@@UAEXH@Z 1015df00 f   Physics_RigidBody.obj
 0001:0015d200       ?GetPushedLinearVelocity@idPhysics_RigidBody@@UBEABVidVec3@@H@Z 1015e200 f   Physics_RigidBody.obj
 0001:0015d210       ?GetPushedAngularVelocity@idPhysics_RigidBody@@UBEABVidVec3@@H@Z 1015e210 f   Physics_RigidBody.obj
 0001:0015d220       ?SetMaster@idPhysics_RigidBody@@UAEXPAVidEntity@@_N@Z 1015e220 f   Physics_RigidBody.obj
 0001:0015d4f0       ?WriteToSnapshot@idPhysics_RigidBody@@UBEXAAVidBitMsgDelta@@@Z 1015e4f0 f   Physics_RigidBody.obj
 0001:0015dac0       ?ReadFromSnapshot@idPhysics_RigidBody@@UAEXABVidBitMsgDelta@@@Z 1015eac0 f   Physics_RigidBody.obj
 0001:0015e050       ?CollisionImpulse@idPhysics_RigidBody@@AAE_NABUtrace_s@@AAVidVec3@@@Z 1015f050 f   Physics_RigidBody.obj
 0001:0015ea10       ?CheckForCollisions@idPhysics_RigidBody@@AAE_NMAAUrigidBodyPState_s@@AAUtrace_s@@@Z 1015fa10 f   Physics_RigidBody.obj
 0001:0015ec80       ??_GidPhysics_RigidBody@@UAEPAXI@Z 1015fc80 f i Physics_RigidBody.obj
 0001:0015ec80       ??_EidPhysics_RigidBody@@UAEPAXI@Z 1015fc80 f i Physics_RigidBody.obj
 0001:0015eca0       ??4rigidBodyPState_s@@QAEAAU0@ABU0@@Z 1015fca0 f i Physics_RigidBody.obj
 0001:0015ed60       ?SetClipModel@idPhysics_RigidBody@@UAEXPAVidClipModel@@MH_N@Z 1015fd60 f   Physics_RigidBody.obj
 0001:0015f290       ?SaveState@idPhysics_RigidBody@@UAEXXZ 10160290 f   Physics_RigidBody.obj
 0001:0015f2a0       ?RestoreState@idPhysics_RigidBody@@UAEXXZ 101602a0 f   Physics_RigidBody.obj
 0001:0015f2f0       ?DropToFloorAndRest@idPhysics_RigidBody@@AAEXXZ 101602f0 f   Physics_RigidBody.obj
 0001:0015f520       ??0idPhysics_RigidBody@@QAE@XZ 10160520 f   Physics_RigidBody.obj
 0001:0015f7b0       ?Evaluate@idPhysics_RigidBody@@UAE_NHH@Z 101607b0 f   Physics_RigidBody.obj
 0001:00160100       ?EvaluateContacts@idPhysics_RigidBody@@UAE_NXZ 10161100 f   Physics_RigidBody.obj
 0001:00160520       ?CreateInstance@idPhysics_RigidBody@@SAPAVidClass@@XZ 10161520 f   Physics_RigidBody.obj
 0001:001605c0       ?GetType@idPhysics_Static@@UBEPAVidTypeInfo@@XZ 101615c0 f   Physics_Static.obj
 0001:001605d0       ?Save@idPhysics_Static@@QBEXPAVidSaveGame@@@Z 101615d0 f   Physics_Static.obj
 0001:00160640       ?Restore@idPhysics_Static@@QAEXPAVidRestoreGame@@@Z 10161640 f   Physics_Static.obj
 0001:001606b0       ?SetClipModel@idPhysics_Static@@UAEXPAVidClipModel@@MH_N@Z 101616b0 f   Physics_Static.obj
 0001:00160710       ?GetClipModel@idPhysics_Static@@UBEPAVidClipModel@@H@Z 10161710 f   Physics_Static.obj
 0001:00160720       ?GetNumClipModels@idPhysics_Static@@UBEHXZ 10161720 f   Physics_Static.obj
 0001:00160730       ?SetContents@idPhysics_Static@@UAEXHH@Z 10161730 f   Physics_Static.obj
 0001:00160750       ?GetContents@idPhysics_Static@@UBEHH@Z 10161750 f   Physics_Static.obj
 0001:00160770       ?GetBounds@idPhysics_Static@@UBEABVidBounds@@H@Z 10161770 f   Physics_Static.obj
 0001:00160790       ?GetOrigin@idPhysics_Static@@UBEABVidVec3@@H@Z 10161790 f   Physics_Static.obj
 0001:001607a0       ?GetAxis@idPhysics_Static@@UBEABVidMat3@@H@Z 101617a0 f   Physics_Static.obj
 0001:001607b0       ?SetLinearVelocity@idPhysics_Static@@UAEXABVidVec3@@H@Z 101617b0 f   Physics_Static.obj
 0001:001607b0       ?SetOrigin@idPhysics_Base@@UAEXABVidVec3@@H@Z 101617b0 f   Physics_Base.obj
 0001:001607b0       ?SetAngularVelocity@idPhysics_Static@@UAEXABVidVec3@@H@Z 101617b0 f   Physics_Static.obj
 0001:001607b0       ?SetMass@idPhysics_Static@@UAEXMH@Z 101617b0 f   Physics_Static.obj
 0001:001607b0       ?SetMass@idPhysics_StaticMulti@@UAEXMH@Z 101617b0 f   Physics_StaticMulti.obj
 0001:001607b0       ?SetAngularVelocity@idPhysics_StaticMulti@@UAEXABVidVec3@@H@Z 101617b0 f   Physics_StaticMulti.obj
 0001:001607b0       ?SetMass@idPhysics_Base@@UAEXMH@Z 101617b0 f   Physics_Base.obj
 0001:001607b0       ?HandleMainMenuCommands@idGameLocal@@UAEXPBDPAVidUserInterface@@@Z 101617b0 f   Game_local.obj
 0001:001607b0       ?Event_TeamBlocked@idMover_Periodic@@IAEXPAVidEntity@@0@Z 101617b0 f   Mover.obj
 0001:001607b0       ?SetAxis@idPhysics_Base@@UAEXABVidMat3@@H@Z 101617b0 f   Physics_Base.obj
 0001:001607b0       ?SetMaster@idPhysics_Base@@UAEXPAVidEntity@@_N@Z 101617b0 f   Physics_Base.obj
 0001:001607b0       ?Translate@idPhysics_Parametric@@UAEXABVidVec3@@H@Z 101617b0 f   Physics_Parametric.obj
 0001:001607b0       ?Rotate@idPhysics_Parametric@@UAEXABVidRotation@@H@Z 101617b0 f   Physics_Parametric.obj
 0001:001607b0       ?SetContents@idPhysics_Base@@UAEXHH@Z 101617b0 f   Physics_Base.obj
 0001:001607b0       ?SetClipMask@idPhysics_StaticMulti@@UAEXHH@Z 101617b0 f   Physics_StaticMulti.obj
 0001:001607b0       ?SetAngularVelocity@idPhysics_Base@@UAEXABVidVec3@@H@Z 101617b0 f   Physics_Base.obj
 0001:001607b0       ?SetMass@idPhysics_Parametric@@UAEXMH@Z 101617b0 f   Physics_Parametric.obj
 0001:001607b0       ?Event_Touch@idLiquid@@AAEXPAVidEntity@@PAUtrace_s@@@Z 101617b0 f   Misc.obj
 0001:001607b0       ?SetLinearVelocity@idPhysics_Base@@UAEXABVidVec3@@H@Z 101617b0 f   Physics_Base.obj
 0001:001607b0       ?Rotate@idPhysics_Base@@UAEXABVidRotation@@H@Z 101617b0 f   Physics_Base.obj
 0001:001607b0       ?SetClipMask@idPhysics_Static@@UAEXHH@Z 101617b0 f   Physics_Static.obj
 0001:001607b0       ?SetLinearVelocity@idPhysics_StaticMulti@@UAEXABVidVec3@@H@Z 101617b0 f   Physics_StaticMulti.obj
 0001:001607b0       ?Translate@idPhysics_Base@@UAEXABVidVec3@@H@Z 101617b0 f   Physics_Base.obj
 0001:001607c0       ?ClipRotation@idPhysics_Static@@UBEXAAUtrace_s@@ABVidRotation@@PBVidClipModel@@@Z 101617c0 f   Physics_Static.obj
 0001:00160830       ?ClipContents@idPhysics_Static@@UBEHPBVidClipModel@@@Z 10161830 f   Physics_Static.obj
 0001:001608a0       ?DisableClip@idPhysics_Static@@UAEXXZ 101618a0 f   Physics_Static.obj
 0001:001608b0       ?EnableClip@idPhysics_Static@@UAEXXZ 101618b0 f   Physics_Static.obj
 0001:001608c0       ?UnlinkClip@idPhysics_Static@@UAEXXZ 101618c0 f   Physics_Static.obj
 0001:001608d0       ?LinkClip@idPhysics_Static@@UAEXXZ 101618d0 f   Physics_Static.obj
 0001:00160900       ??1idPhysics_Static@@UAE@XZ 10161900 f   Physics_Static.obj
 0001:00160990       ?GetAbsBounds@idPhysics_Static@@UBEABVidBounds@@H@Z 10161990 f   Physics_Static.obj
 0001:00160a00       ?Evaluate@idPhysics_Static@@UAE_NHH@Z 10161a00 f   Physics_Static.obj
 0001:00160df0       ?SetOrigin@idPhysics_Static@@UAEXABVidVec3@@H@Z 10161df0 f   Physics_Static.obj
 0001:00160ef0       ?SetAxis@idPhysics_Static@@UAEXABVidMat3@@H@Z 10161ef0 f   Physics_Static.obj
 0001:00161100       ?Translate@idPhysics_Static@@UAEXABVidVec3@@H@Z 10162100 f   Physics_Static.obj
 0001:00161160       ?Rotate@idPhysics_Static@@UAEXABVidRotation@@H@Z 10162160 f   Physics_Static.obj
 0001:001615b0       ?GetGravity@idPhysics_Static@@UBEABVidVec3@@XZ 101625b0 f   Physics_Static.obj
 0001:001615f0       ?GetGravityNormal@idPhysics_Static@@UBEABVidVec3@@XZ 101625f0 f   Physics_Static.obj
 0001:00161630       ?ClipTranslation@idPhysics_Static@@UBEXAAUtrace_s@@ABVidVec3@@PBVidClipModel@@@Z 10162630 f   Physics_Static.obj
 0001:001616f0       ?SetMaster@idPhysics_Static@@UAEXPAVidEntity@@_N@Z 101626f0 f   Physics_Static.obj
 0001:00161950       ?WriteToSnapshot@idPhysics_Static@@UBEXAAVidBitMsgDelta@@@Z 10162950 f   Physics_Static.obj
 0001:00161b00       ?ReadFromSnapshot@idPhysics_Static@@UAEXABVidBitMsgDelta@@@Z 10162b00 f   Physics_Static.obj
 0001:00161cb0       ??0idPhysics_Static@@QAE@XZ 10162cb0 f   Physics_Static.obj
 0001:00161d80       ??_EidPhysics_Static@@UAEPAXI@Z 10162d80 f i Physics_Static.obj
 0001:00161d80       ??_GidPhysics_Static@@UAEPAXI@Z 10162d80 f i Physics_Static.obj
 0001:00161da0       ?GetContact@idPhysics_Static@@UBEABUcontactInfo_t@@H@Z 10162da0 f   Physics_Static.obj
 0001:00161dd0       ?CreateInstance@idPhysics_Static@@SAPAVidClass@@XZ 10162dd0 f   Physics_Static.obj
 0001:00161e40       ?GetType@idPhysics_StaticMulti@@UBEPAVidTypeInfo@@XZ 10162e40 f   Physics_StaticMulti.obj
 0001:00161e50       ?GetMass@idPhysics_StaticMulti@@UBEMH@Z 10162e50 f   Physics_StaticMulti.obj
 0001:00161e50       ?GetMass@idPhysics_Parametric@@UBEMH@Z 10162e50 f   Physics_Parametric.obj
 0001:00161e50       ?GetMass@idPhysics_Base@@UBEMH@Z 10162e50 f   Physics_Base.obj
 0001:00161e50       ?GetMass@idPhysics_Static@@UBEMH@Z 10162e50 f   Physics_Static.obj
 0001:00161e60       ?GetClipMask@idPhysics_Static@@UBEHH@Z 10162e60 f   Physics_Static.obj
 0001:00161e60       ?GetClipMask@idPhysics_StaticMulti@@UBEHH@Z 10162e60 f   Physics_StaticMulti.obj
 0001:00161e60       ?ClipContents@idPhysics_Base@@UBEHPBVidClipModel@@@Z 10162e60 f   Physics_Base.obj
 0001:00161e60       ?GetClipModel@idPhysics_Base@@UBEPAVidClipModel@@H@Z 10162e60 f   Physics_Base.obj
 0001:00161e60       ?GetContents@idPhysics_Base@@UBEHH@Z 10162e60 f   Physics_Base.obj
 0001:00161e70       ?GetImpactInfo@idPhysics_StaticMulti@@UBEXHABVidVec3@@PAUimpactInfo_s@@@Z 10162e70 f   Physics_StaticMulti.obj
 0001:00161e70       ?GetImpactInfo@idPhysics_Static@@UBEXHABVidVec3@@PAUimpactInfo_s@@@Z 10162e70 f   Physics_Static.obj
 0001:00161e70       ?GetImpactInfo@idPhysics_Base@@UBEXHABVidVec3@@PAUimpactInfo_s@@@Z 10162e70 f   Physics_Base.obj
 0001:00161e90       ?IsPushable@idPhysics_Base@@UBE_NXZ 10162e90 f   Physics_Base.obj
 0001:00161e90       ?IsAtRest@idPhysics_Static@@UBE_NXZ 10162e90 f   Physics_Static.obj
 0001:00161e90       ?CanPlayChatterSounds@idEntity@@UBE_NXZ 10162e90 f   Entity.obj
 0001:00161e90       ?IsAtRest@idPhysics_StaticMulti@@UBE_NXZ 10162e90 f   Physics_StaticMulti.obj
 0001:00161e90       ?ShouldConstructScriptObjectAtSpawn@idEntity@@UBE_NXZ 10162e90 f   Entity.obj
 0001:00161e90       ?HasAccum@FullscreenFX_Helltime@@UAE_NXZ 10162e90 f   PlayerView.obj
 0001:00161e90       ?HasAccum@FullscreenFX_Multiplayer@@UAE_NXZ 10162e90 f   PlayerView.obj
 0001:00161e90       ?IsAtRest@idPhysics_Base@@UBE_NXZ 10162e90 f   Physics_Base.obj
 0001:00161ea0       ?GetOrigin@idPhysics_Base@@UBEABVidVec3@@H@Z 10162ea0 f   Physics_Base.obj
 0001:00161ea0       ?GetPushedLinearVelocity@idPhysics_StaticMulti@@UBEABVidVec3@@H@Z 10162ea0 f   Physics_StaticMulti.obj
 0001:00161ea0       ?GetPushedAngularVelocity@idPhysics_StaticMulti@@UBEABVidVec3@@H@Z 10162ea0 f   Physics_StaticMulti.obj
 0001:00161ea0       ?GetAngularVelocity@idPhysics_StaticMulti@@UBEABVidVec3@@H@Z 10162ea0 f   Physics_StaticMulti.obj
 0001:00161ea0       ?GetPushedLinearVelocity@idPhysics_Static@@UBEABVidVec3@@H@Z 10162ea0 f   Physics_Static.obj
 0001:00161ea0       ?GetPushedLinearVelocity@idPhysics_Base@@UBEABVidVec3@@H@Z 10162ea0 f   Physics_Base.obj
 0001:00161ea0       ?GetAngularVelocity@idPhysics_Static@@UBEABVidVec3@@H@Z 10162ea0 f   Physics_Static.obj
 0001:00161ea0       ?GetLinearVelocity@idPhysics_StaticMulti@@UBEABVidVec3@@H@Z 10162ea0 f   Physics_StaticMulti.obj
 0001:00161ea0       ?GetLinearVelocity@idPhysics_Base@@UBEABVidVec3@@H@Z 10162ea0 f   Physics_Base.obj
 0001:00161ea0       ?GetLinearVelocity@idPhysics_Static@@UBEABVidVec3@@H@Z 10162ea0 f   Physics_Static.obj
 0001:00161ea0       ?GetPushedAngularVelocity@idPhysics_Static@@UBEABVidVec3@@H@Z 10162ea0 f   Physics_Static.obj
 0001:00161ea0       ?GetAngularVelocity@idPhysics_Base@@UBEABVidVec3@@H@Z 10162ea0 f   Physics_Base.obj
 0001:00161ea0       ?GetPushedAngularVelocity@idPhysics_Base@@UBEABVidVec3@@H@Z 10162ea0 f   Physics_Base.obj
 0001:00161eb0       ?ClipTranslation@idPhysics_StaticMulti@@UBEXAAUtrace_s@@ABVidVec3@@PBVidClipModel@@@Z 10162eb0 f   Physics_StaticMulti.obj
 0001:00161ee0       ?ClipRotation@idPhysics_StaticMulti@@UBEXAAUtrace_s@@ABVidRotation@@PBVidClipModel@@@Z 10162ee0 f   Physics_StaticMulti.obj
 0001:00161f10       ?IsGroundEntity@idPhysics_Static@@UBE_NH@Z 10162f10 f   Physics_Static.obj
 0001:00161f10       ?IsGroundEntity@idPhysics_StaticMulti@@UBE_NH@Z 10162f10 f   Physics_StaticMulti.obj
 0001:00161f20       ?GetLinearEndTime@idPhysics_Base@@UBEHXZ 10162f20 f   Physics_Base.obj
 0001:00161f20       ?GetNumContacts@idPhysics_Static@@UBEHXZ 10162f20 f   Physics_Static.obj
 0001:00161f20       ?GetRestStartTime@idPhysics_Base@@UBEHXZ 10162f20 f   Physics_Base.obj
 0001:00161f20       ?GetNumContacts@idPhysics_StaticMulti@@UBEHXZ 10162f20 f   Physics_StaticMulti.obj
 0001:00161f20       ?GetBlockingEntity@idPhysics_Static@@UBEPAVidEntity@@XZ 10162f20 f   Physics_Static.obj
 0001:00161f20       ?GetLinearEndTime@idPhysics_StaticMulti@@UBEHXZ 10162f20 f   Physics_StaticMulti.obj
 0001:00161f20       ?GetAnimator@idEntity@@UAEPAVidAnimator@@XZ 10162f20 f   Entity.obj
 0001:00161f20       ?GetAngularEndTime@idPhysics_Static@@UBEHXZ 10162f20 f   Physics_Static.obj
 0001:00161f20       ?GetRestStartTime@idPhysics_Static@@UBEHXZ 10162f20 f   Physics_Static.obj
 0001:00161f20       ?GetNumClipModels@idPhysics_Base@@UBEHXZ 10162f20 f   Physics_Base.obj
 0001:00161f20       ?GetBlockingEntity@idPhysics_StaticMulti@@UBEPAVidEntity@@XZ 10162f20 f   Physics_StaticMulti.obj
 0001:00161f20       ?GetLinearEndTime@idPhysics_Static@@UBEHXZ 10162f20 f   Physics_Static.obj
 0001:00161f20       ?GetAngularEndTime@idPhysics_Base@@UBEHXZ 10162f20 f   Physics_Base.obj
 0001:00161f20       ?GetTime@idPhysics_Static@@UBEHXZ 10162f20 f   Physics_Static.obj
 0001:00161f20       ?GetRestStartTime@idPhysics_StaticMulti@@UBEHXZ 10162f20 f   Physics_StaticMulti.obj
 0001:00161f20       ?GetBlockingEntity@idPhysics_Base@@UBEPAVidEntity@@XZ 10162f20 f   Physics_Base.obj
 0001:00161f20       ?GetBlockingInfo@idPhysics_Static@@UBEPBUtrace_s@@XZ 10162f20 f   Physics_Static.obj
 0001:00161f20       ?GetAngularEndTime@idPhysics_StaticMulti@@UBEHXZ 10162f20 f   Physics_StaticMulti.obj
 0001:00161f20       ?GetTime@idPhysics_Base@@UBEHXZ 10162f20 f   Physics_Base.obj
 0001:00161f20       ?GetBlockingInfo@idPhysics_StaticMulti@@UBEPBUtrace_s@@XZ 10162f20 f   Physics_StaticMulti.obj
 0001:00161f20       ?GetTime@idPhysics_StaticMulti@@UBEHXZ 10162f20 f   Physics_StaticMulti.obj
 0001:00161f20       ?GetBlockingInfo@idPhysics_Base@@UBEPBUtrace_s@@XZ 10162f20 f   Physics_Base.obj
 0001:00161f30       ??4staticPState_s@@QAEAAU0@ABU0@@Z 10162f30 f i Physics_StaticMulti.obj
 0001:00161fd0       ?Save@idPhysics_StaticMulti@@QBEXPAVidSaveGame@@@Z 10162fd0 f   Physics_StaticMulti.obj
 0001:00162090       ?GetClipModel@idPhysics_StaticMulti@@UBEPAVidClipModel@@H@Z 10163090 f   Physics_StaticMulti.obj
 0001:001620c0       ?SetContents@idPhysics_StaticMulti@@UAEXHH@Z 101630c0 f   Physics_StaticMulti.obj
 0001:00162120       ?GetContents@idPhysics_StaticMulti@@UBEHH@Z 10163120 f   Physics_StaticMulti.obj
 0001:00162170       ?GetBounds@idPhysics_StaticMulti@@UBEABVidBounds@@H@Z 10163170 f   Physics_StaticMulti.obj
 0001:00162350       ?GetAbsBounds@idPhysics_StaticMulti@@UBEABVidBounds@@H@Z 10163350 f   Physics_StaticMulti.obj
 0001:001624a0       ?Evaluate@idPhysics_StaticMulti@@UAE_NHH@Z 101634a0 f   Physics_StaticMulti.obj
 0001:00162750       ?SetOrigin@idPhysics_StaticMulti@@UAEXABVidVec3@@H@Z 10163750 f   Physics_StaticMulti.obj
 0001:001629a0       ?Translate@idPhysics_StaticMulti@@UAEXABVidVec3@@H@Z 101639a0 f   Physics_StaticMulti.obj
 0001:00162ac0       ?Rotate@idPhysics_StaticMulti@@UAEXABVidRotation@@H@Z 10163ac0 f   Physics_StaticMulti.obj
 0001:001633f0       ?GetOrigin@idPhysics_StaticMulti@@UBEABVidVec3@@H@Z 101643f0 f   Physics_StaticMulti.obj
 0001:00163420       ?GetAxis@idPhysics_StaticMulti@@UBEABVidMat3@@H@Z 10164420 f   Physics_StaticMulti.obj
 0001:00163460       ?GetGravity@idPhysics_StaticMulti@@UBEABVidVec3@@XZ 10164460 f   Physics_StaticMulti.obj
 0001:001634a0       ?GetGravityNormal@idPhysics_StaticMulti@@UBEABVidVec3@@XZ 101644a0 f   Physics_StaticMulti.obj
 0001:001634e0       ?ClipContents@idPhysics_StaticMulti@@UBEHPBVidClipModel@@@Z 101644e0 f   Physics_StaticMulti.obj
 0001:00163590       ?DisableClip@idPhysics_StaticMulti@@UAEXXZ 10164590 f   Physics_StaticMulti.obj
 0001:001635c0       ?EnableClip@idPhysics_StaticMulti@@UAEXXZ 101645c0 f   Physics_StaticMulti.obj
 0001:001635f0       ?UnlinkClip@idPhysics_StaticMulti@@UAEXXZ 101645f0 f   Physics_StaticMulti.obj
 0001:00163620       ?LinkClip@idPhysics_StaticMulti@@UAEXXZ 10164620 f   Physics_StaticMulti.obj
 0001:00163670       ?SetMaster@idPhysics_StaticMulti@@UAEXPAVidEntity@@_N@Z 10164670 f   Physics_StaticMulti.obj
 0001:00163910       ?WriteToSnapshot@idPhysics_StaticMulti@@UBEXAAVidBitMsgDelta@@@Z 10164910 f   Physics_StaticMulti.obj
 0001:00163b00       ?ReadFromSnapshot@idPhysics_StaticMulti@@UAEXABVidBitMsgDelta@@@Z 10164b00 f   Physics_StaticMulti.obj
 0001:00163d10       ??1idPhysics_StaticMulti@@UAE@XZ 10164d10 f   Physics_StaticMulti.obj
 0001:00163df0       ?RemoveIndex@idPhysics_StaticMulti@@QAEXH_N@Z 10164df0 f   Physics_StaticMulti.obj
 0001:00163ea0       ?SetAxis@idPhysics_StaticMulti@@UAEXABVidMat3@@H@Z 10164ea0 f   Physics_StaticMulti.obj
 0001:001645c0       ?GetContact@idPhysics_StaticMulti@@UBEABUcontactInfo_t@@H@Z 101655c0 f   Physics_StaticMulti.obj
 0001:001645f0       ??0idPhysics_StaticMulti@@QAE@XZ 101655f0 f   Physics_StaticMulti.obj
 0001:00164820       ??_GidPhysics_StaticMulti@@UAEPAXI@Z 10165820 f i Physics_StaticMulti.obj
 0001:00164820       ??_EidPhysics_StaticMulti@@UAEPAXI@Z 10165820 f i Physics_StaticMulti.obj
 0001:00164840       ?Restore@idPhysics_StaticMulti@@QAEXPAVidRestoreGame@@@Z 10165840 f   Physics_StaticMulti.obj
 0001:00164a50       ?SetClipModel@idPhysics_StaticMulti@@UAEXPAVidClipModel@@MH_N@Z 10165a50 f   Physics_StaticMulti.obj
 0001:00164dc0       ?CreateInstance@idPhysics_StaticMulti@@SAPAVidClass@@XZ 10165dc0 f   Physics_StaticMulti.obj
 0001:00164e60       ?InitSavingPushedEntityPositions@idPush@@QAEXXZ 10165e60 f   Push.obj
 0001:00164e70       ?RestorePushedEntityPositions@idPush@@QAEXXZ 10165e70 f   Push.obj
 0001:00164ed0       ?DiscardEntities@idPush@@AAEHQAPAVidEntity@@HHPAV2@@Z 10165ed0 f   Push.obj
 0001:00164fe0       ?SaveEntityPosition@idPush@@AAEXPAVidEntity@@@Z 10165fe0 f   Push.obj
 0001:00165090       ?TryTranslatePushEntity@idPush@@AAEHAAUtrace_s@@PAVidEntity@@PAVidClipModel@@HABVidVec3@@3@Z 10166090 f   Push.obj
 0001:00165360       ?RotateEntityToAxial@idPush@@AAE_NPAVidEntity@@VidVec3@@@Z 10166360 f   Push.obj
 0001:00165680       ?TryRotatePushEntity@idPush@@AAEHAAUtrace_s@@PAVidEntity@@PAVidClipModel@@HABVidMat3@@ABVidRotation@@@Z 10166680 f   Push.obj
 0001:00165be0       ?ClipTranslationalPush@idPush@@QAEMAAUtrace_s@@PAVidEntity@@HABVidVec3@@2@Z 10166be0 f   Push.obj
 0001:00166310       ?ClipRotationalPush@idPush@@QAEMAAUtrace_s@@PAVidEntity@@HABVidMat3@@ABVidRotation@@@Z 10167310 f   Push.obj
 0001:001669b0       ?ClipPush@idPush@@QAEMAAUtrace_s@@PAVidEntity@@HABVidVec3@@ABVidMat3@@AAV4@AAV5@@Z 101679b0 f   Push.obj
 0001:00167780       ??0idCompiler@@QAE@XZ      10168780 f   Script_Compiler.obj
 0001:00167880       ?Error@idCompiler@@ABAXPBDZZ 10168880 f   Script_Compiler.obj
 0001:001678f0       ?FindImmediate@idCompiler@@ABEPAVidVarDef@@PBVidTypeDef@@PBTeval_s@@PBD@Z 101688f0 f   Script_Compiler.obj
 0001:00167a10       ?GetImmediate@idCompiler@@AAEPAVidVarDef@@PAVidTypeDef@@PBTeval_s@@PBD@Z 10168a10 f   Script_Compiler.obj
 0001:00167a80       ?OptimizeOpcode@idCompiler@@AAEPAVidVarDef@@PBUopcode_s@@PAV2@1@Z 10168a80 f   Script_Compiler.obj
 0001:00168260       ?EmitOpcode@idCompiler@@AAEPAVidVarDef@@PBUopcode_s@@PAV2@1@Z 10169260 f   Script_Compiler.obj
 0001:00168360       ?EmitPush@idCompiler@@AAE_NPAVidVarDef@@PBVidTypeDef@@@Z 10169360 f   Script_Compiler.obj
 0001:00168420       ?NextToken@idCompiler@@AAEXXZ 10169420 f   Script_Compiler.obj
 0001:001688a0       ?ExpectToken@idCompiler@@AAEXPBD@Z 101698a0 f   Script_Compiler.obj
 0001:001688e0       ?CheckToken@idCompiler@@AAE_NPBD@Z 101698e0 f   Script_Compiler.obj
 0001:00168910       ?CheckType@idCompiler@@AAEPAVidTypeDef@@XZ 10169910 f   Script_Compiler.obj
 0001:00168a50       ?ParseType@idCompiler@@AAEPAVidTypeDef@@XZ 10169a50 f   Script_Compiler.obj
 0001:00168ad0       ?ParseImmediate@idCompiler@@AAEPAVidVarDef@@XZ 10169ad0 f   Script_Compiler.obj
 0001:00168b00       ?ParseName@idCompiler@@AAEXAAVidStr@@@Z 10169b00 f   Script_Compiler.obj
 0001:00168b60       ?EmitFunctionParms@idCompiler@@AAEPAVidVarDef@@HPAV2@HH0@Z 10169b60 f   Script_Compiler.obj
 0001:00168f80       ?ParseObjectCall@idCompiler@@AAEPAVidVarDef@@PAV2@0@Z 10169f80 f   Script_Compiler.obj
 0001:00168fe0       ?ParseEventCall@idCompiler@@AAEPAVidVarDef@@PAV2@0@Z 10169fe0 f   Script_Compiler.obj
 0001:00169090       ?ParseSysObjectCall@idCompiler@@AAEPAVidVarDef@@PAV2@@Z 1016a090 f   Script_Compiler.obj
 0001:00169130       ?LookupDef@idCompiler@@AAEPAVidVarDef@@PBDPBV2@@Z 1016a130 f   Script_Compiler.obj
 0001:00169430       ?ParseValue@idCompiler@@AAEPAVidVarDef@@XZ 1016a430 f   Script_Compiler.obj
 0001:00169650       ?GetTerm@idCompiler@@AAEPAVidVarDef@@XZ 1016a650 f   Script_Compiler.obj
 0001:001699b0       ?PatchLoop@idCompiler@@AAEXHH@Z 1016a9b0 f   Script_Compiler.obj
 0001:00169b30       ?ParseFunctionCall@idCompiler@@AAEPAVidVarDef@@PAV2@@Z 1016ab30 f   Script_Compiler.obj
 0001:00169c50       ?GetExpression@idCompiler@@AAEPAVidVarDef@@H@Z 1016ac50 f   Script_Compiler.obj
 0001:0016a1f0       ?ParseReturnStatement@idCompiler@@AAEXXZ 1016b1f0 f   Script_Compiler.obj
 0001:0016a3c0       ?ParseWhileStatement@idCompiler@@AAEXXZ 1016b3c0 f   Script_Compiler.obj
 0001:0016a670       ?ParseForStatement@idCompiler@@AAEXXZ 1016b670 f   Script_Compiler.obj
 0001:0016aa80       ?ParseDoWhileStatement@idCompiler@@AAEXXZ 1016ba80 f   Script_Compiler.obj
 0001:0016ac10       ?ParseIfStatement@idCompiler@@AAEXXZ 1016bc10 f   Script_Compiler.obj
 0001:0016aed0       ?ParseStatement@idCompiler@@AAEXXZ 1016bed0 f   Script_Compiler.obj
 0001:0016b080       ??1idTypeDef@@QAE@XZ       1016c080 f i Script_Compiler.obj
 0001:0016b140       ?ParseFunction@idCompiler@@AAEPAVidTypeDef@@PAV2@PBD@Z 1016c140 f   Script_Compiler.obj
 0001:0016b390       ?ParseFunctionDef@idCompiler@@AAEXPAVidTypeDef@@PBD@Z 1016c390 f   Script_Compiler.obj
 0001:0016b990       ?ParseVariableDef@idCompiler@@AAEXPAVidTypeDef@@PBD@Z 1016c990 f   Script_Compiler.obj
 0001:0016bd40       ?ParseEventDef@idCompiler@@AAEXPAVidTypeDef@@PBD@Z 1016cd40 f   Script_Compiler.obj
 0001:0016c280       ?ParseObjectDef@idCompiler@@AAEXPBD@Z 1016d280 f   Script_Compiler.obj
 0001:0016c650       ?ParseDefs@idCompiler@@AAEXXZ 1016d650 f   Script_Compiler.obj
 0001:0016c890       ?ParseNamespace@idCompiler@@AAEXPAVidVarDef@@@Z 1016d890 f   Script_Compiler.obj
 0001:0016c940       ?CompileFile@idCompiler@@QAEXPBD0_N@Z 1016d940 f   Script_Compiler.obj
 0001:0016cc20       ?SetThread@idInterpreter@@QAEXPAVidThread@@@Z 1016dc20 f   Script_Interpreter.obj
 0001:0016cc30       ?MultiFrameEventInProgress@idInterpreter@@QBE_NXZ 1016dc30 f   Script_Interpreter.obj
 0001:0016cc40       ??0idInterpreter@@QAE@XZ   1016dc40 f   Script_Interpreter.obj
 0001:0016ccc0       ?Save@idInterpreter@@QBEXPAVidSaveGame@@@Z 1016dcc0 f   Script_Interpreter.obj
 0001:0016ce50       ?Restore@idInterpreter@@QAEXPAVidRestoreGame@@@Z 1016de50 f   Script_Interpreter.obj
 0001:0016d030       ?CurrentLine@idInterpreter@@QBEHXZ 1016e030 f   Script_Interpreter.obj
 0001:0016d050       ?CurrentFile@idInterpreter@@QBEPBDXZ 1016e050 f   Script_Interpreter.obj
 0001:0016d080       ?StackTrace@idInterpreter@@QBEXXZ 1016e080 f   Script_Interpreter.obj
 0001:0016d160       ?Error@idInterpreter@@QBAXPADZZ 1016e160 f   Script_Interpreter.obj
 0001:0016d230       ?Warning@idInterpreter@@QBAXPADZZ 1016e230 f   Script_Interpreter.obj
 0001:0016d2f0       ?BeginMultiFrameEvent@idInterpreter@@QAE_NPAVidEntity@@PBVidEventDef@@@Z 1016e2f0 f   Script_Interpreter.obj
 0001:0016d350       ?EndMultiFrameEvent@idInterpreter@@QAEXPAVidEntity@@PBVidEventDef@@@Z 1016e350 f   Script_Interpreter.obj
 0001:0016d380       ?EnterFunction@idInterpreter@@QAEXPBVfunction_t@@_N@Z 1016e380 f   Script_Interpreter.obj
 0001:0016d580       ?LeaveFunction@idInterpreter@@AAEXPAVidVarDef@@@Z 1016e580 f   Script_Interpreter.obj
 0001:0016d780       ?CallEvent@idInterpreter@@AAEXPBVfunction_t@@H@Z 1016e780 f   Script_Interpreter.obj
 0001:0016db50       ?CallSysEvent@idInterpreter@@AAEXPBVfunction_t@@H@Z 1016eb50 f   Script_Interpreter.obj
 0001:0016dd70       ?Execute@idInterpreter@@QAE_NXZ 1016ed70 f   Script_Interpreter.obj
 0001:00171000       ?ThreadCall@idInterpreter@@QAEXPAV1@PBVfunction_t@@H@Z 10172000 f   Script_Interpreter.obj
 0001:001710c0       ?EnterObjectFunction@idInterpreter@@QAEXPAVidEntity@@PBVfunction_t@@_N@Z 101720c0 f   Script_Interpreter.obj
 0001:00171190       ?Inherits@idTypeDef@@QBE_NPBV1@@Z 10172190 f   Script_Program.obj
 0001:001711c0       ?SetName@idTypeDef@@QAEXPBD@Z 101721c0 f   Script_Program.obj
 0001:001711d0       ?GetNumContacts@idPhysics_Base@@UBEHXZ 101721d0 f   Physics_Base.obj
 0001:001711d0       ?Size@idTypeDef@@QBEHXZ    101721d0 f   Script_Program.obj
 0001:001711e0       ?SetObject@idVarDef@@QAEXPAVidScriptObject@@@Z 101721e0 f   Script_Program.obj
 0001:001711f0       ?SetString@idVarDef@@QAEXPBD_N@Z 101721f0 f   Script_Program.obj
 0001:00171220       ?RemoveDef@idVarDefName@@QAEXPAVidVarDef@@@Z 10172220 f   Script_Program.obj
 0001:00171270       ??0idScriptObject@@QAE@XZ  10172270 f   Script_Program.obj
 0001:00171280       ?ClearObject@idScriptObject@@QAEXXZ 10172280 f   Script_Program.obj
 0001:001712a0       ?HasObject@idScriptObject@@QBE_NXZ 101722a0 f   Script_Program.obj
 0001:001712b0       ?ReturnEntity@idProgram@@QAEXPAVidEntity@@@Z 101722b0 f   Script_Program.obj
 0001:001712e0       ?GetEntity@idAnimator@@QBEPAVidEntity@@XZ 101722e0 f   Anim_Blend.obj
 0001:001712e0       ?GetMaxIterations@idLCP@@UAEHXZ 101722e0 f   idLib:Lcp.obj
 0001:001712e0       ?Name@function_t@@QBEPBDXZ 101722e0 f   Script_Program.obj
 0001:001712f0       ?MatchesType@idTypeDef@@QBE_NABV1@@Z 101722f0 f   Script_Program.obj
 0001:00171350       ?MatchesVirtualFunction@idTypeDef@@QBE_NABV1@@Z 10172350 f   Script_Program.obj
 0001:001713d0       ?SuperClass@idTypeDef@@QBEPAV1@XZ 101723d0 f   Script_Program.obj
 0001:00171430       ?ReturnType@idTypeDef@@QBEPAV1@XZ 10172430 f   Script_Program.obj
 0001:00171490       ?FieldType@idTypeDef@@QBEPAV1@XZ 10172490 f   Script_Program.obj
 0001:001714f0       ?SetFieldType@idTypeDef@@QAEXPAV1@@Z 101724f0 f   Script_Program.obj
 0001:00171550       ?PointerType@idTypeDef@@QBEPAV1@XZ 10172550 f   Script_Program.obj
 0001:001715b0       ?SetPointerType@idTypeDef@@QAEXPAV1@@Z 101725b0 f   Script_Program.obj
 0001:00171610       ?GetBoundaryType@?$idCurve_Spline@VidVec3@@@@UBE?AW4boundary_t@1@XZ 10172610 f   Entity.obj
 0001:00171610       ?NumParameters@idTypeDef@@QBEHXZ 10172610 f   Script_Program.obj
 0001:00171620       ?GetParmType@idTypeDef@@QBEPAV1@H@Z 10172620 f   Script_Program.obj
 0001:00171630       ?GetParmName@idTypeDef@@QBEPBDH@Z 10172630 f   Script_Program.obj
 0001:00171650       ?NumFunctions@idTypeDef@@QBEHXZ 10172650 f   Script_Program.obj
 0001:00171660       ?GetFunctionNumber@idTypeDef@@QBEHPBVfunction_t@@@Z 10172660 f   Script_Program.obj
 0001:00171690       ?GetFunction@idTypeDef@@QBEPBVfunction_t@@H@Z 10172690 f   Script_Program.obj
 0001:001716a0       ?Name@idVarDef@@QBEPBDXZ   101726a0 f   Script_Program.obj
 0001:001716b0       ?GlobalName@idVarDef@@QBEPBDXZ 101726b0 f   Script_Program.obj
 0001:001716e0       ?SetValue@idVarDef@@QAEXABTeval_s@@_N@Z 101726e0 f   Script_Program.obj
 0001:00171830       ?PrintInfo@idVarDef@@QBEXPAVidFile@@H@Z 10172830 f   Script_Program.obj
 0001:00171ae0       ?Free@idScriptObject@@QAEXXZ 10172ae0 f   Script_Program.obj
 0001:00171ae0       ??1idScriptObject@@QAE@XZ  10172ae0 f   Script_Program.obj
 0001:00171b10       ?Save@idScriptObject@@QBEXPAVidSaveGame@@@Z 10172b10 f   Script_Program.obj
 0001:00171b70       ?GetTypeName@idScriptObject@@QBEPBDXZ 10172b70 f   Script_Program.obj
 0001:00171b80       ?GetVariable@idScriptObject@@QBEPAEPBDW4etype_t@@@Z 10172b80 f   Script_Program.obj
 0001:00171d90       ?FindType@idProgram@@QAEPAVidTypeDef@@PBD@Z 10172d90 f   Script_Program.obj
 0001:00171de0       ?AllocStatement@idProgram@@QAEPAUstatement_s@@XZ 10172de0 f   Script_Program.obj
 0001:00171e70       ?DisassembleStatement@idProgram@@QBEXPAVidFile@@H@Z 10172e70 f   Script_Program.obj
 0001:00171f40       ?Disassemble@idProgram@@QBEXXZ 10172f40 f   Script_Program.obj
 0001:00171ff0       ?FinishCompilation@idProgram@@QAEXXZ 10172ff0 f   Script_Program.obj
 0001:00172060       ??1idCompiler@@QAE@XZ      10173060 f i Script_Program.obj
 0001:001720b0       ?CalculateChecksum@idProgram@@QBEHXZ 101730b0 f   Script_Program.obj
 0001:00172180       ??0function_t@@QAE@XZ      10173180 f   Script_Program.obj
 0001:00172230       ?AddFunction@idTypeDef@@QAEXPBVfunction_t@@@Z 10173230 f   Script_Program.obj
 0001:001723c0       ?SetType@idScriptObject@@QAE_NPBD@Z 101733c0 f   Script_Program.obj
 0001:00172490       ?GetDefList@idProgram@@QBEPAVidVarDef@@PBD@Z 10173490 f   Script_Program.obj
 0001:00172540       ?AddDefToNameList@idProgram@@QAEXPAVidVarDef@@PBD@Z 10173540 f   Script_Program.obj
 0001:00172850       ?GetDef@idProgram@@QBEPAVidVarDef@@PBVidTypeDef@@PBDPBV2@@Z 10173850 f   Script_Program.obj
 0001:00172940       ?FreeDef@idProgram@@QAEXPAVidVarDef@@PBV2@@Z 10173940 f   Script_Program.obj
 0001:00172af0       ?FindFunction@idProgram@@QBEPAVfunction_t@@PBD@Z 10173af0 f   Script_Program.obj
 0001:00172cb0       ?FindFunction@idProgram@@QBEPAVfunction_t@@PBDPBVidTypeDef@@@Z 10173cb0 f   Script_Program.obj
 0001:00172d50       ?AllocFunction@idProgram@@QAEAAVfunction_t@@PAVidVarDef@@@Z 10173d50 f   Script_Program.obj
 0001:00172ec0       ?SetEntity@idProgram@@QAEXPBDPAVidEntity@@@Z 10173ec0 f   Script_Program.obj
 0001:00172fd0       ?CompileStats@idProgram@@AAEXXZ 10173fd0 f   Script_Program.obj
 0001:00173210       ?Save@idProgram@@QBEXPAVidSaveGame@@@Z 10174210 f   Script_Program.obj
 0001:001732e0       ??1function_t@@QAE@XZ      101742e0 f i Script_Program.obj
 0001:00173340       ??0idTypeDef@@QAE@W4etype_t@@PAVidVarDef@@PBDHPAV0@@Z 10174340 f   Script_Program.obj
 0001:00173610       ??4idTypeDef@@QAEXABV0@@Z  10174610 f   Script_Program.obj
 0001:00173880       ?AddFunctionParm@idTypeDef@@QAEXPAV1@PBD@Z 10174880 f   Script_Program.obj
 0001:00173c80       ?AddField@idTypeDef@@QAEXPAV1@PBD@Z 10174c80 f   Script_Program.obj
 0001:001740e0       ?Restore@idScriptObject@@QAEXPAVidRestoreGame@@@Z 101750e0 f   Script_Program.obj
 0001:001741c0       ?GetFunction@idScriptObject@@QBEPBVfunction_t@@PBD@Z 101751c0 f   Script_Program.obj
 0001:001741f0       ?AllocType@idProgram@@QAEPAVidTypeDef@@W4etype_t@@PAVidVarDef@@PBDHPAV2@@Z 101751f0 f   Script_Program.obj
 0001:001743e0       ??1?$idStaticList@Vfunction_t@@$0OAA@@@QAE@XZ 101753e0 f i Script_Program.obj
 0001:00174400       ?GetConstructor@idScriptObject@@QBEPBVfunction_t@@XZ 10175400 f   Script_Program.obj
 0001:00174420       ?GetDestructor@idScriptObject@@QBEPBVfunction_t@@XZ 10175420 f   Script_Program.obj
 0001:00174440       ?AllocType@idProgram@@QAEPAVidTypeDef@@AAV2@@Z 10175440 f   Script_Program.obj
 0001:00174670       ?GetType@idProgram@@QAEPAVidTypeDef@@AAV2@_N@Z 10175670 f   Script_Program.obj
 0001:00174740       ?AllocDef@idProgram@@QAEPAVidVarDef@@PAVidTypeDef@@PBDPAV2@_N@Z 10175740 f   Script_Program.obj
 0001:00174cc0       ?FindFreeResultDef@idProgram@@QAEPAVidVarDef@@PAVidTypeDef@@PBDPAV2@PBV2@3@Z 10175cc0 f   Script_Program.obj
 0001:00174d20       ?FreeData@idProgram@@QAEXXZ 10175d20 f   Script_Program.obj
 0001:00174fb0       ?Restart@idProgram@@QAEXXZ 10175fb0 f   Script_Program.obj
 0001:00175410       ?GetFilenum@idProgram@@QAEHPBD@Z 10176410 f   Script_Program.obj
 0001:00175a80       ??0idProgram@@QAE@XZ       10176a80 f   Script_Program.obj
 0001:00175b80       ??1idProgram@@QAE@XZ       10176b80 f   Script_Program.obj
 0001:00175cb0       ?BeginCompilation@idProgram@@QAEXXZ 10176cb0 f   Script_Program.obj
 0001:00175d80       ?CompileText@idProgram@@QAE_NPBD0_N@Z 10176d80 f   Script_Program.obj
 0001:00175fd0       ?CompileFile@idProgram@@QAEXPBD@Z 10176fd0 f   Script_Program.obj
 0001:00176060       ?Startup@idProgram@@QAEXPBD@Z 10177060 f   Script_Program.obj
 0001:001760b0       ?Restore@idProgram@@QAE_NPAVidRestoreGame@@@Z 101770b0 f   Script_Program.obj
 0001:001761e0       ?GetType@idThread@@UBEPAVidTypeInfo@@XZ 101771e0 f   Script_Thread.obj
 0001:001761f0       ?CurrentThread@idThread@@SAPAV1@XZ 101771f0 f   Script_Thread.obj
 0001:00176200       ?CurrentThreadNum@idThread@@SAHXZ 10177200 f   Script_Thread.obj
 0001:00176220       ?BeginMultiFrameEvent@idThread@@SA_NPAVidEntity@@PBVidEventDef@@@Z 10177220 f   Script_Thread.obj
 0001:00176260       ?EndMultiFrameEvent@idThread@@SAXPAVidEntity@@PBVidEventDef@@@Z 10177260 f   Script_Thread.obj
 0001:001762a0       ?ManualDelete@idThread@@QAEXXZ 101772a0 f   Script_Thread.obj
 0001:001762b0       ?Restore@idThread@@QAEXPAVidRestoreGame@@@Z 101772b0 f   Script_Thread.obj
 0001:00176340       ?DelayedStart@idThread@@QAEXH@Z 10177340 f   Script_Thread.obj
 0001:00176370       ?IsWaiting@idThread@@QAE_NXZ 10177370 f   Script_Thread.obj
 0001:001763a0       ?ObjectMoveDone@idThread@@QAEXPAVidEntity@@@Z 101773a0 f   Script_Thread.obj
 0001:001763f0       ?Event_SetThreadName@idThread@@AAEXPBD@Z 101773f0 f   Script_Thread.obj
 0001:001763f0       ?SetThreadName@idThread@@QAEXPBD@Z 101773f0 f   Script_Thread.obj
 0001:00176400       ?Error@idThread@@QBAXPBDZZ 10177400 f   Script_Thread.obj
 0001:00176440       ?Warning@idThread@@QBAXPBDZZ 10177440 f   Script_Thread.obj
 0001:00176480       ?ReturnString@idThread@@SAXPBD@Z 10177480 f   Script_Thread.obj
 0001:001764a0       ?ReturnFloat@idThread@@SAXM@Z 101774a0 f   Script_Thread.obj
 0001:001764b0       ?ReturnInt@idThread@@SAXH@Z 101774b0 f   Script_Thread.obj
 0001:001764c0       ?ReturnEntity@idThread@@SAXPAVidEntity@@@Z 101774c0 f   Script_Thread.obj
 0001:001764d0       ?Event_Wait@idThread@@AAEXM@Z 101774d0 f   Script_Thread.obj
 0001:001764d0       ?WaitSec@idThread@@QAEXM@Z 101774d0 f   Script_Thread.obj
 0001:00176510       ?WaitFrame@idThread@@QAEXXZ 10177510 f   Script_Thread.obj
 0001:00176510       ?Event_WaitFrame@idThread@@AAEXXZ 10177510 f   Script_Thread.obj
 0001:00176540       ?Event_Pause@idThread@@AAEXXZ 10177540 f   Script_Thread.obj
 0001:00176560       ?Event_WaitFor@idThread@@AAEXPAVidEntity@@@Z 10177560 f   Script_Thread.obj
 0001:001765d0       ?Event_Print@idThread@@AAEXPBD@Z 101775d0 f   Script_Thread.obj
 0001:001765f0       ?Event_PrintLn@idThread@@AAEXPBD@Z 101775f0 f   Script_Thread.obj
 0001:00176610       ?Event_Say@idThread@@AAEXPBD@Z 10177610 f   Script_Thread.obj
 0001:00176640       ?Event_Trigger@idThread@@AAEXPAVidEntity@@@Z 10177640 f   Script_Thread.obj
 0001:00176690       ?Event_SetCvar@idThread@@ABEXPBD0@Z 10177690 f   Script_Thread.obj
 0001:001766b0       ?Event_GetCvar@idThread@@ABEXPBD@Z 101776b0 f   Script_Thread.obj
 0001:001766e0       ?Event_Random@idThread@@ABEXM@Z 101776e0 f   Script_Thread.obj
 0001:00176730       ?Event_RandomInt@idThread@@ABEXH@Z 10177730 f   Script_Thread.obj
 0001:00176780       ?Event_GetTime@idThread@@AAEXXZ 10177780 f   Script_Thread.obj
 0001:001767a0       ?Event_GetEntity@idThread@@AAEXPBD@Z 101777a0 f   Script_Thread.obj
 0001:00176810       ?Event_Spawn@idThread@@AAEXPBD@Z 10177810 f   Script_Thread.obj
 0001:00176860       ?Event_CopySpawnArgs@idThread@@AAEXPAVidEntity@@@Z 10177860 f   Script_Thread.obj
 0001:00176880       ?Event_SetSpawnArg@idThread@@AAEXPBD0@Z 10177880 f   Script_Thread.obj
 0001:00176890       ?Event_SpawnFloat@idThread@@AAEXPBDM@Z 10177890 f   Script_Thread.obj
 0001:001768e0       ?Event_ClearPersistantArgs@idThread@@AAEXXZ 101778e0 f   Script_Thread.obj
 0001:001768f0       ?Event_SetPersistantArg@idThread@@AAEXPBD0@Z 101778f0 f   Script_Thread.obj
 0001:00176900       ?Event_GetPersistantFloat@idThread@@AAEXPBD@Z 10177900 f   Script_Thread.obj
 0001:00176930       ?Event_GetSine@idThread@@AAEXM@Z 10177930 f   Script_Thread.obj
 0001:00176960       ?Event_GetCosine@idThread@@AAEXM@Z 10177960 f   Script_Thread.obj
 0001:00176990       ?Event_GetArcSine@idThread@@AAEXM@Z 10177990 f   Script_Thread.obj
 0001:00176a00       ?Event_GetArcCosine@idThread@@AAEXM@Z 10177a00 f   Script_Thread.obj
 0001:00176a60       ?Event_GetSquareRoot@idThread@@AAEXM@Z 10177a60 f   Script_Thread.obj
 0001:00176af0       ?Event_VecDotProduct@idThread@@AAEXAAVidVec3@@0@Z 10177af0 f   Script_Thread.obj
 0001:00176b30       ?Event_OnSignal@idThread@@AAEXHPAVidEntity@@PBD@Z 10177b30 f   Script_Thread.obj
 0001:00176ba0       ?Event_ClearSignalThread@idThread@@AAEXHPAVidEntity@@@Z 10177ba0 f   Script_Thread.obj
 0001:00176bf0       ?Event_SetCamera@idThread@@AAEXPAVidEntity@@@Z 10177bf0 f   Script_Thread.obj
 0001:00176c50       ?Event_FirstPerson@idThread@@AAEXXZ 10177c50 f   Script_Thread.obj
 0001:00176c60       ?Event_TracePoint@idThread@@AAEXABVidVec3@@0HPAVidEntity@@@Z 10177c60 f   Script_Thread.obj
 0001:00176ca0       ?Event_GetTraceFraction@idThread@@AAEXXZ 10177ca0 f   Script_Thread.obj
 0001:00176cc0       ?Event_GetTraceEntity@idThread@@AAEXXZ 10177cc0 f   Script_Thread.obj
 0001:00176d00       ?Event_GetTraceJoint@idThread@@AAEXXZ 10177d00 f   Script_Thread.obj
 0001:00176da0       ?Event_SetShaderParm@idThread@@AAEXHM@Z 10177da0 f   Script_Thread.obj
 0001:00176dd0       ?Event_StartMusic@idThread@@AAEXPBD@Z 10177dd0 f   Script_Thread.obj
 0001:00176df0       ?Event_Warning@idThread@@AAEXPBD@Z 10177df0 f   Script_Thread.obj
 0001:00176e10       ?Event_Error@idThread@@AAEXPBD@Z 10177e10 f   Script_Thread.obj
 0001:00176e30       ?Event_StrLen@idThread@@AAEXPBD@Z 10177e30 f   Script_Thread.obj
 0001:00176e60       ?Event_StrRight@idThread@@AAEXPBDH@Z 10177e60 f   Script_Thread.obj
 0001:00176ee0       ?Event_StrSkip@idThread@@AAEXPBDH@Z 10177ee0 f   Script_Thread.obj
 0001:00176f60       ?Event_StrToFloat@idThread@@AAEXPBD@Z 10177f60 f   Script_Thread.obj
 0001:00176f90       ?Event_RadiusDamage@idThread@@AAEXABVidVec3@@PAVidEntity@@11PBDM@Z 10177f90 f   Script_Thread.obj
 0001:00176fc0       ?Event_IsClient@idThread@@AAEXXZ 10177fc0 f   Script_Thread.obj
 0001:00176fe0       ?Event_IsMultiplayer@idThread@@AAEXXZ 10177fe0 f   Script_Thread.obj
 0001:00177000       ?Event_GetFrameTime@idThread@@AAEXXZ 10178000 f   Script_Thread.obj
 0001:00177020       ?Event_GetTicsPerSecond@idThread@@AAEXXZ 10178020 f   Script_Thread.obj
 0001:00177040       ?Event_CacheSoundShader@idThread@@AAEXPBD@Z 10178040 f   Script_Thread.obj
 0001:00177040       ?Event_CacheSoundShader@idEntity@@AAEXPBD@Z 10178040 f   Entity.obj
 0001:00177060       ?Event_DebugLine@idThread@@AAEXABVidVec3@@00M@Z 10178060 f   Script_Thread.obj
 0001:001770d0       ?Event_DebugArrow@idThread@@AAEXABVidVec3@@00HM@Z 101780d0 f   Script_Thread.obj
 0001:00177140       ?Event_DebugCircle@idThread@@AAEXABVidVec3@@00MHM@Z 10178140 f   Script_Thread.obj
 0001:001771b0       ?Event_DrawText@idThread@@AAEXPBDABVidVec3@@M1HM@Z 101781b0 f   Script_Thread.obj
 0001:00177250       ?Event_InfluenceActive@idThread@@AAEXXZ 10178250 f   Script_Thread.obj
 0001:00177290       ?Save@idThread@@QBEXPAVidSaveGame@@@Z 10178290 f   Script_Thread.obj
 0001:00177320       ?GetThread@idThread@@SAPAV1@H@Z 10178320 f   Script_Thread.obj
 0001:00177360       ?ListThreads_f@idThread@@SAXABVidCmdArgs@@@Z 10178360 f   Script_Thread.obj
 0001:001773d0       ?Restart@idThread@@SAXXZ   101783d0 f   Script_Thread.obj
 0001:00177450       ?ObjectMoveDone@idThread@@SAXHPAVidEntity@@@Z 10178450 f   Script_Thread.obj
 0001:00177490       ?KillThread@idThread@@SAXPBD@Z 10178490 f   Script_Thread.obj
 0001:00177510       ?KillThread@idThread@@SAXH@Z 10178510 f   Script_Thread.obj
 0001:00177570       ?Execute@idThread@@QAE_NXZ 10178570 f   Script_Thread.obj
 0001:00177640       ?CallFunction@idThread@@QAEXPBVfunction_t@@_N@Z 10178640 f   Script_Thread.obj
 0001:00177660       ?CallFunction@idThread@@QAEXPAVidEntity@@PBVfunction_t@@_N@Z 10178660 f   Script_Thread.obj
 0001:00177680       ?ReturnVector@idThread@@SAXABVidVec3@@@Z 10178680 f   Script_Thread.obj
 0001:001776a0       ?Event_Execute@idThread@@AAEXXZ 101786a0 f   Script_Thread.obj
 0001:001776b0       ?Event_TerminateThread@idThread@@AAEXH@Z 101786b0 f   Script_Thread.obj
 0001:001776f0       ?Event_WaitForThread@idThread@@AAEXH@Z 101786f0 f   Script_Thread.obj
 0001:00177760       ?Event_KillThread@idThread@@AAEXPBD@Z 10178760 f   Script_Thread.obj
 0001:00177770       ?Event_SpawnString@idThread@@AAEXPBD0@Z 10178770 f   Script_Thread.obj
 0001:001777b0       ?Event_SpawnVector@idThread@@AAEXPBDAAVidVec3@@@Z 101787b0 f   Script_Thread.obj
 0001:00177820       ?Event_GetPersistantString@idThread@@AAEXPBD@Z 10178820 f   Script_Thread.obj
 0001:00177860       ?Event_GetPersistantVector@idThread@@AAEXPBD@Z 10178860 f   Script_Thread.obj
 0001:001778a0       ?Event_AngToForward@idThread@@AAEXAAVidAngles@@@Z 101788a0 f   Script_Thread.obj
 0001:001778d0       ?Event_AngToRight@idThread@@AAEXAAVidAngles@@@Z 101788d0 f   Script_Thread.obj
 0001:00177910       ?Event_AngToUp@idThread@@AAEXAAVidAngles@@@Z 10178910 f   Script_Thread.obj
 0001:00177950       ?Event_VecNormalize@idThread@@AAEXAAVidVec3@@@Z 10178950 f   Script_Thread.obj
 0001:00177a30       ?Event_VecLength@idThread@@AAEXAAVidVec3@@@Z 10178a30 f   Script_Thread.obj
 0001:00177ae0       ?Event_VecCrossProduct@idThread@@AAEXAAVidVec3@@0@Z 10178ae0 f   Script_Thread.obj
 0001:00177b40       ?Event_VecToAngles@idThread@@AAEXAAVidVec3@@@Z 10178b40 f   Script_Thread.obj
 0001:00177b90       ?Event_VecToOrthoBasisAngles@idThread@@AAEXAAVidVec3@@@Z 10178b90 f   Script_Thread.obj
 0001:00177dc0       ?Event_RotateVector@idThread@@AAEXAAVidVec3@@0@Z 10178dc0 f   Script_Thread.obj
 0001:00177e70       ?Event_Trace@idThread@@AAEXABVidVec3@@000HPAVidEntity@@@Z 10178e70 f   Script_Thread.obj
 0001:00177fb0       ?Event_GetTraceEndPos@idThread@@AAEXXZ 10178fb0 f   Script_Thread.obj
 0001:00177fe0       ?Event_GetTraceNormal@idThread@@AAEXXZ 10178fe0 f   Script_Thread.obj
 0001:00178040       ?Event_GetTraceBody@idThread@@AAEXXZ 10179040 f   Script_Thread.obj
 0001:001780e0       ?Event_FadeIn@idThread@@AAEXAAVidVec3@@M@Z 101790e0 f   Script_Thread.obj
 0001:00178160       ?Event_FadeOut@idThread@@AAEXAAVidVec3@@M@Z 10179160 f   Script_Thread.obj
 0001:001781e0       ?Event_FadeTo@idThread@@AAEXAAVidVec3@@MM@Z 101791e0 f   Script_Thread.obj
 0001:00178260       ?Event_StrLeft@idThread@@AAEXPBDH@Z 10179260 f   Script_Thread.obj
 0001:001783c0       ?Event_StrMid@idThread@@AAEXPBDHH@Z 101793c0 f   Script_Thread.obj
 0001:00178510       ?Event_DebugBounds@idThread@@AAEXABVidVec3@@00M@Z 10179510 f   Script_Thread.obj
 0001:001785a0       ?Init@idThread@@AAEXXZ     101795a0 f   Script_Thread.obj
 0001:001787a0       ?Start@idThread@@QAE_NXZ   101797a0 f   Script_Thread.obj
 0001:001787c0       ??0idThread@@QAE@XZ        101797c0 f   Script_Thread.obj
 0001:00178980       ??0idThread@@QAE@PBVfunction_t@@@Z 10179980 f   Script_Thread.obj
 0001:00178b40       ??0idThread@@QAE@PAVidInterpreter@@PBVfunction_t@@H@Z 10179b40 f   Script_Thread.obj
 0001:00178cf0       ??0idThread@@QAE@PAVidInterpreter@@PAVidEntity@@PBVfunction_t@@H@Z 10179cf0 f   Script_Thread.obj
 0001:00178ec0       ??1idThread@@UAE@XZ        10179ec0 f   Script_Thread.obj
 0001:00179060       ?CreateInstance@idThread@@SAPAVidClass@@XZ 1017a060 f   Script_Thread.obj
 0001:00179100       ??_GidThread@@UAEPAXI@Z    1017a100 f i Script_Thread.obj
 0001:00179100       ??_EidThread@@UAEPAXI@Z    1017a100 f i Script_Thread.obj
 0001:00179120       ?BitsToFloat@idMath@@SAMHHH@Z 1017a120 f   idLib:Math.obj
 0001:00179190       ?Init@idMath@@SAXXZ        1017a190 f   idLib:Math.obj
 0001:00179200       ?FloatToBits@idMath@@SAHMHH@Z 1017a200 f   idLib:Math.obj
 0001:001793c0       ?ToMat3@idRotation@@QBEABVidMat3@@XZ 1017a3c0 f   idLib:Rotation.obj
 0001:00179540       ?ToAngularVelocity@idRotation@@QBE?AVidVec3@@XZ 1017a540 f   idLib:Rotation.obj
 0001:00179580       ?Normalize180@idRotation@@QAEXXZ 1017a580 f   idLib:Rotation.obj
 0001:00179610       ?ToAngles@idRotation@@QBE?AVidAngles@@XZ 1017a610 f   idLib:Rotation.obj
 0001:00179630       ?InitOctahedron@idTraceModel@@AAEXXZ 1017a630 f   idLib:TraceModel.obj
 0001:00179820       ?InitDodecahedron@idTraceModel@@AAEXXZ 1017a820 f   idLib:TraceModel.obj
 0001:00179cc0       ?InitBone@idTraceModel@@AAEXXZ 1017acc0 f   idLib:TraceModel.obj
 0001:00179e40       ?SetupPolygon@idTraceModel@@QAEXPBVidVec3@@H@Z 1017ae40 f   idLib:TraceModel.obj
 0001:0017a430       ?SetupPolygon@idTraceModel@@QAEXABVidWinding@@@Z 1017b430 f   idLib:TraceModel.obj
 0001:0017a4a0       ?GenerateEdgeNormals@idTraceModel@@QAEHXZ 1017b4a0 f   idLib:TraceModel.obj
 0001:0017a810       ?Translate@idTraceModel@@QAEXABVidVec3@@@Z 1017b810 f   idLib:TraceModel.obj
 0001:0017a940       ?Shrink@idTraceModel@@QAEXM@Z 1017b940 f   idLib:TraceModel.obj
 0001:0017abe0       ?Compare@idTraceModel@@QBE_NABV1@@Z 1017bbe0 f   idLib:TraceModel.obj
 0001:0017ad60       ?ProjectionIntegrals@idTraceModel@@ABEXHHHAAUprojectionIntegrals_s@@@Z 1017bd60 f   idLib:TraceModel.obj
 0001:0017b140       ?PolygonIntegrals@idTraceModel@@ABEXHHHHAAUpolygonIntegrals_s@@@Z 1017c140 f   idLib:TraceModel.obj
 0001:0017b470       ?VolumeIntegrals@idTraceModel@@ABEXAAUvolumeIntegrals_s@@@Z 1017c470 f   idLib:TraceModel.obj
 0001:0017b6a0       ?InitBox@idTraceModel@@AAEXXZ 1017c6a0 f   idLib:TraceModel.obj
 0001:0017b910       ?SetupOctahedron@idTraceModel@@QAEXABVidBounds@@@Z 1017c910 f   idLib:TraceModel.obj
 0001:0017bdf0       ?SetupDodecahedron@idTraceModel@@QAEXABVidBounds@@@Z 1017cdf0 f   idLib:TraceModel.obj
 0001:0017c7a0       ?SetupCylinder@idTraceModel@@QAEXABVidBounds@@H@Z 1017d7a0 f   idLib:TraceModel.obj
 0001:0017cec0       ?SetupCone@idTraceModel@@QAEXABVidBounds@@H@Z 1017dec0 f   idLib:TraceModel.obj
 0001:0017d580       ?SetupBone@idTraceModel@@QAEXMM@Z 1017e580 f   idLib:TraceModel.obj
 0001:0017dc60       ?SetupBox@idTraceModel@@QAEXABVidBounds@@@Z 1017ec60 f   idLib:TraceModel.obj
 0001:0017df50       ?VolumeFromPolygon@idTraceModel@@ABEXAAV1@M@Z 1017ef50 f   idLib:TraceModel.obj
 0001:0017e2b0       ?GetMassProperties@idTraceModel@@QBEXMAAMAAVidVec3@@AAVidMat3@@@Z 1017f2b0 f   idLib:TraceModel.obj
 0001:0017e550       ?ColorForIndex@idStr@@SAAAVidVec4@@H@Z 1017f550 f   idLib:Str.obj
 0001:0017e560       ?FindChar@idStr@@SAHPBDDHH@Z 1017f560 f   idLib:Str.obj
 0001:0017e5a0       ?FindText@idStr@@SAHPBD0_NHH@Z 1017f5a0 f   idLib:Str.obj
 0001:0017e660       ?BackSlashesToSlashes@idStr@@QAEAAV1@XZ 1017f660 f   idLib:Str.obj
 0001:0017e690       ?StripFileExtension@idStr@@QAEAAV1@XZ 1017f690 f   idLib:Str.obj
 0001:0017e6c0       ?IsNumeric@idStr@@SA_NPBD@Z 1017f6c0 f   idLib:Str.obj
 0001:0017e700       ?Cmp@idStr@@SAHPBD0@Z      1017f700 f   idLib:Str.obj
 0001:0017e740       ?Cmpn@idStr@@SAHPBD0H@Z    1017f740 f   idLib:Str.obj
 0001:0017e780       ?Icmp@idStr@@SAHPBD0@Z     1017f780 f   idLib:Str.obj
 0001:0017e7d0       ?Icmpn@idStr@@SAHPBD0H@Z   1017f7d0 f   idLib:Str.obj
 0001:0017e830       ?IcmpPath@idStr@@SAHPBD0@Z 1017f830 f   idLib:Str.obj
 0001:0017e8f0       ?Copynz@idStr@@SAXPADPBDH@Z 1017f8f0 f   idLib:Str.obj
 0001:0017e950       ?Append@idStr@@SAXPADHPBD@Z 1017f950 f   idLib:Str.obj
 0001:0017e9a0       ?snPrintf@idStr@@SAHPADHPBDZZ 1017f9a0 f   idLib:Str.obj
 0001:0017ea60       ?vsnPrintf@idStr@@SAHPADHPBD0@Z 1017fa60 f   idLib:Str.obj
 0001:0017eaa0       ?va@@YAPADPBDZZ            1017faa0 f   idLib:Str.obj
 0001:0017eae0       ?Shutdown@?$idBlockAlloc@V?$idBTreeNode@V?$idDynamicBlock@D@@H@@$0IA@@@QAEXXZ 1017fae0 f i idLib:Str.obj
 0001:0017eae0       ?Shutdown@?$idBlockAlloc@V?$idBTreeNode@V?$idDynamicBlock@E@@H@@$0IA@@@QAEXXZ 1017fae0 f i Event.obj
 0001:0017eb30       ?FloatArrayToString@idStr@@SAPBDPBMHH@Z 1017fb30 f   idLib:Str.obj
 0001:0017ec50       ?StripLeading@idStr@@QAEXPBD@Z 1017fc50 f   idLib:Str.obj
 0001:0017ecd0       ?StripLeadingOnce@idStr@@QAE_NPBD@Z 1017fcd0 f   idLib:Str.obj
 0001:0017ed60       ?StripTrailing@idStr@@QAEXD@Z 1017fd60 f   idLib:Str.obj
 0001:0017ed90       ?StripTrailing@idStr@@QAEXPBD@Z 1017fd90 f   idLib:Str.obj
 0001:0017ee20       ?StripTrailingWhitespace@idStr@@QAEXXZ 1017fe20 f   idLib:Str.obj
 0001:0017ee50       ?StripFilename@idStr@@QAEAAV1@XZ 1017fe50 f   idLib:Str.obj
 0001:0017ee90       ?IcmpNoColor@idStr@@SAHPBD0@Z 1017fe90 f   idLib:Str.obj
 0001:0017ef10       ?RemoveColors@idStr@@SAPADPAD@Z 1017ff10 f   idLib:Str.obj
 0001:0017ef50       ??1?$idBlockAlloc@V?$idBTreeNode@V?$idDynamicBlock@D@@H@@$0IA@@@QAE@XZ 1017ff50 f i idLib:Str.obj
 0001:0017ef50       ??1?$idBlockAlloc@V?$idBTreeNode@V?$idDynamicBlock@E@@H@@$0IA@@@QAE@XZ 1017ff50 f i Event.obj
 0001:0017ef60       ?InitMemory@idStr@@SAXXZ   1017ff60 f   idLib:Str.obj
 0001:0017ef90       ?AllocInternal@?$idDynamicBlockAlloc@D$0EAAAA@$0IA@@@AAEPAV?$idDynamicBlock@D@@H@Z 1017ff90 f i idLib:Str.obj
 0001:0017f2c0       ?ResizeInternal@?$idDynamicBlockAlloc@D$0EAAAA@$0IA@@@AAEPAV?$idDynamicBlock@D@@PAV2@H@Z 101802c0 f i idLib:Str.obj
 0001:0017f650       ?FreeData@idStr@@QAEXXZ    10180650 f   idLib:Str.obj
 0001:0017f6a0       ?ShutdownMemory@idStr@@SAXXZ 101806a0 f   idLib:Str.obj
 0001:0017f6b0       ?ReAllocate@idStr@@QAEXH_N@Z 101806b0 f   idLib:Str.obj
 0001:0017f790       ??4idStr@@QAEXPBD@Z        10180790 f   idLib:Str.obj
 0001:0017f840       ?Replace@idStr@@QAEXPBD0@Z 10180840 f   idLib:Str.obj
 0001:0017faa0       ?Mid@idStr@@QBEPBDHHAAV1@@Z 10180aa0 f   idLib:Str.obj
 0001:0017fb50       ?Mid@idStr@@QBE?AV1@HH@Z   10180b50 f   idLib:Str.obj
 0001:0017fd10       ?SetFileExtension@idStr@@QAEAAV1@PBD@Z 10180d10 f   idLib:Str.obj
 0001:0017fdc0       ?DefaultFileExtension@idStr@@QAEAAV1@PBD@Z 10180dc0 f   idLib:Str.obj
 0001:0017fe70       ?AppendPath@idStr@@QAEXPBD@Z 10180e70 f   idLib:Str.obj
 0001:0017ff00       ?sprintf@@YAHAAVidStr@@PBDZZ 10180f00 f   idLib:Str.obj
 0001:0017ff70       ?vsprintf@@YAHAAVidStr@@PBDPAD@Z 10180f70 f   idLib:Str.obj
 0001:0017ffe0       ?Filter@idStr@@SA_NPBD0_N@Z 10180fe0 f   idLib:Str.obj
 0001:00180460       ?StripPath@idStr@@QAEAAV1@XZ 10181460 f   idLib:Str.obj
 0001:00180540       ?ExtractFilePath@idStr@@QBEXAAV1@@Z 10181540 f   idLib:Str.obj
 0001:00180580       ?ExtractFileExtension@idStr@@QBEXAAV1@@Z 10181580 f   idLib:Str.obj
 0001:00180620       ?ToString@idVec2@@QBEPBDH@Z 10181620 f   idLib:Vector.obj
 0001:00180640       ?ToYaw@idVec3@@QBEMXZ      10181640 f   idLib:Vector.obj
 0001:001806a0       ?ToPitch@idVec3@@QBEMXZ    101816a0 f   idLib:Vector.obj
 0001:001807b0       ?ToAngles@idVec3@@QBE?AVidAngles@@XZ 101817b0 f   idLib:Vector.obj
 0001:00180920       ?ToMat3@idVec3@@QBE?AVidMat3@@XZ 10181920 f   idLib:Vector.obj
 0001:00180a40       ?Lerp@idVec3@@QAEXABV1@0M@Z 10181a40 f   idLib:Vector.obj
 0001:00180b10       ?Lerp@idVec4@@QAEXABV1@0M@Z 10181b10 f   idLib:Vector.obj
 0001:00180c00       ?ToString@idVec5@@QBEPBDH@Z 10181c00 f   idLib:Vector.obj
 0001:00180c20       ?ToString@idVec6@@QBEPBDH@Z 10181c20 f   idLib:Vector.obj
 0001:00180c40       ?ToString@idVecX@@QBEPBDH@Z 10181c40 f   idLib:Vector.obj
 0001:00180c60       ?Normalize360@idAngles@@QAEAAV1@XZ 10181c60 f   idLib:Angles.obj
 0001:00180d30       ?Normalize180@idAngles@@QAEAAV1@XZ 10181d30 f   idLib:Angles.obj
 0001:00180d80       ?ToVectors@idAngles@@QBEXPAVidVec3@@00@Z 10181d80 f   idLib:Angles.obj
 0001:00180ec0       ?ToForward@idAngles@@QBE?AVidVec3@@XZ 10181ec0 f   idLib:Angles.obj
 0001:00180f50       ?ToRotation@idAngles@@QBE?AVidRotation@@XZ 10181f50 f   idLib:Angles.obj
 0001:00181520       ?ToMat3@idAngles@@QBE?AVidMat3@@XZ 10182520 f   idLib:Angles.obj
 0001:00181650       ?ToAngularVelocity@idAngles@@QBE?AVidVec3@@XZ 10182650 f   idLib:Angles.obj
 0001:001816a0       ?ToString@idVec3@@QBEPBDH@Z 101826a0 f   idLib:Vector.obj
 0001:001816a0       ?ToString@idAngles@@QBEPBDH@Z 101826a0 f   idLib:Angles.obj
 0001:001816c0       ?InverseFastSelf@idMat6@@QAE_NXZ 101826c0 f   idLib:Matrix.obj
 0001:001821c0       ?InverseFastSelf@idMat2@@QAE_NXZ 101831c0 f   idLib:Matrix.obj
 0001:00182220       ?ToString@idMat2@@QBEPBDH@Z 10183220 f   idLib:Matrix.obj
 0001:00182220       ?ToString@idVec4@@QBEPBDH@Z 10183220 f   idLib:Vector.obj
 0001:00182220       ?ToString@idQuat@@QBEPBDH@Z 10183220 f   idLib:Quat.obj
 0001:00182240       ?ToAngles@idMat3@@QBE?AVidAngles@@XZ 10183240 f   idLib:Matrix.obj
 0001:00182330       ?ToQuat@idMat3@@QBE?AVidQuat@@XZ 10183330 f   idLib:Matrix.obj
 0001:00182530       ?ToCQuat@idMat3@@QBE?AVidCQuat@@XZ 10183530 f   idLib:Matrix.obj
 0001:00182590       ?ToRotation@idMat3@@QBE?AVidRotation@@XZ 10183590 f   idLib:Matrix.obj
 0001:00182b40       ?ToAngularVelocity@idMat3@@QBE?AVidVec3@@XZ 10183b40 f   idLib:Matrix.obj
 0001:00182b90       ?InverseSelf@idMat3@@QAE_NXZ 10183b90 f   idLib:Matrix.obj
 0001:00182b90       ?InverseFastSelf@idMat3@@QAE_NXZ 10183b90 f   idLib:Matrix.obj
 0001:00182ce0       ?ToString@idMat3@@QBEPBDH@Z 10183ce0 f   idLib:Matrix.obj
 0001:00182d00       ?ToString@idMat4@@QBEPBDH@Z 10183d00 f   idLib:Matrix.obj
 0001:00182d20       ?InverseFastSelf@idMat5@@QAE_NXZ 10183d20 f   idLib:Matrix.obj
 0001:00183330       ?ToString@idMat5@@QBEPBDH@Z 10184330 f   idLib:Matrix.obj
 0001:00183350       ?ToString@idMat6@@QBEPBDH@Z 10184350 f   idLib:Matrix.obj
 0001:00183370       ?ChangeSize@idMatX@@QAEXHH_N@Z 10184370 f   idLib:Matrix.obj
 0001:00183730       ?ToString@idMatX@@QBEPBDH@Z 10184730 f   idLib:Matrix.obj
 0001:00183750       ?LU_Factor@idMatX@@QAE_NPAHPAM@Z 10184750 f   idLib:Matrix.obj
 0001:00183b10       ?LU_Solve@idMatX@@QBEXAAVidVecX@@ABV2@PBH@Z 10184b10 f   idLib:Matrix.obj
 0001:00183cf0       ?InverseSelfGeneric@idMatX@@AAE_NXZ 10184cf0 f   idLib:Matrix.obj
 0001:00183f10       ?InverseFastSelf@idMat4@@QAE_NXZ 10184f10 f   idLib:Matrix.obj
 0001:00184260       ?GetRadius@idBounds@@QBEMXZ 10185260 f   idLib:Bounds.obj
 0001:001843c0       ?PlaneSide@idBounds@@QBEHABVidPlane@@M@Z 101853c0 f   idLib:Bounds.obj
 0001:001844c0       ?LineIntersection@idBounds@@QBE_NABVidVec3@@0@Z 101854c0 f   idLib:Bounds.obj
 0001:00184780       ?RayIntersection@idBounds@@QBE_NABVidVec3@@0AAM@Z 10185780 f   idLib:Bounds.obj
 0001:001849c0       ?FromTransformedBounds@idBounds@@QAEXABV1@ABVidVec3@@ABVidMat3@@@Z 101859c0 f   idLib:Bounds.obj
 0001:00184be0       ?FromPointTranslation@idBounds@@QAEXABVidVec3@@0@Z 10185be0 f   idLib:Bounds.obj
 0001:00184c60       ?FromBoundsTranslation@idBounds@@QAEXABV1@ABVidVec3@@ABVidMat3@@1@Z 10185c60 f   idLib:Bounds.obj
 0001:00184df0       ?BoundsForPointRotation@@YA?AVidBounds@@ABVidVec3@@ABVidRotation@@@Z 10185df0 f   idLib:Bounds.obj
 0001:001852f0       ?FromPointRotation@idBounds@@QAEXABVidVec3@@ABVidRotation@@@Z 101862f0 f   idLib:Bounds.obj
 0001:00185430       ?FromBoundsRotation@idBounds@@QAEXABV1@ABVidVec3@@ABVidMat3@@ABVidRotation@@@Z 10186430 f   idLib:Bounds.obj
 0001:00185860       ?Print@idDict@@QBEXXZ      10186860 f   idLib:Dict.obj
 0001:001858b0       ?Allocated@idDict@@QBEIXZ  101868b0 f   idLib:Dict.obj
 0001:00185910       ?Init@idDict@@SAXXZ        10186910 f   idLib:Dict.obj
 0001:00185920       ?Clear@idDict@@QAEXXZ      10186920 f   idLib:Dict.obj
 0001:00185e60       ?FindKey@idDict@@QBEPBVidKeyValue@@PBD@Z 10186e60 f   idLib:Dict.obj
 0001:00185f10       ?FindKeyIndex@idDict@@QBEHPBD@Z 10186f10 f   idLib:Dict.obj
 0001:00185fc0       ?Delete@idDict@@QAEXPBD@Z  10186fc0 f   idLib:Dict.obj
 0001:00186640       ?MatchPrefix@idDict@@QBEPBVidKeyValue@@PBDPBV2@@Z 10187640 f   idLib:Dict.obj
 0001:001866e0       ?RandomPrefix@idDict@@QBEPBDPBDAAVidRandom@@@Z 101876e0 f   idLib:Dict.obj
 0001:001867d0       ??4idDict@@QAEAAV0@ABV0@@Z 101877d0 f   idLib:Dict.obj
 0001:00187090       ?Copy@idDict@@QAEXABV1@@Z  10188090 f   idLib:Dict.obj
 0001:00188070       ?TransferKeyValues@idDict@@QAEXAAV1@@Z 10189070 f   idLib:Dict.obj
 0001:00188280       ?SetDefaults@idDict@@QAEXPBV1@@Z 10189280 f   idLib:Dict.obj
 0001:00188b90       ?Set@idDict@@QAEXPBD0@Z    10189b90 f   idLib:Dict.obj
 0001:00189a30       ?GetFloat@idDict@@QBE_NPBD0AAM@Z 1018aa30 f   idLib:Dict.obj
 0001:00189a80       ?GetInt@idDict@@QBE_NPBD0AAH@Z 1018aa80 f   idLib:Dict.obj
 0001:00189ad0       ?GetBool@idDict@@QBE_NPBD0AA_N@Z 1018aad0 f   idLib:Dict.obj
 0001:00189b10       ?GetAngles@idDict@@QBE_NPBD0AAVidAngles@@@Z 1018ab10 f   idLib:Dict.obj
 0001:00189b10       ?GetVector@idDict@@QBE_NPBD0AAVidVec3@@@Z 1018ab10 f   idLib:Dict.obj
 0001:00189b70       ?GetVec4@idDict@@QBE_NPBD0AAVidVec4@@@Z 1018ab70 f   idLib:Dict.obj
 0001:00189bd0       ?GetMatrix@idDict@@QBE_NPBD0AAVidMat3@@@Z 1018abd0 f   idLib:Dict.obj
 0001:00189c90       ?Shutdown@idDict@@SAXXZ    1018ac90 f   idLib:Dict.obj
 0001:00189db0       ?CreatePunctuationTable@idLexer@@AAEXPBUpunctuation_s@@@Z 1018adb0 f   idLib:Lexer.obj
 0001:00189f70       ?GetPunctuationFromId@idLexer@@QAEPBDH@Z 1018af70 f   idLib:Lexer.obj
 0001:00189fa0       ?GetPunctuationId@idLexer@@QAEHPBD@Z 1018afa0 f   idLib:Lexer.obj
 0001:00189ff0       ?SetPunctuations@idLexer@@QAEXPBUpunctuation_s@@@Z 1018aff0 f   idLib:Lexer.obj
 0001:0018a020       ?EndOfFile@idLexer@@QAEHXZ 1018b020 f   idLib:Lexer.obj
 0001:0018a030       ?LoadMemory@idLexer@@QAEHPBDH0H@Z 1018b030 f   idLib:Lexer.obj
 0001:0018a0b0       ?Error@idLexer@@QAAXPBDZZ  1018b0b0 f   idLib:Lexer.obj
 0001:0018a130       ?Warning@idLexer@@QAAXPBDZZ 1018b130 f   idLib:Lexer.obj
 0001:0018a190       ?ReadWhiteSpace@idLexer@@AAEHXZ 1018b190 f   idLib:Lexer.obj
 0001:0018a260       ?ReadEscapeCharacter@idLexer@@AAEHPAD@Z 1018b260 f   idLib:Lexer.obj
 0001:0018a500       ?ReadString@idLexer@@AAEHPAVidToken@@H@Z 1018b500 f   idLib:Lexer.obj
 0001:0018a6d0       ?ReadName@idLexer@@AAEHPAVidToken@@@Z 1018b6d0 f   idLib:Lexer.obj
 0001:0018a770       ?ReadNumber@idLexer@@AAEHPAVidToken@@@Z 1018b770 f   idLib:Lexer.obj
 0001:0018ad50       ?ReadPunctuation@idLexer@@AAEHPAVidToken@@@Z 1018bd50 f   idLib:Lexer.obj
 0001:0018ae10       ?LoadFile@idLexer@@QAEHPBD_N@Z 1018be10 f   idLib:Lexer.obj
 0001:0018afe0       ?FreeSource@idLexer@@QAEXXZ 1018bfe0 f   idLib:Lexer.obj
 0001:0018b050       ??0idLexer@@QAE@XZ         1018c050 f   idLib:Lexer.obj
 0001:0018b100       ??0idLexer@@QAE@H@Z        1018c100 f   idLib:Lexer.obj
 0001:0018b1c0       ??0idLexer@@QAE@PBDH_N@Z   1018c1c0 f   idLib:Lexer.obj
 0001:0018b270       ??0idLexer@@QAE@PBDH0H@Z   1018c270 f   idLib:Lexer.obj
 0001:0018b330       ??1idLexer@@QAE@XZ         1018c330 f   idLib:Lexer.obj
 0001:0018b390       ??4idToken@@QAEAAV0@ABV0@@Z 1018c390 f i idLib:Lexer.obj
 0001:0018b410       ?ReadToken@idLexer@@QAEHPAVidToken@@@Z 1018c410 f   idLib:Lexer.obj
 0001:0018b5b0       ?ExpectTokenString@idLexer@@QAEHPBD@Z 1018c5b0 f   idLib:Lexer.obj
 0001:0018b6b0       ?ExpectTokenType@idLexer@@QAEHHHPAVidToken@@@Z 1018c6b0 f   idLib:Lexer.obj
 0001:0018ba10       ?CheckTokenString@idLexer@@QAEHPBD@Z 1018ca10 f   idLib:Lexer.obj
 0001:0018bad0       ?CheckTokenType@idLexer@@QAEHHHPAVidToken@@@Z 1018cad0 f   idLib:Lexer.obj
 0001:0018bba0       ?SkipUntilString@idLexer@@QAEHPBD@Z 1018cba0 f   idLib:Lexer.obj
 0001:0018bc60       ?UnreadToken@idLexer@@QAEXPBVidToken@@@Z 1018cc60 f   idLib:Lexer.obj
 0001:0018bca0       ?ReadTokenOnLine@idLexer@@QAEHPAVidToken@@@Z 1018cca0 f   idLib:Lexer.obj
 0001:0018bd90       ?ParseInt@idLexer@@QAEHXZ  1018cd90 f   idLib:Lexer.obj
 0001:0018bef0       ?ParseFloat@idLexer@@QAEMPA_N@Z 1018cef0 f   idLib:Lexer.obj
 0001:0018c080       ?Parse1DMatrix@idLexer@@QAEHHPAM@Z 1018d080 f   idLib:Lexer.obj
 0001:0018c0e0       ?Parse2DMatrix@idLexer@@QAEHHHPAM@Z 1018d0e0 f   idLib:Lexer.obj
 0001:0018c190       ?Init@idHashIndex@@AAEXHH@Z 1018d190 f   idLib:HashIndex.obj
 0001:0018c1c0       ?Free@idHashIndex@@QAEXXZ  1018d1c0 f   idLib:HashIndex.obj
 0001:0018c200       ?ResizeIndex@idHashIndex@@QAEXH@Z 1018d200 f   idLib:HashIndex.obj
 0001:0018c290       ?Allocate@idHashIndex@@AAEXHH@Z 1018d290 f   idLib:HashIndex.obj
 0001:0018c350       ?ShutDown@idLib@@SAXXZ     1018d350 f   idLib:Lib.obj
 0001:0018c370       ?PackColor@@YAIABVidVec4@@@Z 1018d370 f   idLib:Lib.obj
 0001:0018c4a0       ?PackColor@@YAIABVidVec3@@@Z 1018d4a0 f   idLib:Lib.obj
 0001:0018c580       ?Error@idLib@@SAXPBDZZ     1018d580 f   idLib:Lib.obj
 0001:0018c5c0       ?LittleRevBytes@@YAXPAXHH@Z 1018d5c0 f   idLib:Lib.obj
 0001:0018c5d0       ?LittleBitField@@YAXPAXH@Z 1018d5d0 f   idLib:Lib.obj
 0001:0018c5e0       ?ShortSwap@@YAFF@Z         1018d5e0 f   idLib:Lib.obj
 0001:0018c600       ?ShortNoSwap@@YAFF@Z       1018d600 f   idLib:Lib.obj
 0001:0018c610       ?LongSwap@@YAHH@Z          1018d610 f   idLib:Lib.obj
 0001:0018c640       ?LongNoSwap@@YAHH@Z        1018d640 f   idLib:Lib.obj
 0001:0018c650       ?FloatSwap@@YAMM@Z         1018d650 f   idLib:Lib.obj
 0001:0018c680       ?FloatNoSwap@@YAMM@Z       1018d680 f   idLib:Lib.obj
 0001:0018c690       ?RevBytesSwap@@YAXPAXHH@Z  1018d690 f   idLib:Lib.obj
 0001:0018c700       ?RevBitFieldSwap@@YAXPAXH@Z 1018d700 f   idLib:Lib.obj
 0001:0018c750       ?SixtetsForIntLittle@@YAXPAEH@Z 1018d750 f   idLib:Lib.obj
 0001:0018c790       ?SixtetsForIntBig@@YAXPAEH@Z 1018d790 f   idLib:Lib.obj
 0001:0018c7c0       ?IntForSixtetsLittle@@YAHPAE@Z 1018d7c0 f   idLib:Lib.obj
 0001:0018c820       ?IntForSixtetsBig@@YAHPAE@Z 1018d820 f   idLib:Lib.obj
 0001:0018c850       ?Swap_Init@@YAXXZ          1018d850 f   idLib:Lib.obj
 0001:0018c940       ?Init@idLib@@SAXXZ         1018d940 f   idLib:Lib.obj
 0001:0018c970       ?UnpackColor@@YAXIAAVidVec4@@@Z 1018d970 f   idLib:Lib.obj
 0001:0018c9e0       ?UnpackColor@@YAXIAAVidVec3@@@Z 1018d9e0 f   idLib:Lib.obj
 0001:0018ca30       ?ReAllocate@idFixedWinding@@MAE_NH_N@Z 1018da30 f   idLib:Winding.obj
 0001:0018ca60       ?ReAllocate@idWinding@@MAE_NH_N@Z 1018da60 f   idLib:Winding.obj
 0001:0018cad0       ?ClipInPlace@idWinding@@QAE_NABVidPlane@@M_N@Z 1018dad0 f   idLib:Winding.obj
 0001:0018ce30       ?GetArea@idWinding@@QBEMXZ 1018de30 f   idLib:Winding.obj
 0001:0018cf90       ?GetCenter@idWinding@@QBE?AVidVec3@@XZ 1018df90 f   idLib:Winding.obj
 0001:0018d0d0       ?GetBounds@idWinding@@QBEXAAVidBounds@@@Z 1018e0d0 f   idLib:Winding.obj
 0001:0018d200       ?RemoveEqualPoints@idWinding@@QAEXM@Z 1018e200 f   idLib:Winding.obj
 0001:0018d2e0       ?AddToConvexHull@idWinding@@QAEXABVidVec3@@0M@Z 1018e2e0 f   idLib:Winding.obj
 0001:0018d820       ?PointInside@idWinding@@QBE_NABVidVec3@@0M@Z 1018e820 f   idLib:Winding.obj
 0001:0018d940       ?Split@idFixedWinding@@QAEHPAV1@ABVidPlane@@M@Z 1018e940 f   idLib:Winding.obj
 0001:0018df30       ?Copy@idWinding@@QBEPAV1@XZ 1018ef30 f   idLib:Winding.obj
 0001:0018dfc0       ?GetPlane@idWinding@@QBEXAAVidPlane@@@Z 1018efc0 f   idLib:Winding.obj
 0001:0018e380       ??0idBitMsg@@QAE@XZ        1018f380 f   idLib:BitMsg.obj
 0001:0018e3a0       ?CheckOverflow@idBitMsg@@AAE_NH@Z 1018f3a0 f   idLib:BitMsg.obj
 0001:0018e440       ?WriteBits@idBitMsg@@QAEXHH@Z 1018f440 f   idLib:BitMsg.obj
 0001:0018e560       ?WriteData@idBitMsg@@QAEXPBXH@Z 1018f560 f   idLib:BitMsg.obj
 0001:0018e5c0       ?WriteDelta@idBitMsg@@AAEXHHH@Z 1018f5c0 f   idLib:BitMsg.obj
 0001:0018e700       ?ReadBits@idBitMsg@@QBEHH@Z 1018f700 f   idLib:BitMsg.obj
 0001:0018e840       ?ReadData@idBitMsg@@QBEHPAXH@Z 1018f840 f   idLib:BitMsg.obj
 0001:0018e8b0       ?ReadDelta@idBitMsg@@ABEHHH@Z 1018f8b0 f   idLib:BitMsg.obj
 0001:0018e8e0       ?DirToBits@idBitMsg@@SAHABVidVec3@@H@Z 1018f8e0 f   idLib:BitMsg.obj
 0001:0018e9d0       ?BitsToDir@idBitMsg@@SA?AVidVec3@@HH@Z 1018f9d0 f   idLib:BitMsg.obj
 0001:0018eb10       ?WriteBits@idBitMsgDelta@@QAEXHH@Z 1018fb10 f   idLib:BitMsg.obj
 0001:0018eca0       ?WriteDelta@idBitMsgDelta@@AAEXHHH@Z 1018fca0 f   idLib:BitMsg.obj
 0001:0018f080       ?ReadBits@idBitMsgDelta@@QBEHH@Z 10190080 f   idLib:BitMsg.obj
 0001:0018f0d0       ?ReadDelta@idBitMsgDelta@@ABEHHH@Z 101900d0 f   idLib:BitMsg.obj
 0001:0018f150       ?WriteString@idBitMsg@@QAEXPBDH_N@Z 10190150 f   idLib:BitMsg.obj
 0001:0018f250       ?WriteDeltaDict@idBitMsg@@QAE_NABVidDict@@PBV2@@Z 10190250 f   idLib:BitMsg.obj
 0001:0018f3d0       ?ReadString@idBitMsg@@QBEHPADH@Z 101903d0 f   idLib:BitMsg.obj
 0001:0018f440       ?ReadDeltaDict@idBitMsg@@QBE_NAAVidDict@@PBV2@@Z 10190440 f   idLib:BitMsg.obj
 0001:0018f580       ?Shutdown@idSIMD@@SAXXZ    10190580 f   idLib:Simd.obj
 0001:0018f5c0       ??4idDrawVert@@QAEAAV0@ABV0@@Z 101905c0 f i idLib:Simd.obj
 0001:0018f640       ?Init@idSIMD@@SAXXZ        10190640 f   idLib:Simd.obj
 0001:0018f680       ?InitProcessor@idSIMD@@SAXPBD_N@Z 10190680 f   idLib:Simd.obj
 0001:0018f880       ?ToMat3@idQuat@@QBE?AVidMat3@@XZ 10190880 f   idLib:Quat.obj
 0001:0018f990       ?Slerp@idQuat@@QAEAAV1@ABV1@0M@Z 10190990 f   idLib:Quat.obj
 0001:0018ff70       ?ToMat3@idCQuat@@QBE?AVidMat3@@XZ 10190f70 f   idLib:Quat.obj
 0001:0018ffe0       ?GetHashKey@idLangDict@@ABEHPBD@Z 10190fe0 f   idLib:LangDict.obj
 0001:00190010       ?GetString@idLangDict@@QBEPBDPBD@Z 10191010 f   idLib:LangDict.obj
 0001:001900c0       ?Write@idMapPatch@@QBE_NPAVidFile@@HABVidVec3@@@Z 101910c0 f   idLib:MapFile.obj
 0001:00190220       ?GetGeometryCRC@idMapPatch@@QBEIXZ 10191220 f   idLib:MapFile.obj
 0001:00190420       ?FindEntity@idMapFile@@QAEPAVidMapEntity@@PBD@Z 10191420 f   idLib:MapFile.obj
 0001:00190480       ?NeedsReload@idMapFile@@QAE_NXZ 10191480 f   idLib:MapFile.obj
 0001:001904d0       ?Write@idMapBrush@@QBE_NPAVidFile@@HABVidVec3@@@Z 101914d0 f   idLib:MapFile.obj
 0001:00190600       ?GetGeometryCRC@idMapBrush@@QBEIXZ 10191600 f   idLib:MapFile.obj
 0001:00190680       ?Write@idMapEntity@@QBE_NPAVidFile@@H@Z 10191680 f   idLib:MapFile.obj
 0001:00190770       ?Write@idMapFile@@QAE_NPBD0_N@Z 10191770 f   idLib:MapFile.obj
 0001:001908d0       ?SetGeometryCRC@idMapFile@@AAEXXZ 101918d0 f   idLib:MapFile.obj
 0001:00190950       ?RemovePrimitiveData@idMapFile@@QAEXXZ 10191950 f   idLib:MapFile.obj
 0001:001909d0       ??1idSurface_Patch@@QAE@XZ 101919d0 f i idLib:MapFile.obj
 0001:00190a80       ??0idMapPrimitive@@QAE@XZ  10191a80 f i idLib:MapFile.obj
 0001:00190ba0       ??1idMapPrimitive@@UAE@XZ  10191ba0 f i idLib:MapFile.obj
 0001:00190c20       ??_EidMapPrimitive@@UAEPAXI@Z 10191c20 f i idLib:MapFile.obj
 0001:00190c20       ??_GidMapPrimitive@@UAEPAXI@Z 10191c20 f i idLib:MapFile.obj
 0001:00190cc0       ??0idMapBrush@@QAE@XZ      10191cc0 f i idLib:MapFile.obj
 0001:00190d80       ??1idMapBrush@@UAE@XZ      10191d80 f i idLib:MapFile.obj
 0001:00190e70       ?AddSide@idMapBrush@@QAEHPAVidMapBrushSide@@@Z 10191e70 f i idLib:MapFile.obj
 0001:00190f90       ??_GidMapBrush@@UAEPAXI@Z  10191f90 f i idLib:MapFile.obj
 0001:00190f90       ??_EidMapBrush@@UAEPAXI@Z  10191f90 f i idLib:MapFile.obj
 0001:00190fb0       ??1idMapPatch@@UAE@XZ      10191fb0 f i idLib:MapFile.obj
 0001:001910d0       ??_EidMapPatch@@UAEPAXI@Z  101920d0 f i idLib:MapFile.obj
 0001:001910d0       ??_GidMapPatch@@UAEPAXI@Z  101920d0 f i idLib:MapFile.obj
 0001:001910f0       ?AddPrimitive@idMapEntity@@QAEXPAVidMapPrimitive@@@Z 101920f0 f i idLib:MapFile.obj
 0001:00191210       ?Parse@idMapPatch@@SAPAV1@AAVidLexer@@ABVidVec3@@_NM@Z 10192210 f   idLib:MapFile.obj
 0001:00191890       ?Parse@idMapBrush@@SAPAV1@AAVidLexer@@ABVidVec3@@_NM@Z 10192890 f   idLib:MapFile.obj
 0001:00192880       ?ParseQ3@idMapBrush@@SAPAV1@AAVidLexer@@ABVidVec3@@@Z 10193880 f   idLib:MapFile.obj
 0001:00193320       ?Parse@idMapEntity@@SAPAV1@AAVidLexer@@_NM@Z 10194320 f   idLib:MapFile.obj
 0001:001937c0       ?AddEntity@idMapFile@@QAEHPAVidMapEntity@@@Z 101947c0 f   idLib:MapFile.obj
 0001:001938e0       ?RemoveEntity@idMapFile@@QAEXPAVidMapEntity@@@Z 101948e0 f   idLib:MapFile.obj
 0001:00193940       ?RemoveEntities@idMapFile@@QAEXPBD@Z 10194940 f   idLib:MapFile.obj
 0001:001939e0       ?Parse@idMapFile@@QAE_NPBD_N1@Z 101949e0 f   idLib:MapFile.obj
 0001:00194220       ?InitBaseClockTicks@idTimer@@ABEXXZ 10195220 f   idLib:Timer.obj
 0001:00194300       ?AllocDefragBlock@idHeap@@QAEXXZ 10195300 f   idLib:Heap.obj
 0001:00194370       ?Allocate16@idHeap@@QAEPAXI@Z 10195370 f   idLib:Heap.obj
 0001:00194410       ?Msize@idHeap@@QAEIPAX@Z   10195410 f   idLib:Heap.obj
 0001:00194490       ?AllocatePage@idHeap@@AAEPAUpage_s@1@I@Z 10195490 f   idLib:Heap.obj
 0001:00194570       ?SmallAllocate@idHeap@@AAEPAXI@Z 10195570 f   idLib:Heap.obj
 0001:00194630       ?MediumAllocateFromPage@idHeap@@AAEPAXPAUpage_s@1@I@Z 10195630 f   idLib:Heap.obj
 0001:001946d0       ?MediumAllocate@idHeap@@AAEPAXI@Z 101956d0 f   idLib:Heap.obj
 0001:00194820       ?MediumFree@idHeap@@AAEXPAX@Z 10195820 f   idLib:Heap.obj
 0001:00194980       ?LargeAllocate@idHeap@@AAEPAXI@Z 10195980 f   idLib:Heap.obj
 0001:001949d0       ?LargeFree@idHeap@@AAEXPAX@Z 101959d0 f   idLib:Heap.obj
 0001:00194a50       ?Mem_UpdateAllocStats@@YAXH@Z 10195a50 f   idLib:Heap.obj
 0001:00194ab0       ?Mem_UpdateFreeStats@@YAXH@Z 10195ab0 f   idLib:Heap.obj
 0001:00194af0       ?Mem_Alloc16@@YAPAXH@Z     10195af0 f   idLib:Heap.obj
 0001:00194b20       ?Mem_Free16@@YAXPAX@Z      10195b20 f   idLib:Heap.obj
 0001:00194b50       ?Init@idHeap@@QAEXXZ       10195b50 f   idLib:Heap.obj
 0001:00194be0       ??1idHeap@@QAE@XZ          10195be0 f   idLib:Heap.obj
 0001:00194d60       ?Free@idHeap@@QAEXPAX@Z    10195d60 f   idLib:Heap.obj
 0001:00194e10       ?Mem_Alloc@@YAPAXH@Z       10195e10 f   idLib:Heap.obj
 0001:00194e70       ?Mem_Free@@YAXPAX@Z        10195e70 f   idLib:Heap.obj
 0001:00194eb0       ?Mem_ClearedAlloc@@YAPAXH@Z 10195eb0 f   idLib:Heap.obj
 0001:00194ee0       ?Mem_Init@@YAXXZ           10195ee0 f   idLib:Heap.obj
 0001:00194f70       ?Mem_Shutdown@@YAXXZ       10195f70 f   idLib:Heap.obj
 0001:00194fa0       ?Args@idCmdArgs@@QBEPBDHH_N@Z 10195fa0 f   idLib:CmdArgs.obj
 0001:00195130       ?TokenizeString@idCmdArgs@@QAEXPBD_N@Z 10196130 f   idLib:CmdArgs.obj
 0001:001953f0       ?GetBounds@idWinding2D@@QBEXQAVidVec2@@@Z 101963f0 f   idLib:Winding2D.obj
 0001:001954b0       ?GetAxialBevel@@YA_NABVidVec3@@0ABVidVec2@@AAV1@@Z 101964b0 f   idLib:Winding2D.obj
 0001:001955b0       ?ExpandForAxialBox@idWinding2D@@QAEXQBVidVec2@@@Z 101965b0 f   idLib:Winding2D.obj
 0001:00195a40       ?Expand@idWinding2D@@QAEXM@Z 10196a40 f   idLib:Winding2D.obj
 0001:00195ef0       ?PointInside@idWinding2D@@QBE_NABVidVec2@@M@Z 10196ef0 f   idLib:Winding2D.obj
 0001:00195f90       ?RayIntersection@idWinding2D@@QBE_NABVidVec2@@0AAM1PAH@Z 10196f90 f   idLib:Winding2D.obj
 0001:00196280       ?ToPoints@idBox@@QBEXQAVidVec3@@@Z 10197280 f   idLib:Box.obj
 0001:001965a0       ?GetParallelProjectionSilhouetteVerts@idBox@@QBEHABVidVec3@@QAV2@@Z 101975a0 f   idLib:Box.obj
 0001:001966b0       ?ClearTokenWhiteSpace@idToken@@QAEXXZ 101976b0 f   idLib:Token.obj
 0001:001966c0       ?NumberValue@idToken@@QAEXXZ 101976c0 f   idLib:Token.obj
 0001:001969f0       ?AddDefineToHash@idParser@@AAEXPAUdefine_s@@PAPAU2@@Z 101979f0 f   idLib:Parser.obj
 0001:00196a50       ?FindHashedDefine@idParser@@AAEPAUdefine_s@@PAPAU2@PBD@Z 10197a50 f   idLib:Parser.obj
 0001:00196ad0       ?Error@idParser@@QBAXPBDZZ 10197ad0 f   idLib:Parser.obj
 0001:00196b20       ?Warning@idParser@@QBAXPBDZZ 10197b20 f   idLib:Parser.obj
 0001:00196b70       ?Directive_else@idParser@@AAEHXZ 10197b70 f   idLib:Parser.obj
 0001:00196c10       ?Directive_endif@idParser@@AAEHXZ 10197c10 f   idLib:Parser.obj
 0001:00196c60       ?PC_OperatorPriority@@YAHH@Z 10197c60 f   idLib:Parser.obj
 0001:00196d30       ?GetPunctuationId@idParser@@QAEHPBD@Z 10197d30 f   idLib:Parser.obj
 0001:00196df0       ?FindDefineParm@idParser@@AAEHPAUdefine_s@@PBD@Z 10197df0 f   idLib:Parser.obj
 0001:00196e30       ?PushScript@idParser@@AAEXPAVidLexer@@@Z 10197e30 f   idLib:Parser.obj
 0001:00196e90       ?StringizeTokens@idParser@@AAEHPAVidToken@@0@Z 10197e90 f   idLib:Parser.obj
 0001:00196f40       ?MergeTokens@idParser@@AAEHPAVidToken@@0@Z 10197f40 f   idLib:Parser.obj
 0001:001970c0       ?EvaluateTokens@idParser@@AAEHPAVidToken@@PAJPANH@Z 101980c0 f   idLib:Parser.obj
 0001:00197ad0       ?SetFlags@idParser@@QAEXH@Z 10198ad0 f   idLib:Parser.obj
 0001:00197af0       ??0idParser@@QAE@XZ        10198af0 f   idLib:Parser.obj
 0001:00197b40       ??0idParser@@QAE@H@Z       10198b40 f   idLib:Parser.obj
 0001:00197b90       ?FreeDefine@idParser@@CAXPAUdefine_s@@@Z 10198b90 f   idLib:Parser.obj
 0001:00197bf0       ??0idToken@@QAE@ABV0@@Z    10198bf0 f i idLib:Parser.obj
 0001:00197c80       ?FreeSource@idParser@@QAEX_N@Z 10198c80 f   idLib:Parser.obj
 0001:00197de0       ??1idParser@@QAE@XZ        10198de0 f   idLib:Parser.obj
 0001:00197e40       ?CopyDefine@idParser@@AAEPAUdefine_s@@PAU2@@Z 10198e40 f   idLib:Parser.obj
 0001:00198020       ?ReadSourceToken@idParser@@AAEHPAVidToken@@@Z 10199020 f   idLib:Parser.obj
 0001:001981d0       ?UnreadSourceToken@idParser@@AAEHPAVidToken@@@Z 101991d0 f   idLib:Parser.obj
 0001:00198260       ?ReadDefineParms@idParser@@AAEHPAUdefine_s@@PAPAVidToken@@H@Z 10199260 f   idLib:Parser.obj
 0001:00198680       ?ExpandBuiltinDefine@idParser@@AAEHPAVidToken@@PAUdefine_s@@PAPAV2@2@Z 10199680 f   idLib:Parser.obj
 0001:00198a90       ?ExpandDefine@idParser@@AAEHPAVidToken@@PAUdefine_s@@PAPAV2@2@Z 10199a90 f   idLib:Parser.obj
 0001:00198ed0       ?ExpandDefineIntoSource@idParser@@AAEHPAVidToken@@PAUdefine_s@@@Z 10199ed0 f   idLib:Parser.obj
 0001:00198f30       ?ReadLine@idParser@@AAEHPAVidToken@@@Z 10199f30 f   idLib:Parser.obj
 0001:00198fa0       ?Directive_include@idParser@@AAEHXZ 10199fa0 f   idLib:Parser.obj
 0001:001994f0       ?Directive_undef@idParser@@AAEHXZ 1019a4f0 f   idLib:Parser.obj
 0001:00199670       ?AddGlobalDefinesToSource@idParser@@AAEXXZ 1019a670 f   idLib:Parser.obj
 0001:001996f0       ?Directive_if_def@idParser@@AAEHH@Z 1019a6f0 f   idLib:Parser.obj
 0001:00199820       ?Evaluate@idParser@@AAEHPAJPANH@Z 1019a820 f   idLib:Parser.obj
 0001:00199ae0       ?DollarEvaluate@idParser@@AAEHPAJPANH@Z 1019aae0 f   idLib:Parser.obj
 0001:00199de0       ?Directive_elif@idParser@@AAEHXZ 1019ade0 f   idLib:Parser.obj
 0001:00199e80       ?Directive_if@idParser@@AAEHXZ 1019ae80 f   idLib:Parser.obj
 0001:00199ed0       ?Directive_line@idParser@@AAEHXZ 1019aed0 f   idLib:Parser.obj
 0001:00199fd0       ?Directive_error@idParser@@AAEHXZ 1019afd0 f   idLib:Parser.obj
 0001:0019a090       ?Directive_warning@idParser@@AAEHXZ 1019b090 f   idLib:Parser.obj
 0001:0019a150       ?Directive_pragma@idParser@@AAEHXZ 1019b150 f   idLib:Parser.obj
 0001:0019a250       ?UnreadSignToken@idParser@@AAEXXZ 1019b250 f   idLib:Parser.obj
 0001:0019a330       ?Directive_eval@idParser@@AAEHXZ 1019b330 f   idLib:Parser.obj
 0001:0019a4a0       ?Directive_evalfloat@idParser@@AAEHXZ 1019b4a0 f   idLib:Parser.obj
 0001:0019a620       ?DollarDirective_evalint@idParser@@AAEHXZ 1019b620 f   idLib:Parser.obj
 0001:0019a7a0       ?DollarDirective_evalfloat@idParser@@AAEHXZ 1019b7a0 f   idLib:Parser.obj
 0001:0019a940       ?ReadDollarDirective@idParser@@AAEHXZ 1019b940 f   idLib:Parser.obj
 0001:0019aa90       ?CheckTokenString@idParser@@QAEHPBD@Z 1019ba90 f   idLib:Parser.obj
 0001:0019ab50       ?UnreadToken@idParser@@QAEXPAVidToken@@@Z 1019bb50 f   idLib:Parser.obj
 0001:0019abd0       ?LoadFile@idParser@@QAEHPBD_N@Z 1019bbd0 f   idLib:Parser.obj
 0001:0019acf0       ?LoadMemory@idParser@@QAEHPBDH0@Z 1019bcf0 f   idLib:Parser.obj
 0001:0019ae10       ?Directive_define@idParser@@AAEHXZ 1019be10 f   idLib:Parser.obj
 0001:0019b2e0       ?ReadDirective@idParser@@AAEHXZ 1019c2e0 f   idLib:Parser.obj
 0001:0019b7d0       ?ReadToken@idParser@@QAEHPAVidToken@@@Z 1019c7d0 f   idLib:Parser.obj
 0001:0019ba00       ?ExpectTokenString@idParser@@QAEHPBD@Z 1019ca00 f   idLib:Parser.obj
 0001:0019bb00       ?ExpectTokenType@idParser@@QAEHHHPAVidToken@@@Z 1019cb00 f   idLib:Parser.obj
 0001:0019be60       ?SkipBracedSection@idParser@@QAEH_N@Z 1019ce60 f   idLib:Parser.obj
 0001:0019bf50       ?ParseRestOfLine@idParser@@QAEPBDAAVidStr@@@Z 1019cf50 f   idLib:Parser.obj
 0001:0019c0f0       ?ParseInt@idParser@@QAEHXZ 1019d0f0 f   idLib:Parser.obj
 0001:0019c240       ??1idLCP@@UAE@XZ           1019d240 f   idLib:Lcp.obj
 0001:0019c250       ?SetSelf@idPhysics_Static@@UAEXPAVidEntity@@@Z 1019d250 f   Physics_Static.obj
 0001:0019c250       ?SetSelf@idPhysics_Base@@UAEXPAVidEntity@@@Z 1019d250 f   Physics_Base.obj
 0001:0019c250       ?SetEntity@idAnimator@@QAEXPAVidEntity@@@Z 1019d250 f   Anim_Blend.obj
 0001:0019c250       ?SetSelf@idPhysics_StaticMulti@@UAEXPAVidEntity@@@Z 1019d250 f   Physics_StaticMulti.obj
 0001:0019c250       ?SetMaxIterations@idLCP@@UAEXH@Z 1019d250 f   idLib:Lcp.obj
 0001:0019c260       ?FactorClamped@idLCP_Symmetric@@AAE_NXZ 1019d260 f   idLib:Lcp.obj
 0001:0019c2e0       ?SolveClamped@idLCP_Symmetric@@AAEXAAVidVecX@@PBM@Z 1019d2e0 f   idLib:Lcp.obj
 0001:0019c380       ?Swap@idLCP_Symmetric@@AAEXHH@Z 1019d380 f   idLib:Lcp.obj
 0001:0019c4a0       ?AddClamped@idLCP_Symmetric@@AAEXH_N@Z 1019d4a0 f   idLib:Lcp.obj
 0001:0019c660       ?RemoveClamped@idLCP_Symmetric@@AAEXH@Z 1019d660 f   idLib:Lcp.obj
 0001:0019cda0       ?GetMaxStep@idLCP_Symmetric@@ABEXHMAAMAAH1@Z 1019dda0 f   idLib:Lcp.obj
 0001:0019d2c0       ??_GidLCP@@UAEPAXI@Z       1019e2c0 f i idLib:Lcp.obj
 0001:0019d2c0       ??_EidLCP@@UAEPAXI@Z       1019e2c0 f i idLib:Lcp.obj
 0001:0019d2e0       ??0idLCP_Symmetric@@QAE@XZ 1019e2e0 f i idLib:Lcp.obj
 0001:0019d380       ??1idLCP_Symmetric@@UAE@XZ 1019e380 f i idLib:Lcp.obj
 0001:0019d600       ?Solve@idLCP_Symmetric@@UAE_NABVidMatX@@AAVidVecX@@ABV3@22PBH@Z 1019e600 f   idLib:Lcp.obj
 0001:0019e5b0       ?AllocSymmetric@idLCP@@SAPAV1@XZ 1019f5b0 f   idLib:Lcp.obj
 0001:0019e5f0       ??_GidLCP_Symmetric@@UAEPAXI@Z 1019f5f0 f i idLib:Lcp.obj
 0001:0019e5f0       ??_EidLCP_Symmetric@@UAEPAXI@Z 1019f5f0 f i idLib:Lcp.obj
 0001:0019e610       ?Evaluate@idODE_Euler@@UAEMPBMPAMMM@Z 1019f610 f   idLib:Ode.obj
 0001:0019e670       ??1idODE@@UAE@XZ           1019f670 f i idLib:Ode.obj
 0001:0019e680       ??_EidODE@@UAEPAXI@Z       1019f680 f i idLib:Ode.obj
 0001:0019e680       ??_GidODE@@UAEPAXI@Z       1019f680 f i idLib:Ode.obj
 0001:0019e6a0       ??0idODE_Euler@@QAE@HQ6AXMPBXPBMPAM@Z0@Z 1019f6a0 f   idLib:Ode.obj
 0001:0019e710       ??_EidODE_Euler@@UAEPAXI@Z 1019f710 f i idLib:Ode.obj
 0001:0019e710       ??_GidODE_Euler@@UAEPAXI@Z 1019f710 f i idLib:Ode.obj
 0001:0019ec20       ?MD4_Update@@YAXPAUMD4_CTX@@PBEI@Z 1019fc20 f   idLib:MD4.obj
 0001:0019ecc0       ?MD4_Final@@YAXPAUMD4_CTX@@QAE@Z 1019fcc0 f   idLib:MD4.obj
 0001:0019ed80       ?MD4_BlockChecksum@@YAKPBXH@Z 1019fd80 f   idLib:MD4.obj
 0001:0019edf0       ?Laguer@idPolynomial@@ABEHPBVidComplex@@HAAV2@@Z 1019fdf0 f   idLib:Polynomial.obj
 0001:001a0330       ?GetRoots@idPolynomial@@QBEHPAVidComplex@@@Z 101a1330 f   idLib:Polynomial.obj
 0001:001a0710       ?GetRoots@idPolynomial@@QBEHPAM@Z 101a1710 f   idLib:Polynomial.obj
 0001:001a1570       ?Test@idPolynomial@@SAXXZ  101a2570 f   idLib:Polynomial.obj
 0001:001a18c0       ?GetName@idSIMD_Generic@@UBIPBDXZ 101a28c0 f   idLib:Simd_Generic.obj
 0001:001a18d0       ?Add@idSIMD_Generic@@UAIXPAMMPBMH@Z 101a28d0 f   idLib:Simd_Generic.obj
 0001:001a19b0       ?Add@idSIMD_Generic@@UAIXPAMPBM1H@Z 101a29b0 f   idLib:Simd_Generic.obj
 0001:001a1ae0       ?Sub@idSIMD_Generic@@UAIXPAMMPBMH@Z 101a2ae0 f   idLib:Simd_Generic.obj
 0001:001a1bc0       ?Sub@idSIMD_Generic@@UAIXPAMPBM1H@Z 101a2bc0 f   idLib:Simd_Generic.obj
 0001:001a1cf0       ?Mul@idSIMD_Generic@@UAIXPAMMPBMH@Z 101a2cf0 f   idLib:Simd_Generic.obj
 0001:001a1dd0       ?Mul@idSIMD_Generic@@UAIXPAMPBM1H@Z 101a2dd0 f   idLib:Simd_Generic.obj
 0001:001a1f00       ?Div@idSIMD_Generic@@UAIXPAMMPBMH@Z 101a2f00 f   idLib:Simd_Generic.obj
 0001:001a1fe0       ?Div@idSIMD_Generic@@UAIXPAMPBM1H@Z 101a2fe0 f   idLib:Simd_Generic.obj
 0001:001a2110       ?MulAdd@idSIMD_Generic@@UAIXPAMMPBMH@Z 101a3110 f   idLib:Simd_Generic.obj
 0001:001a2200       ?MulAdd@idSIMD_Generic@@UAIXPAMPBM1H@Z 101a3200 f   idLib:Simd_Generic.obj
 0001:001a2340       ?MulSub@idSIMD_Generic@@UAIXPAMMPBMH@Z 101a3340 f   idLib:Simd_Generic.obj
 0001:001a2450       ?MulSub@idSIMD_Generic@@UAIXPAMPBM1H@Z 101a3450 f   idLib:Simd_Generic.obj
 0001:001a25a0       ?Dot@idSIMD_Generic@@UAIXAAMPBM1H@Z 101a35a0 f   idLib:Simd_Generic.obj
 0001:001a2730       ?CmpGT@idSIMD_Generic@@UAIXPAEPBMMH@Z 101a3730 f   idLib:Simd_Generic.obj
 0001:001a2850       ?CmpGT@idSIMD_Generic@@UAIXPAEEPBMMH@Z 101a3850 f   idLib:Simd_Generic.obj
 0001:001a29c0       ?CmpGE@idSIMD_Generic@@UAIXPAEPBMMH@Z 101a39c0 f   idLib:Simd_Generic.obj
 0001:001a2ae0       ?CmpGE@idSIMD_Generic@@UAIXPAEEPBMMH@Z 101a3ae0 f   idLib:Simd_Generic.obj
 0001:001a2c50       ?CmpLT@idSIMD_Generic@@UAIXPAEPBMMH@Z 101a3c50 f   idLib:Simd_Generic.obj
 0001:001a2d70       ?CmpLT@idSIMD_Generic@@UAIXPAEEPBMMH@Z 101a3d70 f   idLib:Simd_Generic.obj
 0001:001a2ee0       ?CmpLE@idSIMD_Generic@@UAIXPAEPBMMH@Z 101a3ee0 f   idLib:Simd_Generic.obj
 0001:001a3000       ?CmpLE@idSIMD_Generic@@UAIXPAEEPBMMH@Z 101a4000 f   idLib:Simd_Generic.obj
 0001:001a3170       ?MinMax@idSIMD_Generic@@UAIXAAM0PBMH@Z 101a4170 f   idLib:Simd_Generic.obj
 0001:001a3290       ?Clamp@idSIMD_Generic@@UAIXPAMPBMMMH@Z 101a4290 f   idLib:Simd_Generic.obj
 0001:001a3410       ?ClampMin@idSIMD_Generic@@UAIXPAMPBMMH@Z 101a4410 f   idLib:Simd_Generic.obj
 0001:001a3520       ?ClampMax@idSIMD_Generic@@UAIXPAMPBMMH@Z 101a4520 f   idLib:Simd_Generic.obj
 0001:001a3630       ?Memcpy@idSIMD_Generic@@UAIXPAXPBXH@Z 101a4630 f   idLib:Simd_Generic.obj
 0001:001a3650       ?Memset@idSIMD_Generic@@UAIXPAXHH@Z 101a4650 f   idLib:Simd_Generic.obj
 0001:001a3670       ?Zero16@idSIMD_Generic@@UAIXPAMH@Z 101a4670 f   idLib:Simd_Generic.obj
 0001:001a3690       ?Negate16@idSIMD_Generic@@UAIXPAMH@Z 101a4690 f   idLib:Simd_Generic.obj
 0001:001a36b0       ?Copy16@idSIMD_Generic@@UAIXPAMPBMH@Z 101a46b0 f   idLib:Simd_Generic.obj
 0001:001a3730       ?Add16@idSIMD_Generic@@UAIXPAMPBM1H@Z 101a4730 f   idLib:Simd_Generic.obj
 0001:001a37e0       ?Sub16@idSIMD_Generic@@UAIXPAMPBM1H@Z 101a47e0 f   idLib:Simd_Generic.obj
 0001:001a3890       ?Mul16@idSIMD_Generic@@UAIXPAMPBMMH@Z 101a4890 f   idLib:Simd_Generic.obj
 0001:001a3910       ?AddAssign16@idSIMD_Generic@@UAIXPAMPBMH@Z 101a4910 f   idLib:Simd_Generic.obj
 0001:001a39a0       ?SubAssign16@idSIMD_Generic@@UAIXPAMPBMH@Z 101a49a0 f   idLib:Simd_Generic.obj
 0001:001a3a30       ?MulAssign16@idSIMD_Generic@@UAIXPAMMH@Z 101a4a30 f   idLib:Simd_Generic.obj
 0001:001a3aa0       ?BlendJoints@idSIMD_Generic@@UAIXPAVidJointQuat@@PBV2@MPBHH@Z 101a4aa0 f   idLib:Simd_Generic.obj
 0001:001a3b10       ?DeriveUnsmoothedTangents@idSIMD_Generic@@UAIXPAVidDrawVert@@PBUdominantTri_s@@H@Z 101a4b10 f   idLib:Simd_Generic.obj
 0001:001a3cd0       ?NormalizeTangents@idSIMD_Generic@@UAIXPAVidDrawVert@@H@Z 101a4cd0 f   idLib:Simd_Generic.obj
 0001:001a3e80       ?CreateTextureSpaceLightVectors@idSIMD_Generic@@UAIXPAVidVec3@@ABV2@PBVidDrawVert@@HPBHH@Z 101a4e80 f   idLib:Simd_Generic.obj
 0001:001a4180       ?CreateSpecularTextureCoords@idSIMD_Generic@@UAIXPAVidVec4@@ABVidVec3@@1PBVidDrawVert@@HPBHH@Z 101a5180 f   idLib:Simd_Generic.obj
 0001:001a4390       ?CreateShadowCache@idSIMD_Generic@@UAIHPAVidVec4@@PAHABVidVec3@@PBVidDrawVert@@H@Z 101a5390 f   idLib:Simd_Generic.obj
 0001:001a4570       ?CreateVertexProgramShadowCache@idSIMD_Generic@@UAIHPAVidVec4@@PBVidDrawVert@@H@Z 101a5570 f   idLib:Simd_Generic.obj
 0001:001a4700       ?UpSamplePCMTo44kHz@idSIMD_Generic@@UAIXPAMPBFHHH@Z 101a5700 f   idLib:Simd_Generic.obj
 0001:001a4a90       ?UpSampleOGGTo44kHz@idSIMD_Generic@@UAIXPAMPBQBMHHH@Z 101a5a90 f   idLib:Simd_Generic.obj
 0001:001a50e0       ?MixSoundTwoSpeakerMono@idSIMD_Generic@@UAIXPAMPBMHQBM2@Z 101a60e0 f   idLib:Simd_Generic.obj
 0001:001a5300       ?MixSoundTwoSpeakerStereo@idSIMD_Generic@@UAIXPAMPBMHQBM2@Z 101a6300 f   idLib:Simd_Generic.obj
 0001:001a5540       ?MixSoundSixSpeakerMono@idSIMD_Generic@@UAIXPAMPBMHQBM2@Z 101a6540 f   idLib:Simd_Generic.obj
 0001:001a5680       ?MixSoundSixSpeakerStereo@idSIMD_Generic@@UAIXPAMPBMHQBM2@Z 101a6680 f   idLib:Simd_Generic.obj
 0001:001a57d0       ?MixedSoundToSamples@idSIMD_Generic@@UAIXPAFPBMH@Z 101a67d0 f   idLib:Simd_Generic.obj
 0001:001a5840       ?Dot@idSIMD_Generic@@UAIXPAMABVidVec3@@PBV2@H@Z 101a6840 f   idLib:Simd_Generic.obj
 0001:001a5920       ?Dot@idSIMD_Generic@@UAIXPAMABVidVec3@@PBVidPlane@@H@Z 101a6920 f   idLib:Simd_Generic.obj
 0001:001a5a40       ?Dot@idSIMD_Generic@@UAIXPAMABVidVec3@@PBVidDrawVert@@H@Z 101a6a40 f   idLib:Simd_Generic.obj
 0001:001a5b40       ?Dot@idSIMD_Generic@@UAIXPAMABVidPlane@@PBVidVec3@@H@Z 101a6b40 f   idLib:Simd_Generic.obj
 0001:001a5c60       ?Dot@idSIMD_Generic@@UAIXPAMABVidPlane@@PBV2@H@Z 101a6c60 f   idLib:Simd_Generic.obj
 0001:001a5d90       ?Dot@idSIMD_Generic@@UAIXPAMABVidPlane@@PBVidDrawVert@@H@Z 101a6d90 f   idLib:Simd_Generic.obj
 0001:001a5ec0       ?Dot@idSIMD_Generic@@UAIXPAMPBVidVec3@@1H@Z 101a6ec0 f   idLib:Simd_Generic.obj
 0001:001a5fd0       ?MinMax@idSIMD_Generic@@UAIXAAVidVec2@@0PBV2@H@Z 101a6fd0 f   idLib:Simd_Generic.obj
 0001:001a61e0       ?MinMax@idSIMD_Generic@@UAIXAAVidVec3@@0PBV2@H@Z 101a71e0 f   idLib:Simd_Generic.obj
 0001:001a64e0       ?MinMax@idSIMD_Generic@@UAIXAAVidVec3@@0PBVidDrawVert@@H@Z 101a74e0 f   idLib:Simd_Generic.obj
 0001:001a67e0       ?MinMax@idSIMD_Generic@@UAIXAAVidVec3@@0PBVidDrawVert@@PBHH@Z 101a77e0 f   idLib:Simd_Generic.obj
 0001:001a6b20       ?MatX_MultiplyVecX@idSIMD_Generic@@UAIXAAVidVecX@@ABVidMatX@@ABV2@@Z 101a7b20 f   idLib:Simd_Generic.obj
 0001:001a7170       ?MatX_MultiplyAddVecX@idSIMD_Generic@@UAIXAAVidVecX@@ABVidMatX@@ABV2@@Z 101a8170 f   idLib:Simd_Generic.obj
 0001:001a7820       ?MatX_MultiplySubVecX@idSIMD_Generic@@UAIXAAVidVecX@@ABVidMatX@@ABV2@@Z 101a8820 f   idLib:Simd_Generic.obj
 0001:001a7f10       ?MatX_TransposeMultiplyVecX@idSIMD_Generic@@UAIXAAVidVecX@@ABVidMatX@@ABV2@@Z 101a8f10 f   idLib:Simd_Generic.obj
 0001:001a85e0       ?MatX_TransposeMultiplyAddVecX@idSIMD_Generic@@UAIXAAVidVecX@@ABVidMatX@@ABV2@@Z 101a95e0 f   idLib:Simd_Generic.obj
 0001:001a8d50       ?MatX_TransposeMultiplySubVecX@idSIMD_Generic@@UAIXAAVidVecX@@ABVidMatX@@ABV2@@Z 101a9d50 f   idLib:Simd_Generic.obj
 0001:001a94f0       ?MatX_MultiplyMatX@idSIMD_Generic@@UAIXAAVidMatX@@ABV2@1@Z 101aa4f0 f   idLib:Simd_Generic.obj
 0001:001aac70       ?MatX_TransposeMultiplyMatX@idSIMD_Generic@@UAIXAAVidMatX@@ABV2@1@Z 101abc70 f   idLib:Simd_Generic.obj
 0001:001ac200       ?MatX_LowerTriangularSolve@idSIMD_Generic@@UAIXABVidMatX@@PAMPBMHH@Z 101ad200 f   idLib:Simd_Generic.obj
 0001:001ac7b0       ?MatX_LowerTriangularSolveTranspose@idSIMD_Generic@@UAIXABVidMatX@@PAMPBMH@Z 101ad7b0 f   idLib:Simd_Generic.obj
 0001:001acf00       ?MatX_LDLTFactor@idSIMD_Generic@@UAI_NAAVidMatX@@AAVidVecX@@H@Z 101adf00 f   idLib:Simd_Generic.obj
 0001:001ad800       ?ConvertJointQuatsToJointMats@idSIMD_Generic@@UAIXPAVidJointMat@@PBVidJointQuat@@H@Z 101ae800 f   idLib:Simd_Generic.obj
 0001:001ad880       ?TransformJoints@idSIMD_Generic@@UAIXPAVidJointMat@@PBHHH@Z 101ae880 f   idLib:Simd_Generic.obj
 0001:001ada60       ?UntransformJoints@idSIMD_Generic@@UAIXPAVidJointMat@@PBHHH@Z 101aea60 f   idLib:Simd_Generic.obj
 0001:001adc50       ?TransformVerts@idSIMD_Generic@@UAIXPAVidDrawVert@@HPBVidJointMat@@PBVidVec4@@PBHH@Z 101aec50 f   idLib:Simd_Generic.obj
 0001:001adde0       ?TracePointCull@idSIMD_Generic@@UAIXPAEAAEMPBVidPlane@@PBVidDrawVert@@H@Z 101aede0 f   idLib:Simd_Generic.obj
 0001:001adf60       ?DecalPointCull@idSIMD_Generic@@UAIXPAEPBVidPlane@@PBVidDrawVert@@H@Z 101aef60 f   idLib:Simd_Generic.obj
 0001:001ae090       ?OverlayPointCull@idSIMD_Generic@@UAIXPAEPAVidVec2@@PBVidPlane@@PBVidDrawVert@@H@Z 101af090 f   idLib:Simd_Generic.obj
 0001:001ae3d0       ?DeriveTriPlanes@idSIMD_Generic@@UAIXPAVidPlane@@PBVidDrawVert@@HPBHH@Z 101af3d0 f   idLib:Simd_Generic.obj
 0001:001ae590       ?DeriveTangents@idSIMD_Generic@@UAIXPAVidPlane@@PAVidDrawVert@@HPBHH@Z 101af590 f   idLib:Simd_Generic.obj
 0001:001aeac0       ?ConvertJointMatsToJointQuats@idSIMD_Generic@@UAIXPAVidJointQuat@@PBVidJointMat@@H@Z 101afac0 f   idLib:Simd_Generic.obj
 0001:001aeb20       ?GetName@idSIMD_MMX@@UBIPBDXZ 101afb20 f   idLib:Simd_MMX.obj
 0001:001aeb30       ?MMX_Memcpy64B@@YAXPAXPBXH@Z 101afb30 f   idLib:Simd_MMX.obj
 0001:001aeba0       ?MMX_Memcpy2kB@@YAXPAXPBXH@Z 101afba0 f   idLib:Simd_MMX.obj
 0001:001aec90       ?Memcpy@idSIMD_MMX@@UAIXPAXPBXH@Z 101afc90 f   idLib:Simd_MMX.obj
 0001:001aed90       ?Memset@idSIMD_MMX@@UAIXPAXHH@Z 101afd90 f   idLib:Simd_MMX.obj
 0001:001aee80       ?GetName@idSIMD_SSE@@UBIPBDXZ 101afe80 f   idLib:Simd_SSE.obj
 0001:001aee90       ?Add@idSIMD_SSE@@UAIXPAMMPBMH@Z 101afe90 f   idLib:Simd_SSE.obj
 0001:001aefc0       ?Add@idSIMD_SSE@@UAIXPAMPBM1H@Z 101affc0 f   idLib:Simd_SSE.obj
 0001:001af100       ?Sub@idSIMD_SSE@@UAIXPAMMPBMH@Z 101b0100 f   idLib:Simd_SSE.obj
 0001:001af230       ?Sub@idSIMD_SSE@@UAIXPAMPBM1H@Z 101b0230 f   idLib:Simd_SSE.obj
 0001:001af370       ?Mul@idSIMD_SSE@@UAIXPAMMPBMH@Z 101b0370 f   idLib:Simd_SSE.obj
 0001:001af4a0       ?Mul@idSIMD_SSE@@UAIXPAMPBM1H@Z 101b04a0 f   idLib:Simd_SSE.obj
 0001:001af5e0       ?Div@idSIMD_SSE@@UAIXPAMMPBMH@Z 101b05e0 f   idLib:Simd_SSE.obj
 0001:001af790       ?Div@idSIMD_SSE@@UAIXPAMPBM1H@Z 101b0790 f   idLib:Simd_SSE.obj
 0001:001afa50       ?MulAdd@idSIMD_SSE@@UAIXPAMMPBMH@Z 101b0a50 f   idLib:Simd_SSE.obj
 0001:001afe10       ?MulAdd@idSIMD_SSE@@UAIXPAMPBM1H@Z 101b0e10 f   idLib:Simd_SSE.obj
 0001:001afec0       ?MulSub@idSIMD_SSE@@UAIXPAMMPBMH@Z 101b0ec0 f   idLib:Simd_SSE.obj
 0001:001b02d0       ?MulSub@idSIMD_SSE@@UAIXPAMPBM1H@Z 101b12d0 f   idLib:Simd_SSE.obj
 0001:001b0390       ?Dot@idSIMD_SSE@@UAIXPAMABVidVec3@@PBV2@H@Z 101b1390 f   idLib:Simd_SSE.obj
 0001:001b0460       ?Dot@idSIMD_SSE@@UAIXPAMABVidVec3@@PBVidPlane@@H@Z 101b1460 f   idLib:Simd_SSE.obj
 0001:001b0550       ?Dot@idSIMD_SSE@@UAIXPAMABVidVec3@@PBVidDrawVert@@H@Z 101b1550 f   idLib:Simd_SSE.obj
 0001:001b0640       ?Dot@idSIMD_SSE@@UAIXPAMABVidPlane@@PBVidVec3@@H@Z 101b1640 f   idLib:Simd_SSE.obj
 0001:001b0720       ?Dot@idSIMD_SSE@@UAIXPAMABVidPlane@@PBV2@H@Z 101b1720 f   idLib:Simd_SSE.obj
 0001:001b0880       ?Dot@idSIMD_SSE@@UAIXPAMABVidPlane@@PBVidDrawVert@@H@Z 101b1880 f   idLib:Simd_SSE.obj
 0001:001b0980       ?Dot@idSIMD_SSE@@UAIXPAMPBVidVec3@@1H@Z 101b1980 f   idLib:Simd_SSE.obj
 0001:001b0a70       ?Dot@idSIMD_SSE@@UAIXAAMPBM1H@Z 101b1a70 f   idLib:Simd_SSE.obj
 0001:001b0bd0       ?CmpGT@idSIMD_SSE@@UAIXPAEPBMMH@Z 101b1bd0 f   idLib:Simd_SSE.obj
 0001:001b0da0       ?CmpGT@idSIMD_SSE@@UAIXPAEEPBMMH@Z 101b1da0 f   idLib:Simd_SSE.obj
 0001:001b0fb0       ?CmpGE@idSIMD_SSE@@UAIXPAEPBMMH@Z 101b1fb0 f   idLib:Simd_SSE.obj
 0001:001b1180       ?CmpGE@idSIMD_SSE@@UAIXPAEEPBMMH@Z 101b2180 f   idLib:Simd_SSE.obj
 0001:001b1390       ?CmpLT@idSIMD_SSE@@UAIXPAEPBMMH@Z 101b2390 f   idLib:Simd_SSE.obj
 0001:001b1560       ?CmpLT@idSIMD_SSE@@UAIXPAEEPBMMH@Z 101b2560 f   idLib:Simd_SSE.obj
 0001:001b1770       ?CmpLE@idSIMD_SSE@@UAIXPAEPBMMH@Z 101b2770 f   idLib:Simd_SSE.obj
 0001:001b1940       ?CmpLE@idSIMD_SSE@@UAIXPAEEPBMMH@Z 101b2940 f   idLib:Simd_SSE.obj
 0001:001b1b50       ?MinMax@idSIMD_SSE@@UAIXAAM0PBMH@Z 101b2b50 f   idLib:Simd_SSE.obj
 0001:001b1df0       ?MinMax@idSIMD_SSE@@UAIXAAVidVec2@@0PBV2@H@Z 101b2df0 f   idLib:Simd_SSE.obj
 0001:001b1e70       ?MinMax@idSIMD_SSE@@UAIXAAVidVec3@@0PBV2@H@Z 101b2e70 f   idLib:Simd_SSE.obj
 0001:001b1f40       ?MinMax@idSIMD_SSE@@UAIXAAVidVec3@@0PBVidDrawVert@@H@Z 101b2f40 f   idLib:Simd_SSE.obj
 0001:001b2020       ?MinMax@idSIMD_SSE@@UAIXAAVidVec3@@0PBVidDrawVert@@PBHH@Z 101b3020 f   idLib:Simd_SSE.obj
 0001:001b2110       ?Clamp@idSIMD_SSE@@UAIXPAMPBMMMH@Z 101b3110 f   idLib:Simd_SSE.obj
 0001:001b2380       ?ClampMin@idSIMD_SSE@@UAIXPAMPBMMH@Z 101b3380 f   idLib:Simd_SSE.obj
 0001:001b2540       ?ClampMax@idSIMD_SSE@@UAIXPAMPBMMH@Z 101b3540 f   idLib:Simd_SSE.obj
 0001:001b2700       ?Zero16@idSIMD_SSE@@UAIXPAMH@Z 101b3700 f   idLib:Simd_SSE.obj
 0001:001b2730       ?Negate16@idSIMD_SSE@@UAIXPAMH@Z 101b3730 f   idLib:Simd_SSE.obj
 0001:001b2770       ?Copy16@idSIMD_SSE@@UAIXPAMPBMH@Z 101b3770 f   idLib:Simd_SSE.obj
 0001:001b27b0       ?Add16@idSIMD_SSE@@UAIXPAMPBM1H@Z 101b37b0 f   idLib:Simd_SSE.obj
 0001:001b27f0       ?Sub16@idSIMD_SSE@@UAIXPAMPBM1H@Z 101b37f0 f   idLib:Simd_SSE.obj
 0001:001b2830       ?Mul16@idSIMD_SSE@@UAIXPAMPBMMH@Z 101b3830 f   idLib:Simd_SSE.obj
 0001:001b2870       ?AddAssign16@idSIMD_SSE@@UAIXPAMPBMH@Z 101b3870 f   idLib:Simd_SSE.obj
 0001:001b28b0       ?SubAssign16@idSIMD_SSE@@UAIXPAMPBMH@Z 101b38b0 f   idLib:Simd_SSE.obj
 0001:001b28f0       ?MulAssign16@idSIMD_SSE@@UAIXPAMMH@Z 101b38f0 f   idLib:Simd_SSE.obj
 0001:001b2930       ?ConvertJointMatsToJointQuats@idSIMD_SSE@@UAIXPAVidJointQuat@@PBVidJointMat@@H@Z 101b3930 f   idLib:Simd_SSE.obj
 0001:001b2eb0       ?TransformJoints@idSIMD_SSE@@UAIXPAVidJointMat@@PBHHH@Z 101b3eb0 f   idLib:Simd_SSE.obj
 0001:001b2fc0       ?UntransformJoints@idSIMD_SSE@@UAIXPAVidJointMat@@PBHHH@Z 101b3fc0 f   idLib:Simd_SSE.obj
 0001:001b30d0       ?TransformVerts@idSIMD_SSE@@UAIXPAVidDrawVert@@HPBVidJointMat@@PBVidVec4@@PBHH@Z 101b40d0 f   idLib:Simd_SSE.obj
 0001:001b3190       ?TracePointCull@idSIMD_SSE@@UAIXPAEAAEMPBVidPlane@@PBVidDrawVert@@H@Z 101b4190 f   idLib:Simd_SSE.obj
 0001:001b3260       ?DecalPointCull@idSIMD_SSE@@UAIXPAEPBVidPlane@@PBVidDrawVert@@H@Z 101b4260 f   idLib:Simd_SSE.obj
 0001:001b3490       ?OverlayPointCull@idSIMD_SSE@@UAIXPAEPAVidVec2@@PBVidPlane@@PBVidDrawVert@@H@Z 101b4490 f   idLib:Simd_SSE.obj
 0001:001b35c0       ?DeriveTriPlanes@idSIMD_SSE@@UAIXPAVidPlane@@PBVidDrawVert@@HPBHH@Z 101b45c0 f   idLib:Simd_SSE.obj
 0001:001b3a50       ?DeriveUnsmoothedTangents@idSIMD_SSE@@UAIXPAVidDrawVert@@PBUdominantTri_s@@H@Z 101b4a50 f   idLib:Simd_SSE.obj
 0001:001b4170       ?NormalizeTangents@idSIMD_SSE@@UAIXPAVidDrawVert@@H@Z 101b5170 f   idLib:Simd_SSE.obj
 0001:001b46d0       ?CreateTextureSpaceLightVectors@idSIMD_SSE@@UAIXPAVidVec3@@ABV2@PBVidDrawVert@@HPBHH@Z 101b56d0 f   idLib:Simd_SSE.obj
 0001:001b49f0       ?CreateSpecularTextureCoords@idSIMD_SSE@@UAIXPAVidVec4@@ABVidVec3@@1PBVidDrawVert@@HPBHH@Z 101b59f0 f   idLib:Simd_SSE.obj
 0001:001b4ea0       ?CreateShadowCache@idSIMD_SSE@@UAIHPAVidVec4@@PAHABVidVec3@@PBVidDrawVert@@H@Z 101b5ea0 f   idLib:Simd_SSE.obj
 0001:001b5010       ?CreateVertexProgramShadowCache@idSIMD_SSE@@UAIHPAVidVec4@@PBVidDrawVert@@H@Z 101b6010 f   idLib:Simd_SSE.obj
 0001:001b52a0       ?UpSamplePCMTo44kHz@idSIMD_SSE@@UAIXPAMPBFHHH@Z 101b62a0 f   idLib:Simd_SSE.obj
 0001:001b5780       ?UpSampleOGGTo44kHz@idSIMD_SSE@@UAIXPAMPBQBMHHH@Z 101b6780 f   idLib:Simd_SSE.obj
 0001:001b5840       ?MixSoundTwoSpeakerMono@idSIMD_SSE@@UAIXPAMPBMHQBM2@Z 101b6840 f   idLib:Simd_SSE.obj
